ARM GAS  C:\Users\syhaines\AppData\Local\Temp\ccFwROm9.s 			page 1


   1              		.cpu cortex-m0
   2              		.fpu softvfp
   3              		.eabi_attribute 20, 1
   4              		.eabi_attribute 21, 1
   5              		.eabi_attribute 23, 3
   6              		.eabi_attribute 24, 1
   7              		.eabi_attribute 25, 1
   8              		.eabi_attribute 26, 1
   9              		.eabi_attribute 30, 4
  10              		.eabi_attribute 34, 0
  11              		.eabi_attribute 18, 4
  12              		.code	16
  13              		.file	"CapSense_1_CSHL.c"
  14              		.text
  15              	.Ltext0:
  16              		.cfi_sections	.debug_frame
  17              		.section	.text.CapSense_1_BaseInit,"ax",%progbits
  18              		.align	1
  19              		.global	CapSense_1_BaseInit
  20              		.code	16
  21              		.thumb_func
  22              		.type	CapSense_1_BaseInit, %function
  23              	CapSense_1_BaseInit:
  24              	.LFB33:
  25              		.file 1 ".\\Generated_Source\\PSoC4\\CapSense_1_CSHL.c"
   1:.\Generated_Source\PSoC4/CapSense_1_CSHL.c **** /*******************************************************************************
   2:.\Generated_Source\PSoC4/CapSense_1_CSHL.c **** * File Name: CapSense_1_CSHL.c
   3:.\Generated_Source\PSoC4/CapSense_1_CSHL.c **** * Version 2.30
   4:.\Generated_Source\PSoC4/CapSense_1_CSHL.c **** *
   5:.\Generated_Source\PSoC4/CapSense_1_CSHL.c **** * Description:
   6:.\Generated_Source\PSoC4/CapSense_1_CSHL.c **** *  This file provides the source code to the High Level APIs for the CapSesne
   7:.\Generated_Source\PSoC4/CapSense_1_CSHL.c **** *  CSD component.
   8:.\Generated_Source\PSoC4/CapSense_1_CSHL.c **** *
   9:.\Generated_Source\PSoC4/CapSense_1_CSHL.c **** * Note:
  10:.\Generated_Source\PSoC4/CapSense_1_CSHL.c **** *
  11:.\Generated_Source\PSoC4/CapSense_1_CSHL.c **** ********************************************************************************
  12:.\Generated_Source\PSoC4/CapSense_1_CSHL.c **** * Copyright 2013-2015, Cypress Semiconductor Corporation.  All rights reserved.
  13:.\Generated_Source\PSoC4/CapSense_1_CSHL.c **** * You may use this file only in accordance with the license, terms, conditions,
  14:.\Generated_Source\PSoC4/CapSense_1_CSHL.c **** * disclaimers, and limitations in the end user license agreement accompanying
  15:.\Generated_Source\PSoC4/CapSense_1_CSHL.c **** * the software package with which this file was provided.
  16:.\Generated_Source\PSoC4/CapSense_1_CSHL.c **** *******************************************************************************/
  17:.\Generated_Source\PSoC4/CapSense_1_CSHL.c **** 
  18:.\Generated_Source\PSoC4/CapSense_1_CSHL.c **** #include "CapSense_1_CSHL.h"
  19:.\Generated_Source\PSoC4/CapSense_1_CSHL.c **** #include "CapSense_1_PVT.h"
  20:.\Generated_Source\PSoC4/CapSense_1_CSHL.c **** 
  21:.\Generated_Source\PSoC4/CapSense_1_CSHL.c **** /* SmartSense functions */
  22:.\Generated_Source\PSoC4/CapSense_1_CSHL.c **** #if (CapSense_1_TUNING_METHOD == CapSense_1__TUNING_AUTO)
  23:.\Generated_Source\PSoC4/CapSense_1_CSHL.c ****     extern void CapSense_1_UpdateThresholds(uint32 sensor);
  24:.\Generated_Source\PSoC4/CapSense_1_CSHL.c **** #endif /* (CapSense_1_TUNING_METHOD == CapSense_1__TUNING_AUTO) */
  25:.\Generated_Source\PSoC4/CapSense_1_CSHL.c **** 
  26:.\Generated_Source\PSoC4/CapSense_1_CSHL.c **** /* Storage of filters data */
  27:.\Generated_Source\PSoC4/CapSense_1_CSHL.c **** #if ( (0u != (CapSense_1_RAW_FILTER_MASK & CapSense_1_MEDIAN_FILTER)) || \
  28:.\Generated_Source\PSoC4/CapSense_1_CSHL.c ****       (0u != (CapSense_1_RAW_FILTER_MASK & CapSense_1_AVERAGING_FILTER)) )
  29:.\Generated_Source\PSoC4/CapSense_1_CSHL.c **** 
  30:.\Generated_Source\PSoC4/CapSense_1_CSHL.c ****     uint16 CapSense_1_rawFilterData1[CapSense_1_TOTAL_SENSOR_COUNT];
  31:.\Generated_Source\PSoC4/CapSense_1_CSHL.c ****     uint16 CapSense_1_rawFilterData2[CapSense_1_TOTAL_SENSOR_COUNT];
  32:.\Generated_Source\PSoC4/CapSense_1_CSHL.c **** 
ARM GAS  C:\Users\syhaines\AppData\Local\Temp\ccFwROm9.s 			page 2


  33:.\Generated_Source\PSoC4/CapSense_1_CSHL.c **** #elif ( (0u != (CapSense_1_RAW_FILTER_MASK & CapSense_1_IIR2_FILTER))   || \
  34:.\Generated_Source\PSoC4/CapSense_1_CSHL.c ****         (0u != (CapSense_1_RAW_FILTER_MASK & CapSense_1_IIR4_FILTER))   || \
  35:.\Generated_Source\PSoC4/CapSense_1_CSHL.c ****         (0u != (CapSense_1_RAW_FILTER_MASK & CapSense_1_JITTER_FILTER)) || \
  36:.\Generated_Source\PSoC4/CapSense_1_CSHL.c ****         (0u != (CapSense_1_RAW_FILTER_MASK & CapSense_1_IIR8_FILTER))   || \
  37:.\Generated_Source\PSoC4/CapSense_1_CSHL.c ****         (0u != (CapSense_1_RAW_FILTER_MASK & CapSense_1_IIR16_FILTER)) )
  38:.\Generated_Source\PSoC4/CapSense_1_CSHL.c **** 
  39:.\Generated_Source\PSoC4/CapSense_1_CSHL.c ****     uint16 CapSense_1_rawFilterData1[CapSense_1_TOTAL_SENSOR_COUNT];
  40:.\Generated_Source\PSoC4/CapSense_1_CSHL.c **** #endif  /* ( (CapSense_1_RAW_FILTER_MASK & CapSense_1_MEDIAN_FILTER) || \
  41:.\Generated_Source\PSoC4/CapSense_1_CSHL.c ****         *    (CapSense_1_RAW_FILTER_MASK & CapSense_1_AVERAGING_FILTER) )
  42:.\Generated_Source\PSoC4/CapSense_1_CSHL.c ****         */
  43:.\Generated_Source\PSoC4/CapSense_1_CSHL.c **** 
  44:.\Generated_Source\PSoC4/CapSense_1_CSHL.c **** extern uint16 CapSense_1_sensorRaw[CapSense_1_TOTAL_SENSOR_COUNT];
  45:.\Generated_Source\PSoC4/CapSense_1_CSHL.c **** extern uint8 CapSense_1_sensorEnableMask[CapSense_1_TOTAL_SENSOR_MASK];
  46:.\Generated_Source\PSoC4/CapSense_1_CSHL.c **** extern const uint8 CapSense_1_widgetNumber[CapSense_1_TOTAL_SENSOR_COUNT];
  47:.\Generated_Source\PSoC4/CapSense_1_CSHL.c **** 
  48:.\Generated_Source\PSoC4/CapSense_1_CSHL.c **** #if (CapSense_1_TUNING_METHOD != CapSense_1__TUNING_NONE)
  49:.\Generated_Source\PSoC4/CapSense_1_CSHL.c ****     extern uint32 CapSense_1_widgetResolution[CapSense_1_RESOLUTIONS_TBL_SIZE];
  50:.\Generated_Source\PSoC4/CapSense_1_CSHL.c **** #endif /* (CapSense_1_TUNING_METHOD != CapSense_1__TUNING_NONE) */
  51:.\Generated_Source\PSoC4/CapSense_1_CSHL.c **** 
  52:.\Generated_Source\PSoC4/CapSense_1_CSHL.c **** uint16 CapSense_1_sensorBaseline[CapSense_1_TOTAL_SENSOR_COUNT] = {0u};
  53:.\Generated_Source\PSoC4/CapSense_1_CSHL.c **** uint8 CapSense_1_sensorBaselineLow[CapSense_1_TOTAL_SENSOR_COUNT] = {0u};
  54:.\Generated_Source\PSoC4/CapSense_1_CSHL.c **** uint8 CapSense_1_sensorSignal[CapSense_1_TOTAL_SENSOR_COUNT] = {0u};
  55:.\Generated_Source\PSoC4/CapSense_1_CSHL.c **** uint8 CapSense_1_sensorOnMask[CapSense_1_TOTAL_SENSOR_MASK] = {0u};
  56:.\Generated_Source\PSoC4/CapSense_1_CSHL.c **** 
  57:.\Generated_Source\PSoC4/CapSense_1_CSHL.c **** uint8 CapSense_1_lowBaselineResetCnt[CapSense_1_TOTAL_SENSOR_COUNT];
  58:.\Generated_Source\PSoC4/CapSense_1_CSHL.c **** uint8 CapSense_1_lowBaselineReset[CapSense_1_TOTAL_SENSOR_COUNT] = {
  59:.\Generated_Source\PSoC4/CapSense_1_CSHL.c ****     30u, 30u, 30u, 
  60:.\Generated_Source\PSoC4/CapSense_1_CSHL.c **** };
  61:.\Generated_Source\PSoC4/CapSense_1_CSHL.c **** 
  62:.\Generated_Source\PSoC4/CapSense_1_CSHL.c **** 
  63:.\Generated_Source\PSoC4/CapSense_1_CSHL.c **** 
  64:.\Generated_Source\PSoC4/CapSense_1_CSHL.c **** #if (CapSense_1_TUNING_METHOD == CapSense_1__TUNING_AUTO)
  65:.\Generated_Source\PSoC4/CapSense_1_CSHL.c ****     extern CapSense_1_CONFIG_TYPE_P4_v2_30 CapSense_1_config;
  66:.\Generated_Source\PSoC4/CapSense_1_CSHL.c **** #endif  /* (CapSense_1_TUNING_METHOD == CapSense_1__TUNING_AUTO) */
  67:.\Generated_Source\PSoC4/CapSense_1_CSHL.c **** 
  68:.\Generated_Source\PSoC4/CapSense_1_CSHL.c **** #if (CapSense_1_RAW_FILTER_MASK != 0u)
  69:.\Generated_Source\PSoC4/CapSense_1_CSHL.c **** uint8 CapSense_1_enableRawFilters = CapSense_1_RAW_FILTERS_ENABLED;
  70:.\Generated_Source\PSoC4/CapSense_1_CSHL.c **** #endif  /* (CapSense_1_RAW_FILTER_MASK != 0u) */
  71:.\Generated_Source\PSoC4/CapSense_1_CSHL.c **** 
  72:.\Generated_Source\PSoC4/CapSense_1_CSHL.c **** /* Generated by Customizer */
  73:.\Generated_Source\PSoC4/CapSense_1_CSHL.c **** uint8 CapSense_1_fingerThreshold[] = {
  74:.\Generated_Source\PSoC4/CapSense_1_CSHL.c ****     75u, 70u, 70u, 
  75:.\Generated_Source\PSoC4/CapSense_1_CSHL.c **** };
  76:.\Generated_Source\PSoC4/CapSense_1_CSHL.c **** 
  77:.\Generated_Source\PSoC4/CapSense_1_CSHL.c **** uint8 CapSense_1_noiseThreshold[CapSense_1_THRESHOLD_TBL_SIZE];
  78:.\Generated_Source\PSoC4/CapSense_1_CSHL.c **** 
  79:.\Generated_Source\PSoC4/CapSense_1_CSHL.c **** uint8 CapSense_1_negativeNoiseThreshold[CapSense_1_THRESHOLD_TBL_SIZE];
  80:.\Generated_Source\PSoC4/CapSense_1_CSHL.c **** 
  81:.\Generated_Source\PSoC4/CapSense_1_CSHL.c **** uint8 CapSense_1_hysteresis[CapSense_1_WIDGET_PARAM_TBL_SIZE];
  82:.\Generated_Source\PSoC4/CapSense_1_CSHL.c **** 
  83:.\Generated_Source\PSoC4/CapSense_1_CSHL.c **** uint8 CapSense_1_debounce[] = {
  84:.\Generated_Source\PSoC4/CapSense_1_CSHL.c ****     5u, 5u, 5u, 
  85:.\Generated_Source\PSoC4/CapSense_1_CSHL.c **** };
  86:.\Generated_Source\PSoC4/CapSense_1_CSHL.c **** 
  87:.\Generated_Source\PSoC4/CapSense_1_CSHL.c **** static uint8 CapSense_1_debounceCounter[] = {
  88:.\Generated_Source\PSoC4/CapSense_1_CSHL.c ****     0u, 0u, 0u, 0u, 
  89:.\Generated_Source\PSoC4/CapSense_1_CSHL.c **** };
ARM GAS  C:\Users\syhaines\AppData\Local\Temp\ccFwROm9.s 			page 3


  90:.\Generated_Source\PSoC4/CapSense_1_CSHL.c **** 
  91:.\Generated_Source\PSoC4/CapSense_1_CSHL.c **** const uint8 CapSense_1_rawDataIndex[] = {
  92:.\Generated_Source\PSoC4/CapSense_1_CSHL.c ****     0u, /* MAIN__BTN */
  93:.\Generated_Source\PSoC4/CapSense_1_CSHL.c ****     1u, /* PLUS__BTN */
  94:.\Generated_Source\PSoC4/CapSense_1_CSHL.c ****     2u, /* MINUS__BTN */
  95:.\Generated_Source\PSoC4/CapSense_1_CSHL.c **** };
  96:.\Generated_Source\PSoC4/CapSense_1_CSHL.c **** 
  97:.\Generated_Source\PSoC4/CapSense_1_CSHL.c **** const uint8 CapSense_1_numberOfSensors[] = {
  98:.\Generated_Source\PSoC4/CapSense_1_CSHL.c ****     1u, /* MAIN__BTN */
  99:.\Generated_Source\PSoC4/CapSense_1_CSHL.c ****     1u, /* PLUS__BTN */
 100:.\Generated_Source\PSoC4/CapSense_1_CSHL.c ****     1u, /* MINUS__BTN */
 101:.\Generated_Source\PSoC4/CapSense_1_CSHL.c **** };
 102:.\Generated_Source\PSoC4/CapSense_1_CSHL.c **** 
 103:.\Generated_Source\PSoC4/CapSense_1_CSHL.c **** 
 104:.\Generated_Source\PSoC4/CapSense_1_CSHL.c **** 
 105:.\Generated_Source\PSoC4/CapSense_1_CSHL.c **** 
 106:.\Generated_Source\PSoC4/CapSense_1_CSHL.c **** /*******************************************************************************
 107:.\Generated_Source\PSoC4/CapSense_1_CSHL.c **** * Function Name: CapSense_1_BaseInit
 108:.\Generated_Source\PSoC4/CapSense_1_CSHL.c **** ********************************************************************************
 109:.\Generated_Source\PSoC4/CapSense_1_CSHL.c **** *
 110:.\Generated_Source\PSoC4/CapSense_1_CSHL.c **** * Summary:
 111:.\Generated_Source\PSoC4/CapSense_1_CSHL.c **** *  Loads the CapSense_1_sensorBaseline[sensor] array element with an
 112:.\Generated_Source\PSoC4/CapSense_1_CSHL.c **** *  initial value which is equal to the raw count value.
 113:.\Generated_Source\PSoC4/CapSense_1_CSHL.c **** *  Resets to zero CapSense_1_sensorBaselineLow[sensor] and
 114:.\Generated_Source\PSoC4/CapSense_1_CSHL.c **** *  CapSense_1_sensorSignal[sensor] array element.
 115:.\Generated_Source\PSoC4/CapSense_1_CSHL.c **** *  Loads the CapSense_1_rawFilterData2[sensor] and
 116:.\Generated_Source\PSoC4/CapSense_1_CSHL.c **** *  CapSense_1_rawFilterData2[sensor] array element with an
 117:.\Generated_Source\PSoC4/CapSense_1_CSHL.c **** *  initial value which is equal to the raw count value if the raw data filter is enabled.
 118:.\Generated_Source\PSoC4/CapSense_1_CSHL.c **** *
 119:.\Generated_Source\PSoC4/CapSense_1_CSHL.c **** * Parameters:
 120:.\Generated_Source\PSoC4/CapSense_1_CSHL.c **** *  sensor:  Sensor number.
 121:.\Generated_Source\PSoC4/CapSense_1_CSHL.c **** *
 122:.\Generated_Source\PSoC4/CapSense_1_CSHL.c **** * Return:
 123:.\Generated_Source\PSoC4/CapSense_1_CSHL.c **** *  None
 124:.\Generated_Source\PSoC4/CapSense_1_CSHL.c **** *
 125:.\Generated_Source\PSoC4/CapSense_1_CSHL.c **** * Global Variables:
 126:.\Generated_Source\PSoC4/CapSense_1_CSHL.c **** *  CapSense_1_sensorBaseline[]    - used to store the baseline value.
 127:.\Generated_Source\PSoC4/CapSense_1_CSHL.c **** *  CapSense_1_sensorBaselineLow[] - used to store the fraction byte of
 128:.\Generated_Source\PSoC4/CapSense_1_CSHL.c **** *  the baseline value.
 129:.\Generated_Source\PSoC4/CapSense_1_CSHL.c **** *  CapSense_1_sensorSignal[]      - used to store a difference between
 130:.\Generated_Source\PSoC4/CapSense_1_CSHL.c **** *  the current value of raw data and the previous value of the baseline.
 131:.\Generated_Source\PSoC4/CapSense_1_CSHL.c **** *  CapSense_1_rawFilterData1[]    - used to store a previous sample of
 132:.\Generated_Source\PSoC4/CapSense_1_CSHL.c **** *  any enabled raw data filter.
 133:.\Generated_Source\PSoC4/CapSense_1_CSHL.c **** *  CapSense_1_rawFilterData2[]    - used to store before a previous sample
 134:.\Generated_Source\PSoC4/CapSense_1_CSHL.c **** *  of the enabled raw data filter. Required only for median or average filters.
 135:.\Generated_Source\PSoC4/CapSense_1_CSHL.c **** *
 136:.\Generated_Source\PSoC4/CapSense_1_CSHL.c **** * Side Effects:
 137:.\Generated_Source\PSoC4/CapSense_1_CSHL.c **** *  None
 138:.\Generated_Source\PSoC4/CapSense_1_CSHL.c **** *
 139:.\Generated_Source\PSoC4/CapSense_1_CSHL.c **** *******************************************************************************/
 140:.\Generated_Source\PSoC4/CapSense_1_CSHL.c **** void CapSense_1_BaseInit(uint32 sensor)
 141:.\Generated_Source\PSoC4/CapSense_1_CSHL.c **** {
  26              		.loc 1 141 0
  27              		.cfi_startproc
  28              	.LVL0:
  29 0000 70B5     		push	{r4, r5, r6, lr}
  30              		.cfi_def_cfa_offset 16
ARM GAS  C:\Users\syhaines\AppData\Local\Temp\ccFwROm9.s 			page 4


  31              		.cfi_offset 4, -16
  32              		.cfi_offset 5, -12
  33              		.cfi_offset 6, -8
  34              		.cfi_offset 14, -4
 142:.\Generated_Source\PSoC4/CapSense_1_CSHL.c ****     #if ((CapSense_1_TOTAL_BUTTONS_COUNT) || (CapSense_1_TOTAL_MATRIX_BUTTONS_COUNT) || \
 143:.\Generated_Source\PSoC4/CapSense_1_CSHL.c ****          (CapSense_1_TOTAL_GENERICS_COUNT))
 144:.\Generated_Source\PSoC4/CapSense_1_CSHL.c ****         uint8 widget = CapSense_1_widgetNumber[sensor];
 145:.\Generated_Source\PSoC4/CapSense_1_CSHL.c ****     #endif /* ((CapSense_1_TOTAL_MATRIX_BUTTONS_COUNT) || (CapSense_1_TOTAL_MATRIX_BUTTONS_COUNT)) 
 146:.\Generated_Source\PSoC4/CapSense_1_CSHL.c **** 
 147:.\Generated_Source\PSoC4/CapSense_1_CSHL.c ****     #if (CapSense_1_TOTAL_MATRIX_BUTTONS_COUNT)
 148:.\Generated_Source\PSoC4/CapSense_1_CSHL.c ****         uint8 debounceIndex;
 149:.\Generated_Source\PSoC4/CapSense_1_CSHL.c ****     #endif  /* (CapSense_1_TOTAL_MATRIX_BUTTONS_COUNT) */
 150:.\Generated_Source\PSoC4/CapSense_1_CSHL.c **** 
 151:.\Generated_Source\PSoC4/CapSense_1_CSHL.c ****     #if (CapSense_1_TOTAL_GENERICS_COUNT)
 152:.\Generated_Source\PSoC4/CapSense_1_CSHL.c ****         /* Exclude generic widget */
 153:.\Generated_Source\PSoC4/CapSense_1_CSHL.c ****         if(widget < CapSense_1_END_OF_WIDGETS_INDEX)
 154:.\Generated_Source\PSoC4/CapSense_1_CSHL.c ****         {
 155:.\Generated_Source\PSoC4/CapSense_1_CSHL.c ****     #endif  /* CapSense_1_TOTAL_GENERICS_COUNT */
 156:.\Generated_Source\PSoC4/CapSense_1_CSHL.c **** 
 157:.\Generated_Source\PSoC4/CapSense_1_CSHL.c ****     /* Initialize Baseline */
 158:.\Generated_Source\PSoC4/CapSense_1_CSHL.c ****     CapSense_1_sensorBaseline[sensor] = CapSense_1_sensorRaw[sensor];
 159:.\Generated_Source\PSoC4/CapSense_1_CSHL.c ****     CapSense_1_sensorBaselineLow[sensor] = 0u;
  35              		.loc 1 159 0
  36 0002 0025     		mov	r5, #0
 144:.\Generated_Source\PSoC4/CapSense_1_CSHL.c ****     #endif /* ((CapSense_1_TOTAL_MATRIX_BUTTONS_COUNT) || (CapSense_1_TOTAL_MATRIX_BUTTONS_COUNT)) 
  37              		.loc 1 144 0
  38 0004 094B     		ldr	r3, .L2
 158:.\Generated_Source\PSoC4/CapSense_1_CSHL.c ****     CapSense_1_sensorBaselineLow[sensor] = 0u;
  39              		.loc 1 158 0
  40 0006 4200     		lsl	r2, r0, #1
 144:.\Generated_Source\PSoC4/CapSense_1_CSHL.c ****     #endif /* ((CapSense_1_TOTAL_MATRIX_BUTTONS_COUNT) || (CapSense_1_TOTAL_MATRIX_BUTTONS_COUNT)) 
  41              		.loc 1 144 0
  42 0008 1C5C     		ldrb	r4, [r3, r0]
  43              	.LVL1:
 158:.\Generated_Source\PSoC4/CapSense_1_CSHL.c ****     CapSense_1_sensorBaselineLow[sensor] = 0u;
  44              		.loc 1 158 0
  45 000a 094B     		ldr	r3, .L2+4
 160:.\Generated_Source\PSoC4/CapSense_1_CSHL.c ****     CapSense_1_sensorSignal[sensor] = 0u;
 161:.\Generated_Source\PSoC4/CapSense_1_CSHL.c **** 
 162:.\Generated_Source\PSoC4/CapSense_1_CSHL.c ****     CapSense_1_debounceCounter[widget] =  CapSense_1_debounce[widget];
 163:.\Generated_Source\PSoC4/CapSense_1_CSHL.c **** 
 164:.\Generated_Source\PSoC4/CapSense_1_CSHL.c **** 
 165:.\Generated_Source\PSoC4/CapSense_1_CSHL.c ****     #if ((0u != (CapSense_1_RAW_FILTER_MASK & CapSense_1_MEDIAN_FILTER)) ||\
 166:.\Generated_Source\PSoC4/CapSense_1_CSHL.c ****          (0u != (CapSense_1_RAW_FILTER_MASK & CapSense_1_AVERAGING_FILTER)))
 167:.\Generated_Source\PSoC4/CapSense_1_CSHL.c **** 
 168:.\Generated_Source\PSoC4/CapSense_1_CSHL.c ****         CapSense_1_rawFilterData1[sensor] = CapSense_1_sensorRaw[sensor];
 169:.\Generated_Source\PSoC4/CapSense_1_CSHL.c ****         CapSense_1_rawFilterData2[sensor] = CapSense_1_sensorRaw[sensor];
 170:.\Generated_Source\PSoC4/CapSense_1_CSHL.c **** 
 171:.\Generated_Source\PSoC4/CapSense_1_CSHL.c ****     #elif ((CapSense_1_RAW_FILTER_MASK & CapSense_1_IIR2_FILTER) ||\
 172:.\Generated_Source\PSoC4/CapSense_1_CSHL.c ****            (CapSense_1_RAW_FILTER_MASK & CapSense_1_IIR4_FILTER) ||\
 173:.\Generated_Source\PSoC4/CapSense_1_CSHL.c ****            (CapSense_1_RAW_FILTER_MASK & CapSense_1_JITTER_FILTER) ||\
 174:.\Generated_Source\PSoC4/CapSense_1_CSHL.c ****            (CapSense_1_RAW_FILTER_MASK & CapSense_1_IIR8_FILTER) ||\
 175:.\Generated_Source\PSoC4/CapSense_1_CSHL.c ****            (CapSense_1_RAW_FILTER_MASK & CapSense_1_IIR16_FILTER))
 176:.\Generated_Source\PSoC4/CapSense_1_CSHL.c **** 
 177:.\Generated_Source\PSoC4/CapSense_1_CSHL.c ****         CapSense_1_rawFilterData1[sensor] = CapSense_1_sensorRaw[sensor];
 178:.\Generated_Source\PSoC4/CapSense_1_CSHL.c **** 
 179:.\Generated_Source\PSoC4/CapSense_1_CSHL.c ****     #else
ARM GAS  C:\Users\syhaines\AppData\Local\Temp\ccFwROm9.s 			page 5


 180:.\Generated_Source\PSoC4/CapSense_1_CSHL.c ****         /* No Raw filters */
 181:.\Generated_Source\PSoC4/CapSense_1_CSHL.c ****     #endif  /* ((CapSense_1_RAW_FILTER_MASK & CapSense_1_MEDIAN_FILTER) || \
 182:.\Generated_Source\PSoC4/CapSense_1_CSHL.c ****             *   (CapSense_1_RAW_FILTER_MASK & CapSense_1_AVERAGING_FILTER))
 183:.\Generated_Source\PSoC4/CapSense_1_CSHL.c ****             */
 184:.\Generated_Source\PSoC4/CapSense_1_CSHL.c **** 
 185:.\Generated_Source\PSoC4/CapSense_1_CSHL.c ****     #if (CapSense_1_TOTAL_GENERICS_COUNT)
 186:.\Generated_Source\PSoC4/CapSense_1_CSHL.c ****         /* Exclude generic widget */
 187:.\Generated_Source\PSoC4/CapSense_1_CSHL.c ****         }
 188:.\Generated_Source\PSoC4/CapSense_1_CSHL.c ****     #endif  /* CapSense_1_TOTAL_GENERICS_COUNT */
 189:.\Generated_Source\PSoC4/CapSense_1_CSHL.c **** }
  46              		.loc 1 189 0
  47              		@ sp needed
 158:.\Generated_Source\PSoC4/CapSense_1_CSHL.c ****     CapSense_1_sensorBaselineLow[sensor] = 0u;
  48              		.loc 1 158 0
  49 000c D15A     		ldrh	r1, [r2, r3]
  50 000e 094B     		ldr	r3, .L2+8
 159:.\Generated_Source\PSoC4/CapSense_1_CSHL.c ****     CapSense_1_sensorSignal[sensor] = 0u;
  51              		.loc 1 159 0
  52 0010 9E1D     		add	r6, r3, #6
  53 0012 3554     		strb	r5, [r6, r0]
 160:.\Generated_Source\PSoC4/CapSense_1_CSHL.c ****     CapSense_1_sensorSignal[sensor] = 0u;
  54              		.loc 1 160 0
  55 0014 1E1C     		mov	r6, r3
  56 0016 0936     		add	r6, r6, #9
  57 0018 3554     		strb	r5, [r6, r0]
 162:.\Generated_Source\PSoC4/CapSense_1_CSHL.c **** 
  58              		.loc 1 162 0
  59 001a 0748     		ldr	r0, .L2+12
  60              	.LVL2:
 158:.\Generated_Source\PSoC4/CapSense_1_CSHL.c ****     CapSense_1_sensorBaselineLow[sensor] = 0u;
  61              		.loc 1 158 0
  62 001c D152     		strh	r1, [r2, r3]
 162:.\Generated_Source\PSoC4/CapSense_1_CSHL.c **** 
  63              		.loc 1 162 0
  64 001e 005D     		ldrb	r0, [r0, r4]
  65 0020 1B19     		add	r3, r3, r4
  66 0022 1873     		strb	r0, [r3, #12]
 177:.\Generated_Source\PSoC4/CapSense_1_CSHL.c **** 
  67              		.loc 1 177 0
  68 0024 054B     		ldr	r3, .L2+16
  69 0026 D152     		strh	r1, [r2, r3]
  70              	.LVL3:
  71              		.loc 1 189 0
  72 0028 70BD     		pop	{r4, r5, r6, pc}
  73              	.L3:
  74 002a C046     		.align	2
  75              	.L2:
  76 002c 00000000 		.word	CapSense_1_widgetNumber
  77 0030 00000000 		.word	CapSense_1_sensorRaw
  78 0034 00000000 		.word	.LANCHOR0
  79 0038 00000000 		.word	.LANCHOR1
  80 003c 00000000 		.word	CapSense_1_rawFilterData1
  81              		.cfi_endproc
  82              	.LFE33:
  83              		.size	CapSense_1_BaseInit, .-CapSense_1_BaseInit
  84              		.section	.text.CapSense_1_InitializeSensorBaseline,"ax",%progbits
  85              		.align	1
ARM GAS  C:\Users\syhaines\AppData\Local\Temp\ccFwROm9.s 			page 6


  86              		.global	CapSense_1_InitializeSensorBaseline
  87              		.code	16
  88              		.thumb_func
  89              		.type	CapSense_1_InitializeSensorBaseline, %function
  90              	CapSense_1_InitializeSensorBaseline:
  91              	.LFB34:
 190:.\Generated_Source\PSoC4/CapSense_1_CSHL.c **** 
 191:.\Generated_Source\PSoC4/CapSense_1_CSHL.c **** 
 192:.\Generated_Source\PSoC4/CapSense_1_CSHL.c **** /*******************************************************************************
 193:.\Generated_Source\PSoC4/CapSense_1_CSHL.c **** * Function Name: CapSense_1_InitializeSensorBaseline
 194:.\Generated_Source\PSoC4/CapSense_1_CSHL.c **** ********************************************************************************
 195:.\Generated_Source\PSoC4/CapSense_1_CSHL.c **** *
 196:.\Generated_Source\PSoC4/CapSense_1_CSHL.c **** * Summary:
 197:.\Generated_Source\PSoC4/CapSense_1_CSHL.c **** *  Loads the CapSense_1_sensorBaseline[sensor] array element with an
 198:.\Generated_Source\PSoC4/CapSense_1_CSHL.c **** *  initial value by scanning the selected sensor (one channel design) or a pair
 199:.\Generated_Source\PSoC4/CapSense_1_CSHL.c **** *  of sensors (two channels designs). The raw count value is copied into the
 200:.\Generated_Source\PSoC4/CapSense_1_CSHL.c **** *  baseline array for each sensor. The raw data filters are initialized if
 201:.\Generated_Source\PSoC4/CapSense_1_CSHL.c **** *  enabled.
 202:.\Generated_Source\PSoC4/CapSense_1_CSHL.c **** *
 203:.\Generated_Source\PSoC4/CapSense_1_CSHL.c **** * Parameters:
 204:.\Generated_Source\PSoC4/CapSense_1_CSHL.c **** *  sensor:  Sensor number.
 205:.\Generated_Source\PSoC4/CapSense_1_CSHL.c **** *
 206:.\Generated_Source\PSoC4/CapSense_1_CSHL.c **** * Return:
 207:.\Generated_Source\PSoC4/CapSense_1_CSHL.c **** *  None
 208:.\Generated_Source\PSoC4/CapSense_1_CSHL.c **** *
 209:.\Generated_Source\PSoC4/CapSense_1_CSHL.c **** * Global Variables:
 210:.\Generated_Source\PSoC4/CapSense_1_CSHL.c **** *  None
 211:.\Generated_Source\PSoC4/CapSense_1_CSHL.c **** *
 212:.\Generated_Source\PSoC4/CapSense_1_CSHL.c **** * Side Effects:
 213:.\Generated_Source\PSoC4/CapSense_1_CSHL.c **** *  None
 214:.\Generated_Source\PSoC4/CapSense_1_CSHL.c **** *
 215:.\Generated_Source\PSoC4/CapSense_1_CSHL.c **** *******************************************************************************/
 216:.\Generated_Source\PSoC4/CapSense_1_CSHL.c **** void CapSense_1_InitializeSensorBaseline(uint32 sensor)
 217:.\Generated_Source\PSoC4/CapSense_1_CSHL.c **** {
  92              		.loc 1 217 0
  93              		.cfi_startproc
  94              	.LVL4:
  95 0000 10B5     		push	{r4, lr}
  96              		.cfi_def_cfa_offset 8
  97              		.cfi_offset 4, -8
  98              		.cfi_offset 14, -4
  99              		.loc 1 217 0
 100 0002 041C     		mov	r4, r0
 218:.\Generated_Source\PSoC4/CapSense_1_CSHL.c ****     /* Scan sensor */
 219:.\Generated_Source\PSoC4/CapSense_1_CSHL.c ****     CapSense_1_ScanSensor(sensor);
 101              		.loc 1 219 0
 102 0004 FFF7FEFF 		bl	CapSense_1_ScanSensor
 103              	.LVL5:
 104              	.L5:
 220:.\Generated_Source\PSoC4/CapSense_1_CSHL.c ****     while(CapSense_1_IsBusy() != 0u)
 105              		.loc 1 220 0 discriminator 1
 106 0008 FFF7FEFF 		bl	CapSense_1_IsBusy
 107              	.LVL6:
 108 000c 0028     		cmp	r0, #0
 109 000e FBD1     		bne	.L5
 221:.\Generated_Source\PSoC4/CapSense_1_CSHL.c ****     {
 222:.\Generated_Source\PSoC4/CapSense_1_CSHL.c ****         /* Wait while sensor is busy */
ARM GAS  C:\Users\syhaines\AppData\Local\Temp\ccFwROm9.s 			page 7


 223:.\Generated_Source\PSoC4/CapSense_1_CSHL.c ****     }
 224:.\Generated_Source\PSoC4/CapSense_1_CSHL.c **** 
 225:.\Generated_Source\PSoC4/CapSense_1_CSHL.c ****     /* Initialize Baseline, Signal and debounce counters */
 226:.\Generated_Source\PSoC4/CapSense_1_CSHL.c ****     CapSense_1_BaseInit(sensor);
 110              		.loc 1 226 0
 111 0010 201C     		mov	r0, r4
 112 0012 FFF7FEFF 		bl	CapSense_1_BaseInit
 113              	.LVL7:
 227:.\Generated_Source\PSoC4/CapSense_1_CSHL.c **** }
 114              		.loc 1 227 0
 115              		@ sp needed
 116              	.LVL8:
 117 0016 10BD     		pop	{r4, pc}
 118              		.cfi_endproc
 119              	.LFE34:
 120              		.size	CapSense_1_InitializeSensorBaseline, .-CapSense_1_InitializeSensorBaseline
 121              		.section	.text.CapSense_1_InitializeAllBaselines,"ax",%progbits
 122              		.align	1
 123              		.global	CapSense_1_InitializeAllBaselines
 124              		.code	16
 125              		.thumb_func
 126              		.type	CapSense_1_InitializeAllBaselines, %function
 127              	CapSense_1_InitializeAllBaselines:
 128              	.LFB35:
 228:.\Generated_Source\PSoC4/CapSense_1_CSHL.c **** 
 229:.\Generated_Source\PSoC4/CapSense_1_CSHL.c **** 
 230:.\Generated_Source\PSoC4/CapSense_1_CSHL.c **** /*******************************************************************************
 231:.\Generated_Source\PSoC4/CapSense_1_CSHL.c **** * Function Name: CapSense_1_InitializeAllBaselines
 232:.\Generated_Source\PSoC4/CapSense_1_CSHL.c **** ********************************************************************************
 233:.\Generated_Source\PSoC4/CapSense_1_CSHL.c **** *
 234:.\Generated_Source\PSoC4/CapSense_1_CSHL.c **** * Summary:
 235:.\Generated_Source\PSoC4/CapSense_1_CSHL.c **** *  Uses the CapSense_1_InitializeSensorBaseline function to load the
 236:.\Generated_Source\PSoC4/CapSense_1_CSHL.c **** *  CapSense_1_sensorBaseline[] array with an initial values by scanning
 237:.\Generated_Source\PSoC4/CapSense_1_CSHL.c **** *  all the sensors. The raw count values are copied into the baseline array for
 238:.\Generated_Source\PSoC4/CapSense_1_CSHL.c **** *  all the sensors. The raw data filters are initialized if enabled.
 239:.\Generated_Source\PSoC4/CapSense_1_CSHL.c **** *
 240:.\Generated_Source\PSoC4/CapSense_1_CSHL.c **** * Parameters:
 241:.\Generated_Source\PSoC4/CapSense_1_CSHL.c **** *  None
 242:.\Generated_Source\PSoC4/CapSense_1_CSHL.c **** *
 243:.\Generated_Source\PSoC4/CapSense_1_CSHL.c **** * Return:
 244:.\Generated_Source\PSoC4/CapSense_1_CSHL.c **** *  None
 245:.\Generated_Source\PSoC4/CapSense_1_CSHL.c **** *
 246:.\Generated_Source\PSoC4/CapSense_1_CSHL.c **** * Global Variables:
 247:.\Generated_Source\PSoC4/CapSense_1_CSHL.c **** *  None
 248:.\Generated_Source\PSoC4/CapSense_1_CSHL.c **** *
 249:.\Generated_Source\PSoC4/CapSense_1_CSHL.c **** * Side Effects:
 250:.\Generated_Source\PSoC4/CapSense_1_CSHL.c **** *  None
 251:.\Generated_Source\PSoC4/CapSense_1_CSHL.c **** *
 252:.\Generated_Source\PSoC4/CapSense_1_CSHL.c **** *******************************************************************************/
 253:.\Generated_Source\PSoC4/CapSense_1_CSHL.c **** void CapSense_1_InitializeAllBaselines(void)
 254:.\Generated_Source\PSoC4/CapSense_1_CSHL.c **** {
 129              		.loc 1 254 0
 130              		.cfi_startproc
 131              	.LVL9:
 132 0000 08B5     		push	{r3, lr}
 133              		.cfi_def_cfa_offset 8
 134              		.cfi_offset 3, -8
ARM GAS  C:\Users\syhaines\AppData\Local\Temp\ccFwROm9.s 			page 8


 135              		.cfi_offset 14, -4
 255:.\Generated_Source\PSoC4/CapSense_1_CSHL.c ****     uint32 i;
 256:.\Generated_Source\PSoC4/CapSense_1_CSHL.c **** 
 257:.\Generated_Source\PSoC4/CapSense_1_CSHL.c ****     for(i = 0u; i < CapSense_1_TOTAL_SCANSLOT_COUNT; i++)
 258:.\Generated_Source\PSoC4/CapSense_1_CSHL.c ****     {
 259:.\Generated_Source\PSoC4/CapSense_1_CSHL.c ****         CapSense_1_InitializeSensorBaseline(i);
 136              		.loc 1 259 0
 137 0002 0020     		mov	r0, #0
 138 0004 FFF7FEFF 		bl	CapSense_1_InitializeSensorBaseline
 139              	.LVL10:
 140 0008 0120     		mov	r0, #1
 141 000a FFF7FEFF 		bl	CapSense_1_InitializeSensorBaseline
 142              	.LVL11:
 143 000e 0220     		mov	r0, #2
 144 0010 FFF7FEFF 		bl	CapSense_1_InitializeSensorBaseline
 145              	.LVL12:
 260:.\Generated_Source\PSoC4/CapSense_1_CSHL.c ****     }
 261:.\Generated_Source\PSoC4/CapSense_1_CSHL.c **** }
 146              		.loc 1 261 0
 147              		@ sp needed
 148 0014 08BD     		pop	{r3, pc}
 149              		.cfi_endproc
 150              	.LFE35:
 151              		.size	CapSense_1_InitializeAllBaselines, .-CapSense_1_InitializeAllBaselines
 152              		.section	.text.CapSense_1_InitializeEnabledBaselines,"ax",%progbits
 153              		.align	1
 154              		.global	CapSense_1_InitializeEnabledBaselines
 155              		.code	16
 156              		.thumb_func
 157              		.type	CapSense_1_InitializeEnabledBaselines, %function
 158              	CapSense_1_InitializeEnabledBaselines:
 159              	.LFB36:
 262:.\Generated_Source\PSoC4/CapSense_1_CSHL.c **** 
 263:.\Generated_Source\PSoC4/CapSense_1_CSHL.c **** 
 264:.\Generated_Source\PSoC4/CapSense_1_CSHL.c **** /*******************************************************************************
 265:.\Generated_Source\PSoC4/CapSense_1_CSHL.c **** * Function Name: CapSense_1_InitializeEnabledBaselines
 266:.\Generated_Source\PSoC4/CapSense_1_CSHL.c **** ********************************************************************************
 267:.\Generated_Source\PSoC4/CapSense_1_CSHL.c **** *
 268:.\Generated_Source\PSoC4/CapSense_1_CSHL.c **** * Summary:
 269:.\Generated_Source\PSoC4/CapSense_1_CSHL.c **** *  Scans all the enabled widgets and the raw count values are copied into the
 270:.\Generated_Source\PSoC4/CapSense_1_CSHL.c **** *  baseline array for all the sensors enabled in the scanning process. The baselines
 271:.\Generated_Source\PSoC4/CapSense_1_CSHL.c **** *  are initialized with zero values for sensors disabled from the scanning process.
 272:.\Generated_Source\PSoC4/CapSense_1_CSHL.c **** *  The raw data filters are initialized if enabled.
 273:.\Generated_Source\PSoC4/CapSense_1_CSHL.c **** *
 274:.\Generated_Source\PSoC4/CapSense_1_CSHL.c **** * Parameters:
 275:.\Generated_Source\PSoC4/CapSense_1_CSHL.c **** *  None
 276:.\Generated_Source\PSoC4/CapSense_1_CSHL.c **** *
 277:.\Generated_Source\PSoC4/CapSense_1_CSHL.c **** * Return:
 278:.\Generated_Source\PSoC4/CapSense_1_CSHL.c **** *  None
 279:.\Generated_Source\PSoC4/CapSense_1_CSHL.c **** *
 280:.\Generated_Source\PSoC4/CapSense_1_CSHL.c **** * Global Variables:
 281:.\Generated_Source\PSoC4/CapSense_1_CSHL.c **** *  CapSense_1_sensorRaw[] - used to store the sensors raw data.
 282:.\Generated_Source\PSoC4/CapSense_1_CSHL.c **** *  CapSense_1_sensorEnableMask[ ] - used to store bit masks of the enabled sensors.
 283:.\Generated_Source\PSoC4/CapSense_1_CSHL.c **** *
 284:.\Generated_Source\PSoC4/CapSense_1_CSHL.c **** * Side Effects:
 285:.\Generated_Source\PSoC4/CapSense_1_CSHL.c **** *  None
 286:.\Generated_Source\PSoC4/CapSense_1_CSHL.c **** *
ARM GAS  C:\Users\syhaines\AppData\Local\Temp\ccFwROm9.s 			page 9


 287:.\Generated_Source\PSoC4/CapSense_1_CSHL.c **** *******************************************************************************/
 288:.\Generated_Source\PSoC4/CapSense_1_CSHL.c **** void CapSense_1_InitializeEnabledBaselines(void)
 289:.\Generated_Source\PSoC4/CapSense_1_CSHL.c **** {
 160              		.loc 1 289 0
 161              		.cfi_startproc
 162 0000 10B5     		push	{r4, lr}
 163              		.cfi_def_cfa_offset 8
 164              		.cfi_offset 4, -8
 165              		.cfi_offset 14, -4
 290:.\Generated_Source\PSoC4/CapSense_1_CSHL.c ****     uint32 i;
 291:.\Generated_Source\PSoC4/CapSense_1_CSHL.c ****     uint32 isSensorEnabled;
 292:.\Generated_Source\PSoC4/CapSense_1_CSHL.c **** 
 293:.\Generated_Source\PSoC4/CapSense_1_CSHL.c ****     CapSense_1_ScanEnabledWidgets();
 166              		.loc 1 293 0
 167 0002 FFF7FEFF 		bl	CapSense_1_ScanEnabledWidgets
 168              	.LVL13:
 169              	.L9:
 294:.\Generated_Source\PSoC4/CapSense_1_CSHL.c ****     while(CapSense_1_IsBusy() != 0u)
 170              		.loc 1 294 0 discriminator 1
 171 0006 FFF7FEFF 		bl	CapSense_1_IsBusy
 172              	.LVL14:
 173 000a 0028     		cmp	r0, #0
 174 000c FBD1     		bne	.L9
 175 000e 041C     		mov	r4, r0
 176              	.L11:
 177              	.LVL15:
 295:.\Generated_Source\PSoC4/CapSense_1_CSHL.c ****     {
 296:.\Generated_Source\PSoC4/CapSense_1_CSHL.c ****         /* Wait while sensor is busy */
 297:.\Generated_Source\PSoC4/CapSense_1_CSHL.c ****     }
 298:.\Generated_Source\PSoC4/CapSense_1_CSHL.c **** 
 299:.\Generated_Source\PSoC4/CapSense_1_CSHL.c ****     for(i = 0u; i < CapSense_1_TOTAL_SENSOR_COUNT; i++)
 300:.\Generated_Source\PSoC4/CapSense_1_CSHL.c ****     {
 301:.\Generated_Source\PSoC4/CapSense_1_CSHL.c ****         isSensorEnabled = CapSense_1_GetBitValue(CapSense_1_sensorEnableMask, i);
 178              		.loc 1 301 0
 179 0010 0648     		ldr	r0, .L15
 180 0012 211C     		mov	r1, r4
 181 0014 FFF7FEFF 		bl	CapSense_1_GetBitValue
 182              	.LVL16:
 302:.\Generated_Source\PSoC4/CapSense_1_CSHL.c **** 
 303:.\Generated_Source\PSoC4/CapSense_1_CSHL.c ****         /* Clear raw data if sensor is disabled from scanning process */
 304:.\Generated_Source\PSoC4/CapSense_1_CSHL.c ****         if(isSensorEnabled != 0u)
 183              		.loc 1 304 0
 184 0018 0028     		cmp	r0, #0
 185 001a 02D0     		beq	.L10
 305:.\Generated_Source\PSoC4/CapSense_1_CSHL.c ****         {
 306:.\Generated_Source\PSoC4/CapSense_1_CSHL.c ****             /* Initialize baselines */
 307:.\Generated_Source\PSoC4/CapSense_1_CSHL.c ****             CapSense_1_BaseInit(i);
 186              		.loc 1 307 0
 187 001c 201C     		mov	r0, r4
 188              	.LVL17:
 189 001e FFF7FEFF 		bl	CapSense_1_BaseInit
 190              	.LVL18:
 191              	.L10:
 299:.\Generated_Source\PSoC4/CapSense_1_CSHL.c ****     {
 192              		.loc 1 299 0 discriminator 2
 193 0022 0134     		add	r4, r4, #1
 194              	.LVL19:
ARM GAS  C:\Users\syhaines\AppData\Local\Temp\ccFwROm9.s 			page 10


 195 0024 032C     		cmp	r4, #3
 196 0026 F3D1     		bne	.L11
 308:.\Generated_Source\PSoC4/CapSense_1_CSHL.c ****         }
 309:.\Generated_Source\PSoC4/CapSense_1_CSHL.c ****     }
 310:.\Generated_Source\PSoC4/CapSense_1_CSHL.c **** }
 197              		.loc 1 310 0
 198              		@ sp needed
 199              	.LVL20:
 200 0028 10BD     		pop	{r4, pc}
 201              	.L16:
 202 002a C046     		.align	2
 203              	.L15:
 204 002c 00000000 		.word	CapSense_1_sensorEnableMask
 205              		.cfi_endproc
 206              	.LFE36:
 207              		.size	CapSense_1_InitializeEnabledBaselines, .-CapSense_1_InitializeEnabledBaselines
 208              		.section	.text.CapSense_1_UpdateBaselineNoThreshold,"ax",%progbits
 209              		.align	1
 210              		.global	CapSense_1_UpdateBaselineNoThreshold
 211              		.code	16
 212              		.thumb_func
 213              		.type	CapSense_1_UpdateBaselineNoThreshold, %function
 214              	CapSense_1_UpdateBaselineNoThreshold:
 215              	.LFB37:
 311:.\Generated_Source\PSoC4/CapSense_1_CSHL.c **** 
 312:.\Generated_Source\PSoC4/CapSense_1_CSHL.c **** 
 313:.\Generated_Source\PSoC4/CapSense_1_CSHL.c **** /*******************************************************************************
 314:.\Generated_Source\PSoC4/CapSense_1_CSHL.c **** * Function Name: CapSense_1_UpdateBaselineNoThreshold
 315:.\Generated_Source\PSoC4/CapSense_1_CSHL.c **** ********************************************************************************
 316:.\Generated_Source\PSoC4/CapSense_1_CSHL.c **** *
 317:.\Generated_Source\PSoC4/CapSense_1_CSHL.c **** * Summary:
 318:.\Generated_Source\PSoC4/CapSense_1_CSHL.c **** *  Updates the CapSense_1_sensorBaseline[sensor] array element using the
 319:.\Generated_Source\PSoC4/CapSense_1_CSHL.c **** *  LP filter with k = 256. The signal calculates the difference of count by
 320:.\Generated_Source\PSoC4/CapSense_1_CSHL.c **** *  subtracting the previous baseline from the current raw count value and stores
 321:.\Generated_Source\PSoC4/CapSense_1_CSHL.c **** *  it in CapSense_1_sensorSignal[sensor].
 322:.\Generated_Source\PSoC4/CapSense_1_CSHL.c **** *  If the auto reset option is enabled, the baseline updated regards the noise threshold.
 323:.\Generated_Source\PSoC4/CapSense_1_CSHL.c **** *  If the auto reset option is disabled, the baseline stops updating; baseline is loaded
 324:.\Generated_Source\PSoC4/CapSense_1_CSHL.c **** *  with a raw count value if a signal is greater than zero and if signal is less
 325:.\Generated_Source\PSoC4/CapSense_1_CSHL.c **** *  than noise threshold.
 326:.\Generated_Source\PSoC4/CapSense_1_CSHL.c **** *  Raw data filters are applied to the values if enabled before baseline
 327:.\Generated_Source\PSoC4/CapSense_1_CSHL.c **** *  calculation.
 328:.\Generated_Source\PSoC4/CapSense_1_CSHL.c **** *
 329:.\Generated_Source\PSoC4/CapSense_1_CSHL.c **** *  This API does not update the thresholds in the Smartsense Mode.
 330:.\Generated_Source\PSoC4/CapSense_1_CSHL.c **** *
 331:.\Generated_Source\PSoC4/CapSense_1_CSHL.c **** * Parameters:
 332:.\Generated_Source\PSoC4/CapSense_1_CSHL.c **** *  sensor:  Sensor number.
 333:.\Generated_Source\PSoC4/CapSense_1_CSHL.c **** *
 334:.\Generated_Source\PSoC4/CapSense_1_CSHL.c **** * Return:
 335:.\Generated_Source\PSoC4/CapSense_1_CSHL.c **** *  None
 336:.\Generated_Source\PSoC4/CapSense_1_CSHL.c **** *
 337:.\Generated_Source\PSoC4/CapSense_1_CSHL.c **** * Global Variables:
 338:.\Generated_Source\PSoC4/CapSense_1_CSHL.c **** *  CapSense_1_widgetNumber[]  - stores widget numbers.
 339:.\Generated_Source\PSoC4/CapSense_1_CSHL.c **** *  CapSense_1_sensorBaseline[]    - used to store baseline value.
 340:.\Generated_Source\PSoC4/CapSense_1_CSHL.c **** *  CapSense_1_sensorBaselineLow[] - used to store fraction byte of
 341:.\Generated_Source\PSoC4/CapSense_1_CSHL.c **** *  baseline value.
 342:.\Generated_Source\PSoC4/CapSense_1_CSHL.c **** *  CapSense_1_sensorSignal[]      - used to store difference between
 343:.\Generated_Source\PSoC4/CapSense_1_CSHL.c **** *  current value of raw data and previous value of baseline.
ARM GAS  C:\Users\syhaines\AppData\Local\Temp\ccFwROm9.s 			page 11


 344:.\Generated_Source\PSoC4/CapSense_1_CSHL.c **** *  CapSense_1_rawFilterData1[]    - used to store previous sample of
 345:.\Generated_Source\PSoC4/CapSense_1_CSHL.c **** *  any enabled raw data filter.
 346:.\Generated_Source\PSoC4/CapSense_1_CSHL.c **** *  CapSense_1_rawFilterData2[]    - used to store before previous sample
 347:.\Generated_Source\PSoC4/CapSense_1_CSHL.c **** *  of enabled raw data filter. Only required for median or average filters.
 348:.\Generated_Source\PSoC4/CapSense_1_CSHL.c **** *
 349:.\Generated_Source\PSoC4/CapSense_1_CSHL.c **** * Side Effects:
 350:.\Generated_Source\PSoC4/CapSense_1_CSHL.c **** *  None
 351:.\Generated_Source\PSoC4/CapSense_1_CSHL.c **** *
 352:.\Generated_Source\PSoC4/CapSense_1_CSHL.c **** *******************************************************************************/
 353:.\Generated_Source\PSoC4/CapSense_1_CSHL.c **** void CapSense_1_UpdateBaselineNoThreshold(uint32 sensor)
 354:.\Generated_Source\PSoC4/CapSense_1_CSHL.c **** {
 216              		.loc 1 354 0
 217              		.cfi_startproc
 218              	.LVL21:
 219 0000 F7B5     		push	{r0, r1, r2, r4, r5, r6, r7, lr}
 220              		.cfi_def_cfa_offset 32
 221              		.cfi_offset 0, -32
 222              		.cfi_offset 1, -28
 223              		.cfi_offset 2, -24
 224              		.cfi_offset 4, -20
 225              		.cfi_offset 5, -16
 226              		.cfi_offset 6, -12
 227              		.cfi_offset 7, -8
 228              		.cfi_offset 14, -4
 355:.\Generated_Source\PSoC4/CapSense_1_CSHL.c ****     uint32 calc;
 356:.\Generated_Source\PSoC4/CapSense_1_CSHL.c ****     uint32 sign;
 357:.\Generated_Source\PSoC4/CapSense_1_CSHL.c ****     uint16 tempRaw;
 358:.\Generated_Source\PSoC4/CapSense_1_CSHL.c ****     uint16 filteredRawData;
 359:.\Generated_Source\PSoC4/CapSense_1_CSHL.c ****     uint8 widget = CapSense_1_widgetNumber[sensor];
 229              		.loc 1 359 0
 230 0002 344B     		ldr	r3, .L37
 360:.\Generated_Source\PSoC4/CapSense_1_CSHL.c ****     uint8 noiseThreshold;
 361:.\Generated_Source\PSoC4/CapSense_1_CSHL.c **** 
 362:.\Generated_Source\PSoC4/CapSense_1_CSHL.c ****     #if (CapSense_1_TOTAL_GENERICS_COUNT)
 363:.\Generated_Source\PSoC4/CapSense_1_CSHL.c ****         /* Exclude generic widget */
 364:.\Generated_Source\PSoC4/CapSense_1_CSHL.c ****         if(widget < CapSense_1_END_OF_WIDGETS_INDEX)
 365:.\Generated_Source\PSoC4/CapSense_1_CSHL.c ****         {
 366:.\Generated_Source\PSoC4/CapSense_1_CSHL.c ****     #endif  /* CapSense_1_TOTAL_GENERICS_COUNT */
 367:.\Generated_Source\PSoC4/CapSense_1_CSHL.c **** 
 368:.\Generated_Source\PSoC4/CapSense_1_CSHL.c ****     noiseThreshold = CapSense_1_noiseThreshold[widget];
 369:.\Generated_Source\PSoC4/CapSense_1_CSHL.c ****     filteredRawData = CapSense_1_sensorRaw[sensor];
 231              		.loc 1 369 0
 232 0004 344A     		ldr	r2, .L37+4
 368:.\Generated_Source\PSoC4/CapSense_1_CSHL.c ****     filteredRawData = CapSense_1_sensorRaw[sensor];
 233              		.loc 1 368 0
 234 0006 1F5C     		ldrb	r7, [r3, r0]
 235 0008 344B     		ldr	r3, .L37+8
 236              		.loc 1 369 0
 237 000a 4500     		lsl	r5, r0, #1
 368:.\Generated_Source\PSoC4/CapSense_1_CSHL.c ****     filteredRawData = CapSense_1_sensorRaw[sensor];
 238              		.loc 1 368 0
 239 000c DB5D     		ldrb	r3, [r3, r7]
 354:.\Generated_Source\PSoC4/CapSense_1_CSHL.c ****     uint32 calc;
 240              		.loc 1 354 0
 241 000e 041C     		mov	r4, r0
 368:.\Generated_Source\PSoC4/CapSense_1_CSHL.c ****     filteredRawData = CapSense_1_sensorRaw[sensor];
 242              		.loc 1 368 0
ARM GAS  C:\Users\syhaines\AppData\Local\Temp\ccFwROm9.s 			page 12


 243 0010 0093     		str	r3, [sp]
 244              	.LVL22:
 370:.\Generated_Source\PSoC4/CapSense_1_CSHL.c **** 
 371:.\Generated_Source\PSoC4/CapSense_1_CSHL.c ****     #if (CapSense_1_RAW_FILTER_MASK != 0u)
 372:.\Generated_Source\PSoC4/CapSense_1_CSHL.c ****     if(CapSense_1_enableRawFilters != 0u)
 245              		.loc 1 372 0
 246 0012 334B     		ldr	r3, .L37+12
 369:.\Generated_Source\PSoC4/CapSense_1_CSHL.c **** 
 247              		.loc 1 369 0
 248 0014 AE5A     		ldrh	r6, [r5, r2]
 249              	.LVL23:
 250              		.loc 1 372 0
 251 0016 DB78     		ldrb	r3, [r3, #3]
 252 0018 002B     		cmp	r3, #0
 253 001a 07D0     		beq	.L18
 254              	.LVL24:
 373:.\Generated_Source\PSoC4/CapSense_1_CSHL.c ****     {
 374:.\Generated_Source\PSoC4/CapSense_1_CSHL.c ****         #if (CapSense_1_RAW_FILTER_MASK & CapSense_1_MEDIAN_FILTER)
 375:.\Generated_Source\PSoC4/CapSense_1_CSHL.c ****             tempRaw = filteredRawData;
 376:.\Generated_Source\PSoC4/CapSense_1_CSHL.c ****             filteredRawData = CapSense_1_MedianFilter(filteredRawData, CapSense_1_rawFilterData1[se
 377:.\Generated_Source\PSoC4/CapSense_1_CSHL.c ****                                                             CapSense_1_rawFilterData2[sensor]);
 378:.\Generated_Source\PSoC4/CapSense_1_CSHL.c ****             CapSense_1_rawFilterData2[sensor] = CapSense_1_rawFilterData1[sensor];
 379:.\Generated_Source\PSoC4/CapSense_1_CSHL.c ****             CapSense_1_rawFilterData1[sensor] = tempRaw;
 380:.\Generated_Source\PSoC4/CapSense_1_CSHL.c **** 
 381:.\Generated_Source\PSoC4/CapSense_1_CSHL.c ****         #elif (CapSense_1_RAW_FILTER_MASK & CapSense_1_AVERAGING_FILTER)
 382:.\Generated_Source\PSoC4/CapSense_1_CSHL.c ****             tempRaw = filteredRawData;
 383:.\Generated_Source\PSoC4/CapSense_1_CSHL.c ****             filteredRawData = CapSense_1_AveragingFilter(filteredRawData, CapSense_1_rawFilterData1
 384:.\Generated_Source\PSoC4/CapSense_1_CSHL.c ****                                                                CapSense_1_rawFilterData2[sensor]);
 385:.\Generated_Source\PSoC4/CapSense_1_CSHL.c ****             CapSense_1_rawFilterData2[sensor] = CapSense_1_rawFilterData1[sensor];
 386:.\Generated_Source\PSoC4/CapSense_1_CSHL.c ****             CapSense_1_rawFilterData1[sensor] = tempRaw;
 387:.\Generated_Source\PSoC4/CapSense_1_CSHL.c **** 
 388:.\Generated_Source\PSoC4/CapSense_1_CSHL.c ****         #elif (CapSense_1_RAW_FILTER_MASK & CapSense_1_IIR2_FILTER)
 389:.\Generated_Source\PSoC4/CapSense_1_CSHL.c ****             filteredRawData = CapSense_1_IIR2Filter(filteredRawData, CapSense_1_rawFilterData1[sens
 390:.\Generated_Source\PSoC4/CapSense_1_CSHL.c ****             CapSense_1_rawFilterData1[sensor] = filteredRawData;
 391:.\Generated_Source\PSoC4/CapSense_1_CSHL.c **** 
 392:.\Generated_Source\PSoC4/CapSense_1_CSHL.c ****         #elif (CapSense_1_RAW_FILTER_MASK & CapSense_1_IIR4_FILTER)
 393:.\Generated_Source\PSoC4/CapSense_1_CSHL.c ****             filteredRawData = CapSense_1_IIR4Filter(filteredRawData, CapSense_1_rawFilterData1[sens
 255              		.loc 1 393 0
 256 001c 3149     		ldr	r1, .L37+16
 257              	.LBB4:
 258              	.LBB5:
 394:.\Generated_Source\PSoC4/CapSense_1_CSHL.c ****             CapSense_1_rawFilterData1[sensor] = filteredRawData;
 395:.\Generated_Source\PSoC4/CapSense_1_CSHL.c **** 
 396:.\Generated_Source\PSoC4/CapSense_1_CSHL.c ****         #elif (CapSense_1_RAW_FILTER_MASK & CapSense_1_JITTER_FILTER)
 397:.\Generated_Source\PSoC4/CapSense_1_CSHL.c ****             filteredRawData = CapSense_1_JitterFilter(filteredRawData, CapSense_1_rawFilterData1[se
 398:.\Generated_Source\PSoC4/CapSense_1_CSHL.c ****             CapSense_1_rawFilterData1[sensor] = filteredRawData;
 399:.\Generated_Source\PSoC4/CapSense_1_CSHL.c **** 
 400:.\Generated_Source\PSoC4/CapSense_1_CSHL.c ****         #elif (CapSense_1_RAW_FILTER_MASK & CapSense_1_IIR8_FILTER)
 401:.\Generated_Source\PSoC4/CapSense_1_CSHL.c ****             filteredRawData = CapSense_1_IIR8Filter(filteredRawData, CapSense_1_rawFilterData1[sens
 402:.\Generated_Source\PSoC4/CapSense_1_CSHL.c ****             CapSense_1_rawFilterData1[sensor] = filteredRawData;
 403:.\Generated_Source\PSoC4/CapSense_1_CSHL.c **** 
 404:.\Generated_Source\PSoC4/CapSense_1_CSHL.c ****         #elif (CapSense_1_RAW_FILTER_MASK & CapSense_1_IIR16_FILTER)
 405:.\Generated_Source\PSoC4/CapSense_1_CSHL.c ****             filteredRawData = CapSense_1_IIR16Filter(filteredRawData, CapSense_1_rawFilterData1[sen
 406:.\Generated_Source\PSoC4/CapSense_1_CSHL.c ****             CapSense_1_rawFilterData1[sensor] = filteredRawData;
 407:.\Generated_Source\PSoC4/CapSense_1_CSHL.c **** 
 408:.\Generated_Source\PSoC4/CapSense_1_CSHL.c ****         #else
 409:.\Generated_Source\PSoC4/CapSense_1_CSHL.c ****             /* No Raw filters */
ARM GAS  C:\Users\syhaines\AppData\Local\Temp\ccFwROm9.s 			page 13


 410:.\Generated_Source\PSoC4/CapSense_1_CSHL.c ****         #endif  /* (CapSense_1_RAW_FILTER_MASK & CapSense_1_MEDIAN_FILTER) */
 411:.\Generated_Source\PSoC4/CapSense_1_CSHL.c ****     }
 412:.\Generated_Source\PSoC4/CapSense_1_CSHL.c ****     #endif  /* (CapSense_1_RAW_FILTER_MASK != 0u) */
 413:.\Generated_Source\PSoC4/CapSense_1_CSHL.c **** 
 414:.\Generated_Source\PSoC4/CapSense_1_CSHL.c ****     #if (CapSense_1_TUNING_METHOD == CapSense_1__TUNING_AUTO)
 415:.\Generated_Source\PSoC4/CapSense_1_CSHL.c ****         MeasureNoiseEnvelope_P4_v2_30(&CapSense_1_config, (uint8)sensor, CapSense_1_sensorRaw);
 416:.\Generated_Source\PSoC4/CapSense_1_CSHL.c ****     #endif /* (CapSense_1_TUNING_METHOD == CapSense_1__TUNING_AUTO) */
 417:.\Generated_Source\PSoC4/CapSense_1_CSHL.c **** 
 418:.\Generated_Source\PSoC4/CapSense_1_CSHL.c ****     /* Baseline calculation */
 419:.\Generated_Source\PSoC4/CapSense_1_CSHL.c ****     /* Calculate difference RawData[cur] - Baseline[prev] */
 420:.\Generated_Source\PSoC4/CapSense_1_CSHL.c ****     if(filteredRawData >= CapSense_1_sensorBaseline[sensor])
 421:.\Generated_Source\PSoC4/CapSense_1_CSHL.c ****     {
 422:.\Generated_Source\PSoC4/CapSense_1_CSHL.c ****         CapSense_1_lowBaselineResetCnt[sensor] = 0u;
 423:.\Generated_Source\PSoC4/CapSense_1_CSHL.c ****         tempRaw = filteredRawData - CapSense_1_sensorBaseline[sensor];
 424:.\Generated_Source\PSoC4/CapSense_1_CSHL.c ****         sign = 1u;    /* Positive difference - Calculate the Signal */
 425:.\Generated_Source\PSoC4/CapSense_1_CSHL.c ****     }
 426:.\Generated_Source\PSoC4/CapSense_1_CSHL.c ****     else
 427:.\Generated_Source\PSoC4/CapSense_1_CSHL.c ****     {
 428:.\Generated_Source\PSoC4/CapSense_1_CSHL.c ****         tempRaw = CapSense_1_sensorBaseline[sensor] - filteredRawData;
 429:.\Generated_Source\PSoC4/CapSense_1_CSHL.c ****         sign = 0u;    /* Negative difference - Do NOT calculate the Signal */
 430:.\Generated_Source\PSoC4/CapSense_1_CSHL.c ****     }
 431:.\Generated_Source\PSoC4/CapSense_1_CSHL.c **** 
 432:.\Generated_Source\PSoC4/CapSense_1_CSHL.c ****     #if (CapSense_1_TUNING_METHOD != CapSense_1__TUNING_NONE)
 433:.\Generated_Source\PSoC4/CapSense_1_CSHL.c ****     if((sign == 0u) && (tempRaw > (uint16) CapSense_1_negativeNoiseThreshold[widget]))
 434:.\Generated_Source\PSoC4/CapSense_1_CSHL.c ****     #else
 435:.\Generated_Source\PSoC4/CapSense_1_CSHL.c ****     if((sign == 0u) && (tempRaw > (uint16) CapSense_1_NEGATIVE_NOISE_THRESHOLD))
 436:.\Generated_Source\PSoC4/CapSense_1_CSHL.c ****     #endif /* (CapSense_1_TUNING_METHOD != CapSense_1__TUNING_NONE) */
 437:.\Generated_Source\PSoC4/CapSense_1_CSHL.c ****     {
 438:.\Generated_Source\PSoC4/CapSense_1_CSHL.c ****         if(CapSense_1_lowBaselineResetCnt[sensor] >= CapSense_1_lowBaselineReset[sensor])
 439:.\Generated_Source\PSoC4/CapSense_1_CSHL.c ****         {
 440:.\Generated_Source\PSoC4/CapSense_1_CSHL.c ****             CapSense_1_BaseInit(sensor);
 441:.\Generated_Source\PSoC4/CapSense_1_CSHL.c ****             CapSense_1_lowBaselineResetCnt[sensor] = 0u;
 442:.\Generated_Source\PSoC4/CapSense_1_CSHL.c ****         }
 443:.\Generated_Source\PSoC4/CapSense_1_CSHL.c ****         else
 444:.\Generated_Source\PSoC4/CapSense_1_CSHL.c ****         {
 445:.\Generated_Source\PSoC4/CapSense_1_CSHL.c ****             CapSense_1_lowBaselineResetCnt[sensor]++;
 446:.\Generated_Source\PSoC4/CapSense_1_CSHL.c ****         }
 447:.\Generated_Source\PSoC4/CapSense_1_CSHL.c ****     }
 448:.\Generated_Source\PSoC4/CapSense_1_CSHL.c ****     else
 449:.\Generated_Source\PSoC4/CapSense_1_CSHL.c ****     {
 450:.\Generated_Source\PSoC4/CapSense_1_CSHL.c ****         #if (CapSense_1_AUTO_RESET == CapSense_1_AUTO_RESET_DISABLE)
 451:.\Generated_Source\PSoC4/CapSense_1_CSHL.c ****         #if (CapSense_1_TUNING_METHOD != CapSense_1__TUNING_NONE)
 452:.\Generated_Source\PSoC4/CapSense_1_CSHL.c ****             /* Update Baseline if lower than noiseThreshold */
 453:.\Generated_Source\PSoC4/CapSense_1_CSHL.c ****             if ( (tempRaw <= noiseThreshold) ||
 454:.\Generated_Source\PSoC4/CapSense_1_CSHL.c ****              ((tempRaw < (uint16) CapSense_1_negativeNoiseThreshold[widget])
 455:.\Generated_Source\PSoC4/CapSense_1_CSHL.c ****                && (sign == 0u)))
 456:.\Generated_Source\PSoC4/CapSense_1_CSHL.c ****             {
 457:.\Generated_Source\PSoC4/CapSense_1_CSHL.c ****         #else
 458:.\Generated_Source\PSoC4/CapSense_1_CSHL.c ****             /* Update Baseline if lower than noiseThreshold */
 459:.\Generated_Source\PSoC4/CapSense_1_CSHL.c ****             if ( (tempRaw <= noiseThreshold) ||
 460:.\Generated_Source\PSoC4/CapSense_1_CSHL.c ****                  ((tempRaw < (uint16) CapSense_1_NEGATIVE_NOISE_THRESHOLD)
 461:.\Generated_Source\PSoC4/CapSense_1_CSHL.c ****                    && (sign == 0u)))
 462:.\Generated_Source\PSoC4/CapSense_1_CSHL.c ****             {
 463:.\Generated_Source\PSoC4/CapSense_1_CSHL.c ****         #endif /* (CapSense_1_TUNING_METHOD != CapSense_1__TUNING_NONE) */
 464:.\Generated_Source\PSoC4/CapSense_1_CSHL.c ****         #endif /* (CapSense_1_AUTO_RESET == CapSense_1_AUTO_RESET_DISABLE) */
 465:.\Generated_Source\PSoC4/CapSense_1_CSHL.c ****                 /* Make full Baseline 23 bits */
 466:.\Generated_Source\PSoC4/CapSense_1_CSHL.c ****                 calc = (uint32) CapSense_1_sensorBaseline[sensor] << 8u;
ARM GAS  C:\Users\syhaines\AppData\Local\Temp\ccFwROm9.s 			page 14


 467:.\Generated_Source\PSoC4/CapSense_1_CSHL.c ****                 calc |= (uint32) CapSense_1_sensorBaselineLow[sensor];
 468:.\Generated_Source\PSoC4/CapSense_1_CSHL.c **** 
 469:.\Generated_Source\PSoC4/CapSense_1_CSHL.c ****                 /* Add Raw Data to Baseline */
 470:.\Generated_Source\PSoC4/CapSense_1_CSHL.c ****                 calc += filteredRawData;
 471:.\Generated_Source\PSoC4/CapSense_1_CSHL.c **** 
 472:.\Generated_Source\PSoC4/CapSense_1_CSHL.c ****                 /* Sub the high Baseline */
 473:.\Generated_Source\PSoC4/CapSense_1_CSHL.c ****                 calc -= CapSense_1_sensorBaseline[sensor];
 474:.\Generated_Source\PSoC4/CapSense_1_CSHL.c **** 
 475:.\Generated_Source\PSoC4/CapSense_1_CSHL.c ****                 /* Put Baseline and BaselineLow */
 476:.\Generated_Source\PSoC4/CapSense_1_CSHL.c ****                 CapSense_1_sensorBaseline[sensor] = ((uint16) (calc >> 8u));
 477:.\Generated_Source\PSoC4/CapSense_1_CSHL.c ****                 CapSense_1_sensorBaselineLow[sensor] = ((uint8) calc);
 478:.\Generated_Source\PSoC4/CapSense_1_CSHL.c **** 
 479:.\Generated_Source\PSoC4/CapSense_1_CSHL.c ****                 CapSense_1_lowBaselineResetCnt[sensor] = 0u;
 480:.\Generated_Source\PSoC4/CapSense_1_CSHL.c ****         #if (CapSense_1_AUTO_RESET == CapSense_1_AUTO_RESET_DISABLE)
 481:.\Generated_Source\PSoC4/CapSense_1_CSHL.c ****             }
 482:.\Generated_Source\PSoC4/CapSense_1_CSHL.c ****         #endif /* (CapSense_1_AUTO_RESET == CapSense_1_AUTO_RESET_DISABLE) */
 483:.\Generated_Source\PSoC4/CapSense_1_CSHL.c ****     }
 484:.\Generated_Source\PSoC4/CapSense_1_CSHL.c **** 
 485:.\Generated_Source\PSoC4/CapSense_1_CSHL.c ****     /* Calculate Signal if positive difference > noiseThreshold */
 486:.\Generated_Source\PSoC4/CapSense_1_CSHL.c ****     if((tempRaw > (uint16) noiseThreshold) && (sign != 0u))
 487:.\Generated_Source\PSoC4/CapSense_1_CSHL.c ****     {
 488:.\Generated_Source\PSoC4/CapSense_1_CSHL.c ****         #if (CapSense_1_SIGNAL_SIZE == CapSense_1_SIGNAL_SIZE_UINT8)
 489:.\Generated_Source\PSoC4/CapSense_1_CSHL.c ****             /* Over flow defence for uint8 */
 490:.\Generated_Source\PSoC4/CapSense_1_CSHL.c ****             if (tempRaw > 0xFFu)
 491:.\Generated_Source\PSoC4/CapSense_1_CSHL.c ****             {
 492:.\Generated_Source\PSoC4/CapSense_1_CSHL.c ****                 CapSense_1_sensorSignal[sensor] = 0xFFu;
 493:.\Generated_Source\PSoC4/CapSense_1_CSHL.c ****             }
 494:.\Generated_Source\PSoC4/CapSense_1_CSHL.c ****             else
 495:.\Generated_Source\PSoC4/CapSense_1_CSHL.c ****             {
 496:.\Generated_Source\PSoC4/CapSense_1_CSHL.c ****                 CapSense_1_sensorSignal[sensor] = ((uint8) tempRaw);
 497:.\Generated_Source\PSoC4/CapSense_1_CSHL.c ****             }
 498:.\Generated_Source\PSoC4/CapSense_1_CSHL.c ****         #else
 499:.\Generated_Source\PSoC4/CapSense_1_CSHL.c ****             CapSense_1_sensorSignal[sensor] = ((uint16) tempRaw);
 500:.\Generated_Source\PSoC4/CapSense_1_CSHL.c ****         #endif  /* (CapSense_1_SIGNAL_SIZE == CapSense_1_SIGNAL_SIZE_UINT8) */
 501:.\Generated_Source\PSoC4/CapSense_1_CSHL.c ****     }
 502:.\Generated_Source\PSoC4/CapSense_1_CSHL.c ****     else
 503:.\Generated_Source\PSoC4/CapSense_1_CSHL.c ****     {
 504:.\Generated_Source\PSoC4/CapSense_1_CSHL.c ****         /* Signal is zero */
 505:.\Generated_Source\PSoC4/CapSense_1_CSHL.c ****         CapSense_1_sensorSignal[sensor] = 0u;
 506:.\Generated_Source\PSoC4/CapSense_1_CSHL.c ****     }
 507:.\Generated_Source\PSoC4/CapSense_1_CSHL.c **** 
 508:.\Generated_Source\PSoC4/CapSense_1_CSHL.c ****     #if (CapSense_1_TOTAL_GENERICS_COUNT)
 509:.\Generated_Source\PSoC4/CapSense_1_CSHL.c ****         /* Exclude generic widget */
 510:.\Generated_Source\PSoC4/CapSense_1_CSHL.c ****         }
 511:.\Generated_Source\PSoC4/CapSense_1_CSHL.c ****     #endif  /* CapSense_1_TOTAL_GENERICS_COUNT */
 512:.\Generated_Source\PSoC4/CapSense_1_CSHL.c **** }
 513:.\Generated_Source\PSoC4/CapSense_1_CSHL.c **** 
 514:.\Generated_Source\PSoC4/CapSense_1_CSHL.c **** 
 515:.\Generated_Source\PSoC4/CapSense_1_CSHL.c **** /*******************************************************************************
 516:.\Generated_Source\PSoC4/CapSense_1_CSHL.c **** * Function Name: CapSense_1_UpdateSensorBaseline
 517:.\Generated_Source\PSoC4/CapSense_1_CSHL.c **** ********************************************************************************
 518:.\Generated_Source\PSoC4/CapSense_1_CSHL.c **** *
 519:.\Generated_Source\PSoC4/CapSense_1_CSHL.c **** * Summary:
 520:.\Generated_Source\PSoC4/CapSense_1_CSHL.c **** *  Updates the CapSense_1_sensorBaseline[sensor] array element using the
 521:.\Generated_Source\PSoC4/CapSense_1_CSHL.c **** *  LP filter with k = 256. The signal calculates the difference of count by
 522:.\Generated_Source\PSoC4/CapSense_1_CSHL.c **** *  subtracting the previous baseline from the current raw count value and stores
 523:.\Generated_Source\PSoC4/CapSense_1_CSHL.c **** *  it in CapSense_1_sensorSignal[sensor].
ARM GAS  C:\Users\syhaines\AppData\Local\Temp\ccFwROm9.s 			page 15


 524:.\Generated_Source\PSoC4/CapSense_1_CSHL.c **** *  If the auto reset option is enabled, the baseline updated regards the noise threshold.
 525:.\Generated_Source\PSoC4/CapSense_1_CSHL.c **** *  If the auto reset option is disabled, the baseline stops updating.
 526:.\Generated_Source\PSoC4/CapSense_1_CSHL.c **** *  Baseline is loaded with raw count value if a signal is greater than zero and
 527:.\Generated_Source\PSoC4/CapSense_1_CSHL.c **** *  if signal is less than noise threshold.
 528:.\Generated_Source\PSoC4/CapSense_1_CSHL.c **** *  Raw data filters are applied to the values if enabled before baseline
 529:.\Generated_Source\PSoC4/CapSense_1_CSHL.c **** *  calculation.
 530:.\Generated_Source\PSoC4/CapSense_1_CSHL.c **** *  This API updates the thresholds in the Smartsense Mode.
 531:.\Generated_Source\PSoC4/CapSense_1_CSHL.c **** *
 532:.\Generated_Source\PSoC4/CapSense_1_CSHL.c **** * Parameters:
 533:.\Generated_Source\PSoC4/CapSense_1_CSHL.c **** *  sensor:  Sensor number.
 534:.\Generated_Source\PSoC4/CapSense_1_CSHL.c **** *
 535:.\Generated_Source\PSoC4/CapSense_1_CSHL.c **** * Return:
 536:.\Generated_Source\PSoC4/CapSense_1_CSHL.c **** *  None
 537:.\Generated_Source\PSoC4/CapSense_1_CSHL.c **** *
 538:.\Generated_Source\PSoC4/CapSense_1_CSHL.c **** * Global Variables:
 539:.\Generated_Source\PSoC4/CapSense_1_CSHL.c **** *  CapSense_1_widgetNumber[]  - stores widget numbers.
 540:.\Generated_Source\PSoC4/CapSense_1_CSHL.c **** *
 541:.\Generated_Source\PSoC4/CapSense_1_CSHL.c **** * Side Effects:
 542:.\Generated_Source\PSoC4/CapSense_1_CSHL.c **** *  None
 543:.\Generated_Source\PSoC4/CapSense_1_CSHL.c **** *
 544:.\Generated_Source\PSoC4/CapSense_1_CSHL.c **** *******************************************************************************/
 545:.\Generated_Source\PSoC4/CapSense_1_CSHL.c ****  void CapSense_1_UpdateSensorBaseline(uint32 sensor)
 546:.\Generated_Source\PSoC4/CapSense_1_CSHL.c **** {
 547:.\Generated_Source\PSoC4/CapSense_1_CSHL.c ****     #if (CapSense_1_TOTAL_GENERICS_COUNT)
 548:.\Generated_Source\PSoC4/CapSense_1_CSHL.c ****         uint32 widget;
 549:.\Generated_Source\PSoC4/CapSense_1_CSHL.c **** 
 550:.\Generated_Source\PSoC4/CapSense_1_CSHL.c ****         widget = CapSense_1_widgetNumber[sensor];
 551:.\Generated_Source\PSoC4/CapSense_1_CSHL.c **** 
 552:.\Generated_Source\PSoC4/CapSense_1_CSHL.c ****         /* Exclude generic widget */
 553:.\Generated_Source\PSoC4/CapSense_1_CSHL.c ****         if(widget < CapSense_1_END_OF_WIDGETS_INDEX)
 554:.\Generated_Source\PSoC4/CapSense_1_CSHL.c ****         {
 555:.\Generated_Source\PSoC4/CapSense_1_CSHL.c ****     #endif  /* CapSense_1_TOTAL_GENERICS_COUNT */
 556:.\Generated_Source\PSoC4/CapSense_1_CSHL.c **** 
 557:.\Generated_Source\PSoC4/CapSense_1_CSHL.c ****     #if (CapSense_1_TUNING_METHOD == CapSense_1__TUNING_AUTO)
 558:.\Generated_Source\PSoC4/CapSense_1_CSHL.c ****         CapSense_1_UpdateThresholds(sensor);
 559:.\Generated_Source\PSoC4/CapSense_1_CSHL.c ****     #endif /* (CapSense_1_TUNING_METHOD == CapSense_1__TUNING_AUTO) */
 560:.\Generated_Source\PSoC4/CapSense_1_CSHL.c **** 
 561:.\Generated_Source\PSoC4/CapSense_1_CSHL.c ****     CapSense_1_UpdateBaselineNoThreshold(sensor);
 562:.\Generated_Source\PSoC4/CapSense_1_CSHL.c **** 
 563:.\Generated_Source\PSoC4/CapSense_1_CSHL.c ****     #if (CapSense_1_TOTAL_GENERICS_COUNT)
 564:.\Generated_Source\PSoC4/CapSense_1_CSHL.c ****         /* Exclude generic widget */
 565:.\Generated_Source\PSoC4/CapSense_1_CSHL.c ****         }
 566:.\Generated_Source\PSoC4/CapSense_1_CSHL.c ****     #endif  /* CapSense_1_TOTAL_GENERICS_COUNT */
 567:.\Generated_Source\PSoC4/CapSense_1_CSHL.c **** }
 568:.\Generated_Source\PSoC4/CapSense_1_CSHL.c **** 
 569:.\Generated_Source\PSoC4/CapSense_1_CSHL.c **** 
 570:.\Generated_Source\PSoC4/CapSense_1_CSHL.c **** /*******************************************************************************
 571:.\Generated_Source\PSoC4/CapSense_1_CSHL.c **** * Function Name: CapSense_1_UpdateEnabledBaselines
 572:.\Generated_Source\PSoC4/CapSense_1_CSHL.c **** ********************************************************************************
 573:.\Generated_Source\PSoC4/CapSense_1_CSHL.c **** *
 574:.\Generated_Source\PSoC4/CapSense_1_CSHL.c **** * Summary:
 575:.\Generated_Source\PSoC4/CapSense_1_CSHL.c **** *  Checks CapSense_1_sensorEnableMask[] array and calls the
 576:.\Generated_Source\PSoC4/CapSense_1_CSHL.c **** *  CapSense_1_UpdateSensorBaseline function to update the baselines
 577:.\Generated_Source\PSoC4/CapSense_1_CSHL.c **** *  for the enabled sensors.
 578:.\Generated_Source\PSoC4/CapSense_1_CSHL.c **** *
 579:.\Generated_Source\PSoC4/CapSense_1_CSHL.c **** * Parameters:
 580:.\Generated_Source\PSoC4/CapSense_1_CSHL.c **** *  None
ARM GAS  C:\Users\syhaines\AppData\Local\Temp\ccFwROm9.s 			page 16


 581:.\Generated_Source\PSoC4/CapSense_1_CSHL.c **** *
 582:.\Generated_Source\PSoC4/CapSense_1_CSHL.c **** * Return:
 583:.\Generated_Source\PSoC4/CapSense_1_CSHL.c **** *  None
 584:.\Generated_Source\PSoC4/CapSense_1_CSHL.c **** *
 585:.\Generated_Source\PSoC4/CapSense_1_CSHL.c **** * Global Variables:
 586:.\Generated_Source\PSoC4/CapSense_1_CSHL.c **** *  CapSense_1_sensorEnableMask[] - used to store the sensor scanning
 587:.\Generated_Source\PSoC4/CapSense_1_CSHL.c **** *  state.
 588:.\Generated_Source\PSoC4/CapSense_1_CSHL.c **** *  CapSense_1_sensorEnableMask[0] contains the masked bits for sensors
 589:.\Generated_Source\PSoC4/CapSense_1_CSHL.c **** *   0 through 7 (sensor 0 is bit 0, sensor 1 is bit 1).
 590:.\Generated_Source\PSoC4/CapSense_1_CSHL.c **** *  CapSense_1_sensorEnableMask[1] contains the masked bits for
 591:.\Generated_Source\PSoC4/CapSense_1_CSHL.c **** *  sensors 8 through 15 (if needed), and so on.
 592:.\Generated_Source\PSoC4/CapSense_1_CSHL.c **** *  0 - sensor doesn't scan by CapSense_1_ScanEnabledWidgets().
 593:.\Generated_Source\PSoC4/CapSense_1_CSHL.c **** *  1 - sensor scans by CapSense_1_ScanEnabledWidgets().
 594:.\Generated_Source\PSoC4/CapSense_1_CSHL.c **** *
 595:.\Generated_Source\PSoC4/CapSense_1_CSHL.c **** * Side Effects:
 596:.\Generated_Source\PSoC4/CapSense_1_CSHL.c **** *  None
 597:.\Generated_Source\PSoC4/CapSense_1_CSHL.c **** *
 598:.\Generated_Source\PSoC4/CapSense_1_CSHL.c **** *******************************************************************************/
 599:.\Generated_Source\PSoC4/CapSense_1_CSHL.c ****  void CapSense_1_UpdateEnabledBaselines(void)
 600:.\Generated_Source\PSoC4/CapSense_1_CSHL.c **** {
 601:.\Generated_Source\PSoC4/CapSense_1_CSHL.c ****     uint32 i;
 602:.\Generated_Source\PSoC4/CapSense_1_CSHL.c ****     uint32 isSensorEnabled;
 603:.\Generated_Source\PSoC4/CapSense_1_CSHL.c **** 
 604:.\Generated_Source\PSoC4/CapSense_1_CSHL.c ****     for(i = 0u; i < CapSense_1_TOTAL_SENSOR_COUNT; i++)
 605:.\Generated_Source\PSoC4/CapSense_1_CSHL.c ****     {
 606:.\Generated_Source\PSoC4/CapSense_1_CSHL.c ****         isSensorEnabled = CapSense_1_GetBitValue(CapSense_1_sensorEnableMask, i);
 607:.\Generated_Source\PSoC4/CapSense_1_CSHL.c **** 
 608:.\Generated_Source\PSoC4/CapSense_1_CSHL.c ****         if(0u != isSensorEnabled)
 609:.\Generated_Source\PSoC4/CapSense_1_CSHL.c ****         {
 610:.\Generated_Source\PSoC4/CapSense_1_CSHL.c ****             CapSense_1_UpdateSensorBaseline(i);
 611:.\Generated_Source\PSoC4/CapSense_1_CSHL.c ****         }
 612:.\Generated_Source\PSoC4/CapSense_1_CSHL.c ****     }
 613:.\Generated_Source\PSoC4/CapSense_1_CSHL.c **** }
 614:.\Generated_Source\PSoC4/CapSense_1_CSHL.c **** 
 615:.\Generated_Source\PSoC4/CapSense_1_CSHL.c **** /*******************************************************************************
 616:.\Generated_Source\PSoC4/CapSense_1_CSHL.c **** * Function Name: CapSense_1_UpdateWidgetBaseline
 617:.\Generated_Source\PSoC4/CapSense_1_CSHL.c **** ********************************************************************************
 618:.\Generated_Source\PSoC4/CapSense_1_CSHL.c **** *
 619:.\Generated_Source\PSoC4/CapSense_1_CSHL.c **** * Summary:
 620:.\Generated_Source\PSoC4/CapSense_1_CSHL.c **** *  Checks CapSense_1_sensorEnableMask[] array and calls the
 621:.\Generated_Source\PSoC4/CapSense_1_CSHL.c **** *  CapSense_1_UpdateSensorBaseline function to update the baselines
 622:.\Generated_Source\PSoC4/CapSense_1_CSHL.c **** *  for the enabled sensors that belong to widget.
 623:.\Generated_Source\PSoC4/CapSense_1_CSHL.c **** *
 624:.\Generated_Source\PSoC4/CapSense_1_CSHL.c **** * Parameters:
 625:.\Generated_Source\PSoC4/CapSense_1_CSHL.c **** *  widget:  Widget number.
 626:.\Generated_Source\PSoC4/CapSense_1_CSHL.c **** *
 627:.\Generated_Source\PSoC4/CapSense_1_CSHL.c **** * Return:
 628:.\Generated_Source\PSoC4/CapSense_1_CSHL.c **** *  None
 629:.\Generated_Source\PSoC4/CapSense_1_CSHL.c **** *
 630:.\Generated_Source\PSoC4/CapSense_1_CSHL.c **** * Global Variables:
 631:.\Generated_Source\PSoC4/CapSense_1_CSHL.c **** *  CapSense_1_sensorEnableMask[] - used to store the sensor scanning
 632:.\Generated_Source\PSoC4/CapSense_1_CSHL.c **** *  state.
 633:.\Generated_Source\PSoC4/CapSense_1_CSHL.c **** *  CapSense_1_sensorEnableMask[0] contains the masked bits for sensors
 634:.\Generated_Source\PSoC4/CapSense_1_CSHL.c **** *   0 through 7 (sensor 0 is bit 0, sensor 1 is bit 1).
 635:.\Generated_Source\PSoC4/CapSense_1_CSHL.c **** *  CapSense_1_sensorEnableMask[1] contains the masked bits for
 636:.\Generated_Source\PSoC4/CapSense_1_CSHL.c **** *  sensors 8 through 15 (if needed), and so on.
 637:.\Generated_Source\PSoC4/CapSense_1_CSHL.c **** *  0 - sensor doesn't scan by CapSense_1_ScanEnabledWidgets().
ARM GAS  C:\Users\syhaines\AppData\Local\Temp\ccFwROm9.s 			page 17


 638:.\Generated_Source\PSoC4/CapSense_1_CSHL.c **** *  1 - sensor scans by CapSense_1_ScanEnabledWidgets().
 639:.\Generated_Source\PSoC4/CapSense_1_CSHL.c **** *
 640:.\Generated_Source\PSoC4/CapSense_1_CSHL.c **** * Side Effects:
 641:.\Generated_Source\PSoC4/CapSense_1_CSHL.c **** *  None
 642:.\Generated_Source\PSoC4/CapSense_1_CSHL.c **** *
 643:.\Generated_Source\PSoC4/CapSense_1_CSHL.c **** *******************************************************************************/
 644:.\Generated_Source\PSoC4/CapSense_1_CSHL.c **** void CapSense_1_UpdateWidgetBaseline(uint32 widget)
 645:.\Generated_Source\PSoC4/CapSense_1_CSHL.c **** {
 646:.\Generated_Source\PSoC4/CapSense_1_CSHL.c ****     uint32 sensorsPerWidget;
 647:.\Generated_Source\PSoC4/CapSense_1_CSHL.c ****     uint32 firstSensor;
 648:.\Generated_Source\PSoC4/CapSense_1_CSHL.c ****     uint32 lastSensor;
 649:.\Generated_Source\PSoC4/CapSense_1_CSHL.c ****     uint32 i;
 650:.\Generated_Source\PSoC4/CapSense_1_CSHL.c ****     uint32 isSensorEnabled;
 651:.\Generated_Source\PSoC4/CapSense_1_CSHL.c **** 
 652:.\Generated_Source\PSoC4/CapSense_1_CSHL.c ****     /* Get number of sensors in widget */
 653:.\Generated_Source\PSoC4/CapSense_1_CSHL.c ****     sensorsPerWidget = CapSense_1_numberOfSensors[widget];
 654:.\Generated_Source\PSoC4/CapSense_1_CSHL.c **** 
 655:.\Generated_Source\PSoC4/CapSense_1_CSHL.c ****     /* Get first sensor in widget */
 656:.\Generated_Source\PSoC4/CapSense_1_CSHL.c ****     firstSensor = CapSense_1_rawDataIndex[widget];
 657:.\Generated_Source\PSoC4/CapSense_1_CSHL.c **** 
 658:.\Generated_Source\PSoC4/CapSense_1_CSHL.c ****     /* Get last sensor in widget */
 659:.\Generated_Source\PSoC4/CapSense_1_CSHL.c ****     lastSensor = (CapSense_1_rawDataIndex[widget] + sensorsPerWidget);
 660:.\Generated_Source\PSoC4/CapSense_1_CSHL.c **** 
 661:.\Generated_Source\PSoC4/CapSense_1_CSHL.c ****     for(i = firstSensor; i < lastSensor; i++)
 662:.\Generated_Source\PSoC4/CapSense_1_CSHL.c ****     {
 663:.\Generated_Source\PSoC4/CapSense_1_CSHL.c ****         isSensorEnabled = CapSense_1_GetBitValue(CapSense_1_sensorEnableMask, i);
 664:.\Generated_Source\PSoC4/CapSense_1_CSHL.c **** 
 665:.\Generated_Source\PSoC4/CapSense_1_CSHL.c ****         if(0u != isSensorEnabled)
 666:.\Generated_Source\PSoC4/CapSense_1_CSHL.c ****         {
 667:.\Generated_Source\PSoC4/CapSense_1_CSHL.c ****             CapSense_1_UpdateSensorBaseline(i);
 668:.\Generated_Source\PSoC4/CapSense_1_CSHL.c ****         }
 669:.\Generated_Source\PSoC4/CapSense_1_CSHL.c ****     }
 670:.\Generated_Source\PSoC4/CapSense_1_CSHL.c **** }
 671:.\Generated_Source\PSoC4/CapSense_1_CSHL.c **** 
 672:.\Generated_Source\PSoC4/CapSense_1_CSHL.c **** 
 673:.\Generated_Source\PSoC4/CapSense_1_CSHL.c **** /*******************************************************************************
 674:.\Generated_Source\PSoC4/CapSense_1_CSHL.c **** * Function Name: CapSense_1_GetBaselineData
 675:.\Generated_Source\PSoC4/CapSense_1_CSHL.c **** ********************************************************************************
 676:.\Generated_Source\PSoC4/CapSense_1_CSHL.c **** *
 677:.\Generated_Source\PSoC4/CapSense_1_CSHL.c **** * Summary:
 678:.\Generated_Source\PSoC4/CapSense_1_CSHL.c **** *  This function reads the sensor baseline from the component.
 679:.\Generated_Source\PSoC4/CapSense_1_CSHL.c **** *
 680:.\Generated_Source\PSoC4/CapSense_1_CSHL.c **** * Parameters:
 681:.\Generated_Source\PSoC4/CapSense_1_CSHL.c **** *  sensor:  Sensor number.
 682:.\Generated_Source\PSoC4/CapSense_1_CSHL.c **** *
 683:.\Generated_Source\PSoC4/CapSense_1_CSHL.c **** * Return:
 684:.\Generated_Source\PSoC4/CapSense_1_CSHL.c **** *  This API returns the baseline value of the sensor indicated by an argument.
 685:.\Generated_Source\PSoC4/CapSense_1_CSHL.c **** *
 686:.\Generated_Source\PSoC4/CapSense_1_CSHL.c **** * Global Variables:
 687:.\Generated_Source\PSoC4/CapSense_1_CSHL.c **** *  CapSense_1_sensorBaseline[] - the array with an initial values by scanning
 688:.\Generated_Source\PSoC4/CapSense_1_CSHL.c **** *
 689:.\Generated_Source\PSoC4/CapSense_1_CSHL.c **** * Side Effects:
 690:.\Generated_Source\PSoC4/CapSense_1_CSHL.c **** *  None
 691:.\Generated_Source\PSoC4/CapSense_1_CSHL.c **** *
 692:.\Generated_Source\PSoC4/CapSense_1_CSHL.c **** *******************************************************************************/
 693:.\Generated_Source\PSoC4/CapSense_1_CSHL.c **** uint16 CapSense_1_GetBaselineData(uint32 sensor)
 694:.\Generated_Source\PSoC4/CapSense_1_CSHL.c **** {
ARM GAS  C:\Users\syhaines\AppData\Local\Temp\ccFwROm9.s 			page 18


 695:.\Generated_Source\PSoC4/CapSense_1_CSHL.c ****     return (CapSense_1_sensorBaseline[sensor]);
 696:.\Generated_Source\PSoC4/CapSense_1_CSHL.c **** }
 697:.\Generated_Source\PSoC4/CapSense_1_CSHL.c **** 
 698:.\Generated_Source\PSoC4/CapSense_1_CSHL.c **** 
 699:.\Generated_Source\PSoC4/CapSense_1_CSHL.c **** /*******************************************************************************
 700:.\Generated_Source\PSoC4/CapSense_1_CSHL.c **** * Function Name: CapSense_1_SetBaselineData
 701:.\Generated_Source\PSoC4/CapSense_1_CSHL.c **** ********************************************************************************
 702:.\Generated_Source\PSoC4/CapSense_1_CSHL.c **** *
 703:.\Generated_Source\PSoC4/CapSense_1_CSHL.c **** * Summary:
 704:.\Generated_Source\PSoC4/CapSense_1_CSHL.c **** *  This API writes the data value passed as an argument to the sensor baseline array.
 705:.\Generated_Source\PSoC4/CapSense_1_CSHL.c **** *
 706:.\Generated_Source\PSoC4/CapSense_1_CSHL.c **** * Parameters:
 707:.\Generated_Source\PSoC4/CapSense_1_CSHL.c **** *  sensor:  Sensor number.
 708:.\Generated_Source\PSoC4/CapSense_1_CSHL.c **** *  data:    Sensor baseline.
 709:.\Generated_Source\PSoC4/CapSense_1_CSHL.c **** *
 710:.\Generated_Source\PSoC4/CapSense_1_CSHL.c **** * Return:
 711:.\Generated_Source\PSoC4/CapSense_1_CSHL.c **** *  None.
 712:.\Generated_Source\PSoC4/CapSense_1_CSHL.c **** *
 713:.\Generated_Source\PSoC4/CapSense_1_CSHL.c **** * Global Variables:
 714:.\Generated_Source\PSoC4/CapSense_1_CSHL.c **** *  CapSense_1_sensorBaseline[] - the array with initial values by scanning
 715:.\Generated_Source\PSoC4/CapSense_1_CSHL.c **** *
 716:.\Generated_Source\PSoC4/CapSense_1_CSHL.c **** * Side Effects:
 717:.\Generated_Source\PSoC4/CapSense_1_CSHL.c **** *  None
 718:.\Generated_Source\PSoC4/CapSense_1_CSHL.c **** *
 719:.\Generated_Source\PSoC4/CapSense_1_CSHL.c **** *******************************************************************************/
 720:.\Generated_Source\PSoC4/CapSense_1_CSHL.c **** void CapSense_1_SetBaselineData(uint32 sensor, uint16 data)
 721:.\Generated_Source\PSoC4/CapSense_1_CSHL.c **** {
 722:.\Generated_Source\PSoC4/CapSense_1_CSHL.c ****     CapSense_1_sensorBaseline[sensor] = data;
 723:.\Generated_Source\PSoC4/CapSense_1_CSHL.c **** }
 724:.\Generated_Source\PSoC4/CapSense_1_CSHL.c **** 
 725:.\Generated_Source\PSoC4/CapSense_1_CSHL.c **** 
 726:.\Generated_Source\PSoC4/CapSense_1_CSHL.c **** /*******************************************************************************
 727:.\Generated_Source\PSoC4/CapSense_1_CSHL.c **** * Function Name: CapSense_1_GetDiffCountData
 728:.\Generated_Source\PSoC4/CapSense_1_CSHL.c **** ********************************************************************************
 729:.\Generated_Source\PSoC4/CapSense_1_CSHL.c **** *
 730:.\Generated_Source\PSoC4/CapSense_1_CSHL.c **** * Summary:
 731:.\Generated_Source\PSoC4/CapSense_1_CSHL.c **** *  This function returns the Sensor Signal from the component.
 732:.\Generated_Source\PSoC4/CapSense_1_CSHL.c **** *
 733:.\Generated_Source\PSoC4/CapSense_1_CSHL.c **** * Parameters:
 734:.\Generated_Source\PSoC4/CapSense_1_CSHL.c **** *  sensor:  Sensor number.
 735:.\Generated_Source\PSoC4/CapSense_1_CSHL.c **** *
 736:.\Generated_Source\PSoC4/CapSense_1_CSHL.c **** * Return:
 737:.\Generated_Source\PSoC4/CapSense_1_CSHL.c **** *  This API returns the difference count value of the sensor indicated by the
 738:.\Generated_Source\PSoC4/CapSense_1_CSHL.c **** *  argument.
 739:.\Generated_Source\PSoC4/CapSense_1_CSHL.c **** *
 740:.\Generated_Source\PSoC4/CapSense_1_CSHL.c **** * Global Variables:
 741:.\Generated_Source\PSoC4/CapSense_1_CSHL.c **** *  CapSense_1_sensorSignal[] - the array with difference counts for sensors
 742:.\Generated_Source\PSoC4/CapSense_1_CSHL.c **** *
 743:.\Generated_Source\PSoC4/CapSense_1_CSHL.c **** * Side Effects:
 744:.\Generated_Source\PSoC4/CapSense_1_CSHL.c **** *  None
 745:.\Generated_Source\PSoC4/CapSense_1_CSHL.c **** *
 746:.\Generated_Source\PSoC4/CapSense_1_CSHL.c **** *******************************************************************************/
 747:.\Generated_Source\PSoC4/CapSense_1_CSHL.c **** uint8 CapSense_1_GetDiffCountData(uint32 sensor)
 748:.\Generated_Source\PSoC4/CapSense_1_CSHL.c **** {
 749:.\Generated_Source\PSoC4/CapSense_1_CSHL.c ****     return (CapSense_1_sensorSignal[sensor]);
 750:.\Generated_Source\PSoC4/CapSense_1_CSHL.c **** }
 751:.\Generated_Source\PSoC4/CapSense_1_CSHL.c **** 
ARM GAS  C:\Users\syhaines\AppData\Local\Temp\ccFwROm9.s 			page 19


 752:.\Generated_Source\PSoC4/CapSense_1_CSHL.c **** 
 753:.\Generated_Source\PSoC4/CapSense_1_CSHL.c **** /*******************************************************************************
 754:.\Generated_Source\PSoC4/CapSense_1_CSHL.c **** * Function Name: CapSense_1_SetDiffCountData
 755:.\Generated_Source\PSoC4/CapSense_1_CSHL.c **** ********************************************************************************
 756:.\Generated_Source\PSoC4/CapSense_1_CSHL.c **** *
 757:.\Generated_Source\PSoC4/CapSense_1_CSHL.c **** * Summary:
 758:.\Generated_Source\PSoC4/CapSense_1_CSHL.c **** *  This API writes the data value passed as an argument to the sensor signal array.
 759:.\Generated_Source\PSoC4/CapSense_1_CSHL.c **** *
 760:.\Generated_Source\PSoC4/CapSense_1_CSHL.c **** * Parameters:
 761:.\Generated_Source\PSoC4/CapSense_1_CSHL.c **** *  sensor:  Sensor number.
 762:.\Generated_Source\PSoC4/CapSense_1_CSHL.c **** *  value:   Sensor signal.
 763:.\Generated_Source\PSoC4/CapSense_1_CSHL.c **** *
 764:.\Generated_Source\PSoC4/CapSense_1_CSHL.c **** * Return:
 765:.\Generated_Source\PSoC4/CapSense_1_CSHL.c **** *  None.
 766:.\Generated_Source\PSoC4/CapSense_1_CSHL.c **** *
 767:.\Generated_Source\PSoC4/CapSense_1_CSHL.c **** * Global Variables:
 768:.\Generated_Source\PSoC4/CapSense_1_CSHL.c **** *  CapSense_1_sensorSignal[] - the array with difference counts for sensors
 769:.\Generated_Source\PSoC4/CapSense_1_CSHL.c **** *
 770:.\Generated_Source\PSoC4/CapSense_1_CSHL.c **** * Side Effects:
 771:.\Generated_Source\PSoC4/CapSense_1_CSHL.c **** *  None
 772:.\Generated_Source\PSoC4/CapSense_1_CSHL.c **** *
 773:.\Generated_Source\PSoC4/CapSense_1_CSHL.c **** *******************************************************************************/
 774:.\Generated_Source\PSoC4/CapSense_1_CSHL.c **** void CapSense_1_SetDiffCountData(uint32 sensor, uint8 value)
 775:.\Generated_Source\PSoC4/CapSense_1_CSHL.c **** {
 776:.\Generated_Source\PSoC4/CapSense_1_CSHL.c ****     CapSense_1_sensorSignal[sensor] = value;
 777:.\Generated_Source\PSoC4/CapSense_1_CSHL.c **** }
 778:.\Generated_Source\PSoC4/CapSense_1_CSHL.c **** 
 779:.\Generated_Source\PSoC4/CapSense_1_CSHL.c **** 
 780:.\Generated_Source\PSoC4/CapSense_1_CSHL.c **** /*******************************************************************************
 781:.\Generated_Source\PSoC4/CapSense_1_CSHL.c **** * Function Name: CapSense_1_GetFingerThreshold
 782:.\Generated_Source\PSoC4/CapSense_1_CSHL.c **** ********************************************************************************
 783:.\Generated_Source\PSoC4/CapSense_1_CSHL.c **** *
 784:.\Generated_Source\PSoC4/CapSense_1_CSHL.c **** * Summary:
 785:.\Generated_Source\PSoC4/CapSense_1_CSHL.c **** *  This function reads the finger threshold from the component.
 786:.\Generated_Source\PSoC4/CapSense_1_CSHL.c **** *
 787:.\Generated_Source\PSoC4/CapSense_1_CSHL.c **** * Parameters:
 788:.\Generated_Source\PSoC4/CapSense_1_CSHL.c **** *  widget:  widget number.
 789:.\Generated_Source\PSoC4/CapSense_1_CSHL.c **** *
 790:.\Generated_Source\PSoC4/CapSense_1_CSHL.c **** * Return:
 791:.\Generated_Source\PSoC4/CapSense_1_CSHL.c **** *  This API returns the finger threshold of the widget indicated by the argument.
 792:.\Generated_Source\PSoC4/CapSense_1_CSHL.c **** *
 793:.\Generated_Source\PSoC4/CapSense_1_CSHL.c **** * Global Variables:
 794:.\Generated_Source\PSoC4/CapSense_1_CSHL.c **** *  CapSense_1_fingerThreshold[] - This array contains the level of signal
 795:.\Generated_Source\PSoC4/CapSense_1_CSHL.c **** *  for each widget that is determined if a finger is present on the widget.
 796:.\Generated_Source\PSoC4/CapSense_1_CSHL.c **** *
 797:.\Generated_Source\PSoC4/CapSense_1_CSHL.c **** * Side Effects:
 798:.\Generated_Source\PSoC4/CapSense_1_CSHL.c **** *  None
 799:.\Generated_Source\PSoC4/CapSense_1_CSHL.c **** *
 800:.\Generated_Source\PSoC4/CapSense_1_CSHL.c **** *******************************************************************************/
 801:.\Generated_Source\PSoC4/CapSense_1_CSHL.c **** uint8 CapSense_1_GetFingerThreshold(uint32 widget)
 802:.\Generated_Source\PSoC4/CapSense_1_CSHL.c **** {
 803:.\Generated_Source\PSoC4/CapSense_1_CSHL.c ****     return(CapSense_1_fingerThreshold[widget]);
 804:.\Generated_Source\PSoC4/CapSense_1_CSHL.c **** }
 805:.\Generated_Source\PSoC4/CapSense_1_CSHL.c **** 
 806:.\Generated_Source\PSoC4/CapSense_1_CSHL.c **** 
 807:.\Generated_Source\PSoC4/CapSense_1_CSHL.c **** /*******************************************************************************
 808:.\Generated_Source\PSoC4/CapSense_1_CSHL.c **** * Function Name: CapSense_1_GetNoiseThreshold
ARM GAS  C:\Users\syhaines\AppData\Local\Temp\ccFwROm9.s 			page 20


 809:.\Generated_Source\PSoC4/CapSense_1_CSHL.c **** ********************************************************************************
 810:.\Generated_Source\PSoC4/CapSense_1_CSHL.c **** *
 811:.\Generated_Source\PSoC4/CapSense_1_CSHL.c **** * Summary:
 812:.\Generated_Source\PSoC4/CapSense_1_CSHL.c **** *  This function reads the noise threshold from the component.
 813:.\Generated_Source\PSoC4/CapSense_1_CSHL.c **** *
 814:.\Generated_Source\PSoC4/CapSense_1_CSHL.c **** * Parameters:
 815:.\Generated_Source\PSoC4/CapSense_1_CSHL.c **** *  widget:  widget number.
 816:.\Generated_Source\PSoC4/CapSense_1_CSHL.c **** *
 817:.\Generated_Source\PSoC4/CapSense_1_CSHL.c **** * Return:
 818:.\Generated_Source\PSoC4/CapSense_1_CSHL.c **** *  This API returns the noise threshold of the widget indicated by the argument.
 819:.\Generated_Source\PSoC4/CapSense_1_CSHL.c **** *
 820:.\Generated_Source\PSoC4/CapSense_1_CSHL.c **** * Global Variables:
 821:.\Generated_Source\PSoC4/CapSense_1_CSHL.c **** *  CapSense_1_noiseThreshold[] - This array contains the level of signal
 822:.\Generated_Source\PSoC4/CapSense_1_CSHL.c **** *  for each widget that determines the level of noise in the capacitive scan.
 823:.\Generated_Source\PSoC4/CapSense_1_CSHL.c **** *
 824:.\Generated_Source\PSoC4/CapSense_1_CSHL.c **** * Side Effects:
 825:.\Generated_Source\PSoC4/CapSense_1_CSHL.c **** *  None
 826:.\Generated_Source\PSoC4/CapSense_1_CSHL.c **** *
 827:.\Generated_Source\PSoC4/CapSense_1_CSHL.c **** *******************************************************************************/
 828:.\Generated_Source\PSoC4/CapSense_1_CSHL.c **** uint8 CapSense_1_GetNoiseThreshold(uint32 widget)
 829:.\Generated_Source\PSoC4/CapSense_1_CSHL.c **** {
 830:.\Generated_Source\PSoC4/CapSense_1_CSHL.c ****     return (CapSense_1_noiseThreshold[widget]);
 831:.\Generated_Source\PSoC4/CapSense_1_CSHL.c **** }
 832:.\Generated_Source\PSoC4/CapSense_1_CSHL.c **** 
 833:.\Generated_Source\PSoC4/CapSense_1_CSHL.c **** 
 834:.\Generated_Source\PSoC4/CapSense_1_CSHL.c **** /*******************************************************************************
 835:.\Generated_Source\PSoC4/CapSense_1_CSHL.c **** * Function Name: CapSense_1_GetFingerHysteresis
 836:.\Generated_Source\PSoC4/CapSense_1_CSHL.c **** ********************************************************************************
 837:.\Generated_Source\PSoC4/CapSense_1_CSHL.c **** *
 838:.\Generated_Source\PSoC4/CapSense_1_CSHL.c **** * Summary:
 839:.\Generated_Source\PSoC4/CapSense_1_CSHL.c **** *  This function reads the Hysteresis value from the component.
 840:.\Generated_Source\PSoC4/CapSense_1_CSHL.c **** *
 841:.\Generated_Source\PSoC4/CapSense_1_CSHL.c **** * Parameters:
 842:.\Generated_Source\PSoC4/CapSense_1_CSHL.c **** *  widget:  widget number.
 843:.\Generated_Source\PSoC4/CapSense_1_CSHL.c **** *
 844:.\Generated_Source\PSoC4/CapSense_1_CSHL.c **** * Return:
 845:.\Generated_Source\PSoC4/CapSense_1_CSHL.c **** *  This API returns the Hysteresis of the widget indicated by the argument.
 846:.\Generated_Source\PSoC4/CapSense_1_CSHL.c **** *
 847:.\Generated_Source\PSoC4/CapSense_1_CSHL.c **** * Global Variables:
 848:.\Generated_Source\PSoC4/CapSense_1_CSHL.c **** *  CapSense_1_hysteresis[] - This array contains the hysteresis value
 849:.\Generated_Source\PSoC4/CapSense_1_CSHL.c **** *   for each widget.
 850:.\Generated_Source\PSoC4/CapSense_1_CSHL.c **** *  CapSense_1_widgetNumberSld - structure with dynamic sliders' parameters.
 851:.\Generated_Source\PSoC4/CapSense_1_CSHL.c **** *
 852:.\Generated_Source\PSoC4/CapSense_1_CSHL.c **** * Side Effects:
 853:.\Generated_Source\PSoC4/CapSense_1_CSHL.c **** *  None
 854:.\Generated_Source\PSoC4/CapSense_1_CSHL.c **** *
 855:.\Generated_Source\PSoC4/CapSense_1_CSHL.c **** *******************************************************************************/
 856:.\Generated_Source\PSoC4/CapSense_1_CSHL.c **** uint8 CapSense_1_GetFingerHysteresis(uint32 widget)
 857:.\Generated_Source\PSoC4/CapSense_1_CSHL.c **** {
 858:.\Generated_Source\PSoC4/CapSense_1_CSHL.c ****     return(CapSense_1_hysteresis[widget]);
 859:.\Generated_Source\PSoC4/CapSense_1_CSHL.c **** }
 860:.\Generated_Source\PSoC4/CapSense_1_CSHL.c **** 
 861:.\Generated_Source\PSoC4/CapSense_1_CSHL.c **** 
 862:.\Generated_Source\PSoC4/CapSense_1_CSHL.c **** /*******************************************************************************
 863:.\Generated_Source\PSoC4/CapSense_1_CSHL.c **** * Function Name: CapSense_1_GetNegativeNoiseThreshold
 864:.\Generated_Source\PSoC4/CapSense_1_CSHL.c **** ********************************************************************************
 865:.\Generated_Source\PSoC4/CapSense_1_CSHL.c **** *
ARM GAS  C:\Users\syhaines\AppData\Local\Temp\ccFwROm9.s 			page 21


 866:.\Generated_Source\PSoC4/CapSense_1_CSHL.c **** * Summary:
 867:.\Generated_Source\PSoC4/CapSense_1_CSHL.c **** *  This function reads the negative noise threshold from the component.
 868:.\Generated_Source\PSoC4/CapSense_1_CSHL.c **** *
 869:.\Generated_Source\PSoC4/CapSense_1_CSHL.c **** * Parameters:
 870:.\Generated_Source\PSoC4/CapSense_1_CSHL.c **** *  None.
 871:.\Generated_Source\PSoC4/CapSense_1_CSHL.c **** *
 872:.\Generated_Source\PSoC4/CapSense_1_CSHL.c **** * Return Value:
 873:.\Generated_Source\PSoC4/CapSense_1_CSHL.c **** *  This API returns the negative noise threshold
 874:.\Generated_Source\PSoC4/CapSense_1_CSHL.c **** *
 875:.\Generated_Source\PSoC4/CapSense_1_CSHL.c **** * Global Variables:
 876:.\Generated_Source\PSoC4/CapSense_1_CSHL.c **** *  CapSense_1_negativeNoiseThreshold - This variable specifies the negative
 877:.\Generated_Source\PSoC4/CapSense_1_CSHL.c **** *   difference between the raw count and baseline levels for Baseline resetting
 878:.\Generated_Source\PSoC4/CapSense_1_CSHL.c **** *   to the raw count level.
 879:.\Generated_Source\PSoC4/CapSense_1_CSHL.c **** *
 880:.\Generated_Source\PSoC4/CapSense_1_CSHL.c **** * Side Effects:
 881:.\Generated_Source\PSoC4/CapSense_1_CSHL.c **** *  None
 882:.\Generated_Source\PSoC4/CapSense_1_CSHL.c **** *
 883:.\Generated_Source\PSoC4/CapSense_1_CSHL.c **** *******************************************************************************/
 884:.\Generated_Source\PSoC4/CapSense_1_CSHL.c **** uint8 CapSense_1_GetNegativeNoiseThreshold(uint32 widget)
 885:.\Generated_Source\PSoC4/CapSense_1_CSHL.c **** {
 886:.\Generated_Source\PSoC4/CapSense_1_CSHL.c **** #if (CapSense_1_TUNING_METHOD != CapSense_1__TUNING_NONE)
 887:.\Generated_Source\PSoC4/CapSense_1_CSHL.c ****     return(CapSense_1_negativeNoiseThreshold[widget]);
 888:.\Generated_Source\PSoC4/CapSense_1_CSHL.c **** #else
 889:.\Generated_Source\PSoC4/CapSense_1_CSHL.c ****     return(CapSense_1_NEGATIVE_NOISE_THRESHOLD);
 890:.\Generated_Source\PSoC4/CapSense_1_CSHL.c **** #endif /* (CapSense_1_TUNING_METHOD != CapSense_1__TUNING_NONE) */
 891:.\Generated_Source\PSoC4/CapSense_1_CSHL.c **** }
 892:.\Generated_Source\PSoC4/CapSense_1_CSHL.c **** 
 893:.\Generated_Source\PSoC4/CapSense_1_CSHL.c **** 
 894:.\Generated_Source\PSoC4/CapSense_1_CSHL.c **** #if(CapSense_1_TUNING_METHOD != CapSense_1__TUNING_NONE)
 895:.\Generated_Source\PSoC4/CapSense_1_CSHL.c ****     /*******************************************************************************
 896:.\Generated_Source\PSoC4/CapSense_1_CSHL.c ****     * Function Name: CapSense_1_SetFingerThreshold
 897:.\Generated_Source\PSoC4/CapSense_1_CSHL.c ****     ********************************************************************************
 898:.\Generated_Source\PSoC4/CapSense_1_CSHL.c ****     *
 899:.\Generated_Source\PSoC4/CapSense_1_CSHL.c ****     * Summary:
 900:.\Generated_Source\PSoC4/CapSense_1_CSHL.c ****     *  This API sets the finger threshold value for a widget.
 901:.\Generated_Source\PSoC4/CapSense_1_CSHL.c ****     *
 902:.\Generated_Source\PSoC4/CapSense_1_CSHL.c ****     * Parameters:
 903:.\Generated_Source\PSoC4/CapSense_1_CSHL.c ****     *  sensorNumber:  widget index.
 904:.\Generated_Source\PSoC4/CapSense_1_CSHL.c ****     *  value:  Finger threshold value for the widget.
 905:.\Generated_Source\PSoC4/CapSense_1_CSHL.c ****     *
 906:.\Generated_Source\PSoC4/CapSense_1_CSHL.c ****     * Return Value:
 907:.\Generated_Source\PSoC4/CapSense_1_CSHL.c ****     *  None
 908:.\Generated_Source\PSoC4/CapSense_1_CSHL.c ****     *
 909:.\Generated_Source\PSoC4/CapSense_1_CSHL.c ****     * Global Variables:
 910:.\Generated_Source\PSoC4/CapSense_1_CSHL.c ****     *  CapSense_1_fingerThreshold[] - This array contains the level of signal
 911:.\Generated_Source\PSoC4/CapSense_1_CSHL.c ****     *   for each widget that determines if a finger is present on the widget.
 912:.\Generated_Source\PSoC4/CapSense_1_CSHL.c ****     *
 913:.\Generated_Source\PSoC4/CapSense_1_CSHL.c ****     * Side Effects:
 914:.\Generated_Source\PSoC4/CapSense_1_CSHL.c ****     *  None
 915:.\Generated_Source\PSoC4/CapSense_1_CSHL.c ****     *
 916:.\Generated_Source\PSoC4/CapSense_1_CSHL.c ****     *******************************************************************************/
 917:.\Generated_Source\PSoC4/CapSense_1_CSHL.c ****     void CapSense_1_SetFingerThreshold(uint32 widget, uint8 value)
 918:.\Generated_Source\PSoC4/CapSense_1_CSHL.c ****     {
 919:.\Generated_Source\PSoC4/CapSense_1_CSHL.c ****         CapSense_1_fingerThreshold[widget] = value;
 920:.\Generated_Source\PSoC4/CapSense_1_CSHL.c ****     }
 921:.\Generated_Source\PSoC4/CapSense_1_CSHL.c **** 
 922:.\Generated_Source\PSoC4/CapSense_1_CSHL.c **** 
ARM GAS  C:\Users\syhaines\AppData\Local\Temp\ccFwROm9.s 			page 22


 923:.\Generated_Source\PSoC4/CapSense_1_CSHL.c ****     /*******************************************************************************
 924:.\Generated_Source\PSoC4/CapSense_1_CSHL.c ****     * Function Name: CapSense_1_SetNoiseThreshold
 925:.\Generated_Source\PSoC4/CapSense_1_CSHL.c ****     ********************************************************************************
 926:.\Generated_Source\PSoC4/CapSense_1_CSHL.c ****     *
 927:.\Generated_Source\PSoC4/CapSense_1_CSHL.c ****     * Summary:
 928:.\Generated_Source\PSoC4/CapSense_1_CSHL.c ****     *  This API sets the Noise Threshold value for each widget.
 929:.\Generated_Source\PSoC4/CapSense_1_CSHL.c ****     *
 930:.\Generated_Source\PSoC4/CapSense_1_CSHL.c ****     * Parameters:
 931:.\Generated_Source\PSoC4/CapSense_1_CSHL.c ****     *  widget:  Sensor index number.
 932:.\Generated_Source\PSoC4/CapSense_1_CSHL.c ****     *  value:   Noise Threshold value for widget.
 933:.\Generated_Source\PSoC4/CapSense_1_CSHL.c ****     *
 934:.\Generated_Source\PSoC4/CapSense_1_CSHL.c ****     * Return Value:
 935:.\Generated_Source\PSoC4/CapSense_1_CSHL.c ****     *  None
 936:.\Generated_Source\PSoC4/CapSense_1_CSHL.c ****     *
 937:.\Generated_Source\PSoC4/CapSense_1_CSHL.c ****     * Global Variables:
 938:.\Generated_Source\PSoC4/CapSense_1_CSHL.c ****     *  CapSense_1_noiseThreshold[] - This array contains the level of signal
 939:.\Generated_Source\PSoC4/CapSense_1_CSHL.c ****     *   for each widget that determines the level of noise in the capacitive scan.
 940:.\Generated_Source\PSoC4/CapSense_1_CSHL.c ****     *
 941:.\Generated_Source\PSoC4/CapSense_1_CSHL.c ****     * Side Effects:
 942:.\Generated_Source\PSoC4/CapSense_1_CSHL.c ****     *  None
 943:.\Generated_Source\PSoC4/CapSense_1_CSHL.c ****     *
 944:.\Generated_Source\PSoC4/CapSense_1_CSHL.c ****     *******************************************************************************/
 945:.\Generated_Source\PSoC4/CapSense_1_CSHL.c ****     void CapSense_1_SetNoiseThreshold(uint32 widget, uint8 value)
 946:.\Generated_Source\PSoC4/CapSense_1_CSHL.c ****     {
 947:.\Generated_Source\PSoC4/CapSense_1_CSHL.c ****         CapSense_1_noiseThreshold[widget] = value;
 948:.\Generated_Source\PSoC4/CapSense_1_CSHL.c ****     }
 949:.\Generated_Source\PSoC4/CapSense_1_CSHL.c **** 
 950:.\Generated_Source\PSoC4/CapSense_1_CSHL.c **** 
 951:.\Generated_Source\PSoC4/CapSense_1_CSHL.c ****     /*******************************************************************************
 952:.\Generated_Source\PSoC4/CapSense_1_CSHL.c ****     * Function Name: CapSense_1_SetFingerHysteresis
 953:.\Generated_Source\PSoC4/CapSense_1_CSHL.c ****     ********************************************************************************
 954:.\Generated_Source\PSoC4/CapSense_1_CSHL.c ****     *
 955:.\Generated_Source\PSoC4/CapSense_1_CSHL.c ****     * Summary:
 956:.\Generated_Source\PSoC4/CapSense_1_CSHL.c ****     *  This API sets the Hysteresis value of a widget
 957:.\Generated_Source\PSoC4/CapSense_1_CSHL.c ****     *
 958:.\Generated_Source\PSoC4/CapSense_1_CSHL.c ****     * Parameters:
 959:.\Generated_Source\PSoC4/CapSense_1_CSHL.c ****     *  value:  Hysteresis value for widgets.
 960:.\Generated_Source\PSoC4/CapSense_1_CSHL.c ****     *  widget:  widget number
 961:.\Generated_Source\PSoC4/CapSense_1_CSHL.c ****     *
 962:.\Generated_Source\PSoC4/CapSense_1_CSHL.c ****     * Return Value:
 963:.\Generated_Source\PSoC4/CapSense_1_CSHL.c ****     *  None
 964:.\Generated_Source\PSoC4/CapSense_1_CSHL.c ****     *
 965:.\Generated_Source\PSoC4/CapSense_1_CSHL.c ****     * Global Variables:
 966:.\Generated_Source\PSoC4/CapSense_1_CSHL.c ****     *  CapSense_1_hysteresis[] - This array contains the hysteresis value for each widget.
 967:.\Generated_Source\PSoC4/CapSense_1_CSHL.c ****     *  CapSense_1_widgetNumberSld - structure with dynamic sliders' parameters.
 968:.\Generated_Source\PSoC4/CapSense_1_CSHL.c ****     *
 969:.\Generated_Source\PSoC4/CapSense_1_CSHL.c ****     * Side Effects:
 970:.\Generated_Source\PSoC4/CapSense_1_CSHL.c ****     *  None
 971:.\Generated_Source\PSoC4/CapSense_1_CSHL.c ****     *
 972:.\Generated_Source\PSoC4/CapSense_1_CSHL.c ****     *******************************************************************************/
 973:.\Generated_Source\PSoC4/CapSense_1_CSHL.c ****     void CapSense_1_SetFingerHysteresis(uint32 widget, uint8 value)
 974:.\Generated_Source\PSoC4/CapSense_1_CSHL.c ****     {
 975:.\Generated_Source\PSoC4/CapSense_1_CSHL.c ****         CapSense_1_hysteresis[widget] = value;
 976:.\Generated_Source\PSoC4/CapSense_1_CSHL.c ****     }
 977:.\Generated_Source\PSoC4/CapSense_1_CSHL.c **** 
 978:.\Generated_Source\PSoC4/CapSense_1_CSHL.c **** 
 979:.\Generated_Source\PSoC4/CapSense_1_CSHL.c ****     /*******************************************************************************
ARM GAS  C:\Users\syhaines\AppData\Local\Temp\ccFwROm9.s 			page 23


 980:.\Generated_Source\PSoC4/CapSense_1_CSHL.c ****     * Function Name: CapSense_1_SetNegativeNoiseThreshold
 981:.\Generated_Source\PSoC4/CapSense_1_CSHL.c ****     ********************************************************************************
 982:.\Generated_Source\PSoC4/CapSense_1_CSHL.c ****     *
 983:.\Generated_Source\PSoC4/CapSense_1_CSHL.c ****     * Summary:
 984:.\Generated_Source\PSoC4/CapSense_1_CSHL.c ****     *  This API sets the Negative Noise Threshold value of a widget
 985:.\Generated_Source\PSoC4/CapSense_1_CSHL.c ****     *
 986:.\Generated_Source\PSoC4/CapSense_1_CSHL.c ****     * Parameters:
 987:.\Generated_Source\PSoC4/CapSense_1_CSHL.c ****     *  value:  Negative Noise Threshold value for widgets.
 988:.\Generated_Source\PSoC4/CapSense_1_CSHL.c ****     *  widget: widget number
 989:.\Generated_Source\PSoC4/CapSense_1_CSHL.c ****     *
 990:.\Generated_Source\PSoC4/CapSense_1_CSHL.c ****     * Return Value:
 991:.\Generated_Source\PSoC4/CapSense_1_CSHL.c ****     *  None
 992:.\Generated_Source\PSoC4/CapSense_1_CSHL.c ****     *
 993:.\Generated_Source\PSoC4/CapSense_1_CSHL.c ****     * Global Variables:
 994:.\Generated_Source\PSoC4/CapSense_1_CSHL.c ****     *  CapSense_1_negativeNoiseThreshold  - This parameter specifies the negative
 995:.\Generated_Source\PSoC4/CapSense_1_CSHL.c ****     *   difference between the raw count and baseline levels for Baseline resetting to
 996:.\Generated_Source\PSoC4/CapSense_1_CSHL.c ****     *   the raw count level.
 997:.\Generated_Source\PSoC4/CapSense_1_CSHL.c ****     *
 998:.\Generated_Source\PSoC4/CapSense_1_CSHL.c ****     * Side Effects:
 999:.\Generated_Source\PSoC4/CapSense_1_CSHL.c ****     *  None
1000:.\Generated_Source\PSoC4/CapSense_1_CSHL.c ****     *
1001:.\Generated_Source\PSoC4/CapSense_1_CSHL.c ****     *******************************************************************************/
1002:.\Generated_Source\PSoC4/CapSense_1_CSHL.c ****     void CapSense_1_SetNegativeNoiseThreshold(uint32 widget, uint8 value)
1003:.\Generated_Source\PSoC4/CapSense_1_CSHL.c ****     {
1004:.\Generated_Source\PSoC4/CapSense_1_CSHL.c ****         CapSense_1_negativeNoiseThreshold[widget] = value;
1005:.\Generated_Source\PSoC4/CapSense_1_CSHL.c ****     }
1006:.\Generated_Source\PSoC4/CapSense_1_CSHL.c **** 
1007:.\Generated_Source\PSoC4/CapSense_1_CSHL.c **** 
1008:.\Generated_Source\PSoC4/CapSense_1_CSHL.c ****     /*******************************************************************************
1009:.\Generated_Source\PSoC4/CapSense_1_CSHL.c ****     * Function Name: CapSense_1_SetDebounce
1010:.\Generated_Source\PSoC4/CapSense_1_CSHL.c ****     ********************************************************************************
1011:.\Generated_Source\PSoC4/CapSense_1_CSHL.c ****     *
1012:.\Generated_Source\PSoC4/CapSense_1_CSHL.c ****     * Summary:
1013:.\Generated_Source\PSoC4/CapSense_1_CSHL.c ****     *  This API sets the debounce value for a widget.
1014:.\Generated_Source\PSoC4/CapSense_1_CSHL.c ****     *
1015:.\Generated_Source\PSoC4/CapSense_1_CSHL.c ****     * Parameters:
1016:.\Generated_Source\PSoC4/CapSense_1_CSHL.c ****     *  value:  Debounce value for widget.
1017:.\Generated_Source\PSoC4/CapSense_1_CSHL.c ****     *  widget: widget index.
1018:.\Generated_Source\PSoC4/CapSense_1_CSHL.c ****     *
1019:.\Generated_Source\PSoC4/CapSense_1_CSHL.c ****     * Return Value:
1020:.\Generated_Source\PSoC4/CapSense_1_CSHL.c ****     *  None
1021:.\Generated_Source\PSoC4/CapSense_1_CSHL.c ****     *
1022:.\Generated_Source\PSoC4/CapSense_1_CSHL.c ****     * Global Variables:
1023:.\Generated_Source\PSoC4/CapSense_1_CSHL.c ****     *  CapSense_1_debounce[] - This array contains the debounce value for each widget.
1024:.\Generated_Source\PSoC4/CapSense_1_CSHL.c ****     *  CapSense_1_widgetNumberSld - structure with dynamic sliders' parameters.
1025:.\Generated_Source\PSoC4/CapSense_1_CSHL.c ****     *
1026:.\Generated_Source\PSoC4/CapSense_1_CSHL.c ****     * Side Effects:
1027:.\Generated_Source\PSoC4/CapSense_1_CSHL.c ****     *  None
1028:.\Generated_Source\PSoC4/CapSense_1_CSHL.c ****     *
1029:.\Generated_Source\PSoC4/CapSense_1_CSHL.c ****     *******************************************************************************/
1030:.\Generated_Source\PSoC4/CapSense_1_CSHL.c ****     void CapSense_1_SetDebounce(uint32 widget, uint8 value)
1031:.\Generated_Source\PSoC4/CapSense_1_CSHL.c ****     {
1032:.\Generated_Source\PSoC4/CapSense_1_CSHL.c ****         CapSense_1_debounce[widget] = value;
1033:.\Generated_Source\PSoC4/CapSense_1_CSHL.c ****     }
1034:.\Generated_Source\PSoC4/CapSense_1_CSHL.c **** 
1035:.\Generated_Source\PSoC4/CapSense_1_CSHL.c **** 
1036:.\Generated_Source\PSoC4/CapSense_1_CSHL.c ****     /*******************************************************************************
ARM GAS  C:\Users\syhaines\AppData\Local\Temp\ccFwROm9.s 			page 24


1037:.\Generated_Source\PSoC4/CapSense_1_CSHL.c ****     * Function Name: CapSense_1_SetLowBaselineReset
1038:.\Generated_Source\PSoC4/CapSense_1_CSHL.c ****     ********************************************************************************
1039:.\Generated_Source\PSoC4/CapSense_1_CSHL.c ****     *
1040:.\Generated_Source\PSoC4/CapSense_1_CSHL.c ****     * Summary:
1041:.\Generated_Source\PSoC4/CapSense_1_CSHL.c ****     *  This API sets the low baseline reset threshold value for the sensor.
1042:.\Generated_Source\PSoC4/CapSense_1_CSHL.c ****     *
1043:.\Generated_Source\PSoC4/CapSense_1_CSHL.c ****     * Parameters:
1044:.\Generated_Source\PSoC4/CapSense_1_CSHL.c ****     *  value: low baseline reset threshold value.
1045:.\Generated_Source\PSoC4/CapSense_1_CSHL.c ****     *  sensor: Sensor index.
1046:.\Generated_Source\PSoC4/CapSense_1_CSHL.c ****     *
1047:.\Generated_Source\PSoC4/CapSense_1_CSHL.c ****     * Return Value:
1048:.\Generated_Source\PSoC4/CapSense_1_CSHL.c ****     *  None
1049:.\Generated_Source\PSoC4/CapSense_1_CSHL.c ****     *
1050:.\Generated_Source\PSoC4/CapSense_1_CSHL.c ****     * Global Variables:
1051:.\Generated_Source\PSoC4/CapSense_1_CSHL.c ****     *  CapSense_1_lowBaselineReset[] - This array contains the Baseline update
1052:.\Generated_Source\PSoC4/CapSense_1_CSHL.c ****     *  threshold value for each sensor.
1053:.\Generated_Source\PSoC4/CapSense_1_CSHL.c ****     *
1054:.\Generated_Source\PSoC4/CapSense_1_CSHL.c ****     * Side Effects:
1055:.\Generated_Source\PSoC4/CapSense_1_CSHL.c ****     *  None
1056:.\Generated_Source\PSoC4/CapSense_1_CSHL.c ****     *
1057:.\Generated_Source\PSoC4/CapSense_1_CSHL.c ****     *******************************************************************************/
1058:.\Generated_Source\PSoC4/CapSense_1_CSHL.c ****     void CapSense_1_SetLowBaselineReset(uint32 sensor, uint8 value)
1059:.\Generated_Source\PSoC4/CapSense_1_CSHL.c ****     {
1060:.\Generated_Source\PSoC4/CapSense_1_CSHL.c ****         CapSense_1_lowBaselineReset[sensor] = value;
1061:.\Generated_Source\PSoC4/CapSense_1_CSHL.c ****     }
1062:.\Generated_Source\PSoC4/CapSense_1_CSHL.c **** #endif /* (CapSense_1_TUNING_METHOD != CapSense_1__TUNING_NONE) */
1063:.\Generated_Source\PSoC4/CapSense_1_CSHL.c **** 
1064:.\Generated_Source\PSoC4/CapSense_1_CSHL.c **** 
1065:.\Generated_Source\PSoC4/CapSense_1_CSHL.c **** /*******************************************************************************
1066:.\Generated_Source\PSoC4/CapSense_1_CSHL.c **** * Function Name: CapSense_1_CheckIsSensorActive
1067:.\Generated_Source\PSoC4/CapSense_1_CSHL.c **** ********************************************************************************
1068:.\Generated_Source\PSoC4/CapSense_1_CSHL.c **** *
1069:.\Generated_Source\PSoC4/CapSense_1_CSHL.c **** * Summary:
1070:.\Generated_Source\PSoC4/CapSense_1_CSHL.c **** *  Compares the CapSense_1_sensorSignal[sensor] array element to the finger
1071:.\Generated_Source\PSoC4/CapSense_1_CSHL.c **** *  threshold of the widget it belongs to. The hysteresis and debounce are taken into
1072:.\Generated_Source\PSoC4/CapSense_1_CSHL.c **** *  account. The hysteresis is added or subtracted from the finger threshold
1073:.\Generated_Source\PSoC4/CapSense_1_CSHL.c **** *  based on whether the sensor is currently active.
1074:.\Generated_Source\PSoC4/CapSense_1_CSHL.c **** *  If the sensor is active, the threshold is lowered by the hysteresis amount.
1075:.\Generated_Source\PSoC4/CapSense_1_CSHL.c **** *  If the sensor is inactive, the threshold is raised by the hysteresis amount.
1076:.\Generated_Source\PSoC4/CapSense_1_CSHL.c **** *  The debounce counter is added to the sensor active transition.
1077:.\Generated_Source\PSoC4/CapSense_1_CSHL.c **** *  This function updates the CapSense_1_sensorOnMask[] array element.
1078:.\Generated_Source\PSoC4/CapSense_1_CSHL.c **** *
1079:.\Generated_Source\PSoC4/CapSense_1_CSHL.c **** * Parameters:
1080:.\Generated_Source\PSoC4/CapSense_1_CSHL.c **** *  sensor:  Sensor number.
1081:.\Generated_Source\PSoC4/CapSense_1_CSHL.c **** *
1082:.\Generated_Source\PSoC4/CapSense_1_CSHL.c **** * Return:
1083:.\Generated_Source\PSoC4/CapSense_1_CSHL.c **** *  Returns sensor state 1 if active, 0 if not active.
1084:.\Generated_Source\PSoC4/CapSense_1_CSHL.c **** *
1085:.\Generated_Source\PSoC4/CapSense_1_CSHL.c **** * Global Variables:
1086:.\Generated_Source\PSoC4/CapSense_1_CSHL.c **** *  CapSense_1_sensorSignal[] - used to store the difference between
1087:.\Generated_Source\PSoC4/CapSense_1_CSHL.c **** *  the current value of raw data and a previous value of the baseline.
1088:.\Generated_Source\PSoC4/CapSense_1_CSHL.c **** *  CapSense_1_debounceCounter[]   - used to store the current debounce
1089:.\Generated_Source\PSoC4/CapSense_1_CSHL.c **** *  counter of the sensor. the widget which have this parameter are buttons, matrix
1090:.\Generated_Source\PSoC4/CapSense_1_CSHL.c **** *  buttons, proximity, and guard. All other widgets don't have the  debounce parameter
1091:.\Generated_Source\PSoC4/CapSense_1_CSHL.c **** *  and use the last element of this array with value 0 (it means no debounce).
1092:.\Generated_Source\PSoC4/CapSense_1_CSHL.c **** *  CapSense_1_sensorOnMask[] - used to store the sensors on/off state.
1093:.\Generated_Source\PSoC4/CapSense_1_CSHL.c **** *  CapSense_1_sensorOnMask[0] contains the masked bits for sensors
ARM GAS  C:\Users\syhaines\AppData\Local\Temp\ccFwROm9.s 			page 25


1094:.\Generated_Source\PSoC4/CapSense_1_CSHL.c **** *   0 through 7 (sensor 0 is bit 0, sensor 1 is bit 1).
1095:.\Generated_Source\PSoC4/CapSense_1_CSHL.c **** *  CapSense_1_sensorEnableMask[1] contains the masked bits for
1096:.\Generated_Source\PSoC4/CapSense_1_CSHL.c **** *  sensors 8 through 15 (if needed), and so on.
1097:.\Generated_Source\PSoC4/CapSense_1_CSHL.c **** *  0 - sensor is inactive.
1098:.\Generated_Source\PSoC4/CapSense_1_CSHL.c **** *  1 - sensor is active.
1099:.\Generated_Source\PSoC4/CapSense_1_CSHL.c **** *
1100:.\Generated_Source\PSoC4/CapSense_1_CSHL.c **** * Side Effects:
1101:.\Generated_Source\PSoC4/CapSense_1_CSHL.c **** *  None
1102:.\Generated_Source\PSoC4/CapSense_1_CSHL.c **** *
1103:.\Generated_Source\PSoC4/CapSense_1_CSHL.c **** *******************************************************************************/
1104:.\Generated_Source\PSoC4/CapSense_1_CSHL.c **** uint32 CapSense_1_CheckIsSensorActive(uint32 sensor)
1105:.\Generated_Source\PSoC4/CapSense_1_CSHL.c **** {
1106:.\Generated_Source\PSoC4/CapSense_1_CSHL.c ****     uint8 widget;
1107:.\Generated_Source\PSoC4/CapSense_1_CSHL.c ****     uint8 debounce;
1108:.\Generated_Source\PSoC4/CapSense_1_CSHL.c ****     uint8 debounceIndex;
1109:.\Generated_Source\PSoC4/CapSense_1_CSHL.c **** 
1110:.\Generated_Source\PSoC4/CapSense_1_CSHL.c ****     uint8 fingerThreshold;
1111:.\Generated_Source\PSoC4/CapSense_1_CSHL.c ****     uint8 hysteresis;
1112:.\Generated_Source\PSoC4/CapSense_1_CSHL.c ****     
1113:.\Generated_Source\PSoC4/CapSense_1_CSHL.c **** 
1114:.\Generated_Source\PSoC4/CapSense_1_CSHL.c ****     /* Prepare to find debounce counter index */
1115:.\Generated_Source\PSoC4/CapSense_1_CSHL.c ****     widget = CapSense_1_widgetNumber[sensor];
1116:.\Generated_Source\PSoC4/CapSense_1_CSHL.c **** 
1117:.\Generated_Source\PSoC4/CapSense_1_CSHL.c ****     fingerThreshold = CapSense_1_fingerThreshold[widget];
1118:.\Generated_Source\PSoC4/CapSense_1_CSHL.c ****     hysteresis = CapSense_1_hysteresis[widget];
1119:.\Generated_Source\PSoC4/CapSense_1_CSHL.c ****     debounce = CapSense_1_debounce[widget];
1120:.\Generated_Source\PSoC4/CapSense_1_CSHL.c **** 
1121:.\Generated_Source\PSoC4/CapSense_1_CSHL.c ****         debounceIndex = widget;
1122:.\Generated_Source\PSoC4/CapSense_1_CSHL.c **** 
1123:.\Generated_Source\PSoC4/CapSense_1_CSHL.c **** 
1124:.\Generated_Source\PSoC4/CapSense_1_CSHL.c ****     /* Was on */
1125:.\Generated_Source\PSoC4/CapSense_1_CSHL.c ****     if (0u != CapSense_1_GetBitValue(CapSense_1_sensorOnMask, sensor))
1126:.\Generated_Source\PSoC4/CapSense_1_CSHL.c ****     {
1127:.\Generated_Source\PSoC4/CapSense_1_CSHL.c ****         /* Hysteresis minus */
1128:.\Generated_Source\PSoC4/CapSense_1_CSHL.c ****         if (CapSense_1_sensorSignal[sensor] < (fingerThreshold - hysteresis))
1129:.\Generated_Source\PSoC4/CapSense_1_CSHL.c ****         {
1130:.\Generated_Source\PSoC4/CapSense_1_CSHL.c ****             CapSense_1_SetBitValue(CapSense_1_sensorOnMask, sensor, 0u);
1131:.\Generated_Source\PSoC4/CapSense_1_CSHL.c ****             /* Sensor inactive - reset Debounce counter */
1132:.\Generated_Source\PSoC4/CapSense_1_CSHL.c ****             CapSense_1_debounceCounter[debounceIndex] = debounce;
1133:.\Generated_Source\PSoC4/CapSense_1_CSHL.c ****         }
1134:.\Generated_Source\PSoC4/CapSense_1_CSHL.c ****     }
1135:.\Generated_Source\PSoC4/CapSense_1_CSHL.c ****     else    /* Was off */
1136:.\Generated_Source\PSoC4/CapSense_1_CSHL.c ****     {
1137:.\Generated_Source\PSoC4/CapSense_1_CSHL.c ****         /* Hysteresis plus */
1138:.\Generated_Source\PSoC4/CapSense_1_CSHL.c ****         if (CapSense_1_sensorSignal[sensor] >= (fingerThreshold + hysteresis))
1139:.\Generated_Source\PSoC4/CapSense_1_CSHL.c ****         {
1140:.\Generated_Source\PSoC4/CapSense_1_CSHL.c ****             CapSense_1_debounceCounter[debounceIndex]--;
1141:.\Generated_Source\PSoC4/CapSense_1_CSHL.c ****             /* Sensor active, decrement debounce counter */
1142:.\Generated_Source\PSoC4/CapSense_1_CSHL.c ****             if(CapSense_1_debounceCounter[debounceIndex] == 0u)
1143:.\Generated_Source\PSoC4/CapSense_1_CSHL.c ****             {
1144:.\Generated_Source\PSoC4/CapSense_1_CSHL.c ****                 CapSense_1_SetBitValue(CapSense_1_sensorOnMask, sensor, 1u);
1145:.\Generated_Source\PSoC4/CapSense_1_CSHL.c ****             }
1146:.\Generated_Source\PSoC4/CapSense_1_CSHL.c ****         }
1147:.\Generated_Source\PSoC4/CapSense_1_CSHL.c ****         else
1148:.\Generated_Source\PSoC4/CapSense_1_CSHL.c ****         {
1149:.\Generated_Source\PSoC4/CapSense_1_CSHL.c ****             /* Sensor inactive - reset Debounce counter */
1150:.\Generated_Source\PSoC4/CapSense_1_CSHL.c ****             CapSense_1_debounceCounter[debounceIndex] = debounce;
ARM GAS  C:\Users\syhaines\AppData\Local\Temp\ccFwROm9.s 			page 26


1151:.\Generated_Source\PSoC4/CapSense_1_CSHL.c ****         }
1152:.\Generated_Source\PSoC4/CapSense_1_CSHL.c ****     }
1153:.\Generated_Source\PSoC4/CapSense_1_CSHL.c **** 
1154:.\Generated_Source\PSoC4/CapSense_1_CSHL.c ****     return ((uint32)((0u != CapSense_1_GetBitValue(CapSense_1_sensorOnMask, sensor)) ? 1u : 0u));
1155:.\Generated_Source\PSoC4/CapSense_1_CSHL.c **** }
1156:.\Generated_Source\PSoC4/CapSense_1_CSHL.c **** 
1157:.\Generated_Source\PSoC4/CapSense_1_CSHL.c **** 
1158:.\Generated_Source\PSoC4/CapSense_1_CSHL.c **** /*******************************************************************************
1159:.\Generated_Source\PSoC4/CapSense_1_CSHL.c **** * Function Name: CapSense_1_CheckIsWidgetActive
1160:.\Generated_Source\PSoC4/CapSense_1_CSHL.c **** ********************************************************************************
1161:.\Generated_Source\PSoC4/CapSense_1_CSHL.c **** *
1162:.\Generated_Source\PSoC4/CapSense_1_CSHL.c **** * Summary:
1163:.\Generated_Source\PSoC4/CapSense_1_CSHL.c **** *  Compares the CapSense_sensorSignal[] array element to the finger threshold of
1164:.\Generated_Source\PSoC4/CapSense_1_CSHL.c **** * the widget it belongs to. The hysteresis and debounce are taken into account.
1165:.\Generated_Source\PSoC4/CapSense_1_CSHL.c **** * The hysteresis is added or subtracted from the finger threshold based on whether
1166:.\Generated_Source\PSoC4/CapSense_1_CSHL.c **** *  the sensor is currently active. If the sensor is active, the threshold is
1167:.\Generated_Source\PSoC4/CapSense_1_CSHL.c **** *  lowered by the hysteresis amount. If the sensor is inactive, the threshold
1168:.\Generated_Source\PSoC4/CapSense_1_CSHL.c **** *  is raised by the hysteresis amount.
1169:.\Generated_Source\PSoC4/CapSense_1_CSHL.c **** * The debounce counter added to the sensor active transition.
1170:.\Generated_Source\PSoC4/CapSense_1_CSHL.c **** * This function updates CapSense_sensorOnMask[] array element
1171:.\Generated_Source\PSoC4/CapSense_1_CSHL.c **** *
1172:.\Generated_Source\PSoC4/CapSense_1_CSHL.c **** * Parameters:
1173:.\Generated_Source\PSoC4/CapSense_1_CSHL.c **** *  widget:  widget number.
1174:.\Generated_Source\PSoC4/CapSense_1_CSHL.c **** *
1175:.\Generated_Source\PSoC4/CapSense_1_CSHL.c **** * Return:
1176:.\Generated_Source\PSoC4/CapSense_1_CSHL.c **** *  Returns widget sensor state 1 if one or more sensors within widget is/are
1177:.\Generated_Source\PSoC4/CapSense_1_CSHL.c **** *  active, 0 if all sensors within widget are inactive.
1178:.\Generated_Source\PSoC4/CapSense_1_CSHL.c **** *
1179:.\Generated_Source\PSoC4/CapSense_1_CSHL.c **** * Global Variables:
1180:.\Generated_Source\PSoC4/CapSense_1_CSHL.c **** *  rawDataIndex[]: Contains the  1st sensor position in the widget
1181:.\Generated_Source\PSoC4/CapSense_1_CSHL.c **** *
1182:.\Generated_Source\PSoC4/CapSense_1_CSHL.c **** * Side Effects:
1183:.\Generated_Source\PSoC4/CapSense_1_CSHL.c **** *  None
1184:.\Generated_Source\PSoC4/CapSense_1_CSHL.c **** *
1185:.\Generated_Source\PSoC4/CapSense_1_CSHL.c **** *******************************************************************************/
1186:.\Generated_Source\PSoC4/CapSense_1_CSHL.c **** uint32 CapSense_1_CheckIsWidgetActive(uint32 widget)
1187:.\Generated_Source\PSoC4/CapSense_1_CSHL.c **** {
1188:.\Generated_Source\PSoC4/CapSense_1_CSHL.c ****     uint32 rawIndex = (uint32)CapSense_1_rawDataIndex[widget];
1189:.\Generated_Source\PSoC4/CapSense_1_CSHL.c ****     uint32 numOfSensors = (uint32)CapSense_1_numberOfSensors[widget] + rawIndex;
1190:.\Generated_Source\PSoC4/CapSense_1_CSHL.c ****     uint32 state = 0u;
1191:.\Generated_Source\PSoC4/CapSense_1_CSHL.c **** 
1192:.\Generated_Source\PSoC4/CapSense_1_CSHL.c ****     /* Check all sensors of widget */
1193:.\Generated_Source\PSoC4/CapSense_1_CSHL.c ****     do
1194:.\Generated_Source\PSoC4/CapSense_1_CSHL.c ****     {
1195:.\Generated_Source\PSoC4/CapSense_1_CSHL.c ****         if(CapSense_1_CheckIsSensorActive((uint32)rawIndex) != 0u)
1196:.\Generated_Source\PSoC4/CapSense_1_CSHL.c ****         {
1197:.\Generated_Source\PSoC4/CapSense_1_CSHL.c ****             state = CapSense_1_SENSOR_IS_ACTIVE;
1198:.\Generated_Source\PSoC4/CapSense_1_CSHL.c ****         }
1199:.\Generated_Source\PSoC4/CapSense_1_CSHL.c ****         rawIndex++;
1200:.\Generated_Source\PSoC4/CapSense_1_CSHL.c ****     }
1201:.\Generated_Source\PSoC4/CapSense_1_CSHL.c ****     while(rawIndex < numOfSensors);
1202:.\Generated_Source\PSoC4/CapSense_1_CSHL.c **** 
1203:.\Generated_Source\PSoC4/CapSense_1_CSHL.c **** 
1204:.\Generated_Source\PSoC4/CapSense_1_CSHL.c **** 
1205:.\Generated_Source\PSoC4/CapSense_1_CSHL.c ****     return state;
1206:.\Generated_Source\PSoC4/CapSense_1_CSHL.c **** }
1207:.\Generated_Source\PSoC4/CapSense_1_CSHL.c **** 
ARM GAS  C:\Users\syhaines\AppData\Local\Temp\ccFwROm9.s 			page 27


1208:.\Generated_Source\PSoC4/CapSense_1_CSHL.c **** 
1209:.\Generated_Source\PSoC4/CapSense_1_CSHL.c **** /*******************************************************************************
1210:.\Generated_Source\PSoC4/CapSense_1_CSHL.c **** * Function Name: CapSense_1_CheckIsAnyWidgetActive
1211:.\Generated_Source\PSoC4/CapSense_1_CSHL.c **** ********************************************************************************
1212:.\Generated_Source\PSoC4/CapSense_1_CSHL.c **** *
1213:.\Generated_Source\PSoC4/CapSense_1_CSHL.c **** * Summary:
1214:.\Generated_Source\PSoC4/CapSense_1_CSHL.c **** *  Compares all the sensors of the CapSense_1_Signal[] array to their finger
1215:.\Generated_Source\PSoC4/CapSense_1_CSHL.c **** *  threshold. Calls CapSense_1_CheckIsWidgetActive() for each widget so
1216:.\Generated_Source\PSoC4/CapSense_1_CSHL.c **** *  the CapSense_1_sensorOnMask[] array is up to date after calling this
1217:.\Generated_Source\PSoC4/CapSense_1_CSHL.c **** *  function.
1218:.\Generated_Source\PSoC4/CapSense_1_CSHL.c **** *
1219:.\Generated_Source\PSoC4/CapSense_1_CSHL.c **** * Parameters:
1220:.\Generated_Source\PSoC4/CapSense_1_CSHL.c **** *  widget:  widget number.
1221:.\Generated_Source\PSoC4/CapSense_1_CSHL.c **** *
1222:.\Generated_Source\PSoC4/CapSense_1_CSHL.c **** * Return:
1223:.\Generated_Source\PSoC4/CapSense_1_CSHL.c **** *  Returns 1 if any widget is active, 0 none of widgets are active.
1224:.\Generated_Source\PSoC4/CapSense_1_CSHL.c **** *
1225:.\Generated_Source\PSoC4/CapSense_1_CSHL.c **** * Global Variables:
1226:.\Generated_Source\PSoC4/CapSense_1_CSHL.c **** *  None
1227:.\Generated_Source\PSoC4/CapSense_1_CSHL.c **** *
1228:.\Generated_Source\PSoC4/CapSense_1_CSHL.c **** * Side Effects:
1229:.\Generated_Source\PSoC4/CapSense_1_CSHL.c **** *  None
1230:.\Generated_Source\PSoC4/CapSense_1_CSHL.c **** *
1231:.\Generated_Source\PSoC4/CapSense_1_CSHL.c **** *******************************************************************************/
1232:.\Generated_Source\PSoC4/CapSense_1_CSHL.c **** uint32 CapSense_1_CheckIsAnyWidgetActive(void)
1233:.\Generated_Source\PSoC4/CapSense_1_CSHL.c **** {
1234:.\Generated_Source\PSoC4/CapSense_1_CSHL.c **** 
1235:.\Generated_Source\PSoC4/CapSense_1_CSHL.c ****         uint32 i;
1236:.\Generated_Source\PSoC4/CapSense_1_CSHL.c ****     uint32 state = 0u;
1237:.\Generated_Source\PSoC4/CapSense_1_CSHL.c ****     
1238:.\Generated_Source\PSoC4/CapSense_1_CSHL.c ****     for(i = 0u; i < CapSense_1_TOTAL_WIDGET_COUNT; i++)
1239:.\Generated_Source\PSoC4/CapSense_1_CSHL.c ****     {
1240:.\Generated_Source\PSoC4/CapSense_1_CSHL.c ****         if (CapSense_1_CheckIsWidgetActive(i) != 0u)
1241:.\Generated_Source\PSoC4/CapSense_1_CSHL.c ****         {
1242:.\Generated_Source\PSoC4/CapSense_1_CSHL.c ****             state = CapSense_1_WIDGET_IS_ACTIVE;
1243:.\Generated_Source\PSoC4/CapSense_1_CSHL.c ****         }
1244:.\Generated_Source\PSoC4/CapSense_1_CSHL.c ****     }
1245:.\Generated_Source\PSoC4/CapSense_1_CSHL.c ****     
1246:.\Generated_Source\PSoC4/CapSense_1_CSHL.c **** 
1247:.\Generated_Source\PSoC4/CapSense_1_CSHL.c **** 
1248:.\Generated_Source\PSoC4/CapSense_1_CSHL.c ****     return state;
1249:.\Generated_Source\PSoC4/CapSense_1_CSHL.c **** }
1250:.\Generated_Source\PSoC4/CapSense_1_CSHL.c **** 
1251:.\Generated_Source\PSoC4/CapSense_1_CSHL.c **** 
1252:.\Generated_Source\PSoC4/CapSense_1_CSHL.c **** /*******************************************************************************
1253:.\Generated_Source\PSoC4/CapSense_1_CSHL.c **** * Function Name: CapSense_1_EnableWidget
1254:.\Generated_Source\PSoC4/CapSense_1_CSHL.c **** ********************************************************************************
1255:.\Generated_Source\PSoC4/CapSense_1_CSHL.c **** *
1256:.\Generated_Source\PSoC4/CapSense_1_CSHL.c **** * Summary:
1257:.\Generated_Source\PSoC4/CapSense_1_CSHL.c **** *  Enables all the widget elements (sensors) to the scanning process.
1258:.\Generated_Source\PSoC4/CapSense_1_CSHL.c **** *
1259:.\Generated_Source\PSoC4/CapSense_1_CSHL.c **** * Parameters:
1260:.\Generated_Source\PSoC4/CapSense_1_CSHL.c **** *  widget:  widget number.
1261:.\Generated_Source\PSoC4/CapSense_1_CSHL.c **** *
1262:.\Generated_Source\PSoC4/CapSense_1_CSHL.c **** * Return:
1263:.\Generated_Source\PSoC4/CapSense_1_CSHL.c **** *  None
1264:.\Generated_Source\PSoC4/CapSense_1_CSHL.c **** *
ARM GAS  C:\Users\syhaines\AppData\Local\Temp\ccFwROm9.s 			page 28


1265:.\Generated_Source\PSoC4/CapSense_1_CSHL.c **** * Global Variables:
1266:.\Generated_Source\PSoC4/CapSense_1_CSHL.c **** *  CapSense_1_sensorEnableMask[] - used to store the sensor scanning
1267:.\Generated_Source\PSoC4/CapSense_1_CSHL.c **** *  state.
1268:.\Generated_Source\PSoC4/CapSense_1_CSHL.c **** *  CapSense_1_sensorEnableMask[0] contains the masked bits for sensors
1269:.\Generated_Source\PSoC4/CapSense_1_CSHL.c **** *  0 through 7 (sensor 0 is bit 0, sensor 1 is bit 1).
1270:.\Generated_Source\PSoC4/CapSense_1_CSHL.c **** *  CapSense_1_sensorEnableMask[1] contains the masked bits for
1271:.\Generated_Source\PSoC4/CapSense_1_CSHL.c **** *  sensors 8 through 15 (if needed), and so on.
1272:.\Generated_Source\PSoC4/CapSense_1_CSHL.c **** *  0 - sensor doesn't scan by CapSense_1_ScanEnabledWidgets().
1273:.\Generated_Source\PSoC4/CapSense_1_CSHL.c **** *  1 - sensor scans by CapSense_1_ScanEnabledWidgets().
1274:.\Generated_Source\PSoC4/CapSense_1_CSHL.c **** *
1275:.\Generated_Source\PSoC4/CapSense_1_CSHL.c **** * Side Effects:
1276:.\Generated_Source\PSoC4/CapSense_1_CSHL.c **** *  None
1277:.\Generated_Source\PSoC4/CapSense_1_CSHL.c **** *
1278:.\Generated_Source\PSoC4/CapSense_1_CSHL.c **** *******************************************************************************/
1279:.\Generated_Source\PSoC4/CapSense_1_CSHL.c **** void CapSense_1_EnableWidget(uint32 widget)
1280:.\Generated_Source\PSoC4/CapSense_1_CSHL.c **** {
1281:.\Generated_Source\PSoC4/CapSense_1_CSHL.c **** 
1282:.\Generated_Source\PSoC4/CapSense_1_CSHL.c ****     uint8 rawIndex = CapSense_1_rawDataIndex[widget];
1283:.\Generated_Source\PSoC4/CapSense_1_CSHL.c ****     uint8 numOfSensors = CapSense_1_numberOfSensors[widget] + rawIndex;
1284:.\Generated_Source\PSoC4/CapSense_1_CSHL.c **** 
1285:.\Generated_Source\PSoC4/CapSense_1_CSHL.c ****     /* Enable all sensors of widget */
1286:.\Generated_Source\PSoC4/CapSense_1_CSHL.c ****     do
1287:.\Generated_Source\PSoC4/CapSense_1_CSHL.c ****     {
1288:.\Generated_Source\PSoC4/CapSense_1_CSHL.c ****         CapSense_1_SetBitValue(CapSense_1_sensorEnableMask, (uint32)rawIndex, 1u);
1289:.\Generated_Source\PSoC4/CapSense_1_CSHL.c ****         rawIndex++;
1290:.\Generated_Source\PSoC4/CapSense_1_CSHL.c ****     }
1291:.\Generated_Source\PSoC4/CapSense_1_CSHL.c ****     while(rawIndex < numOfSensors);
1292:.\Generated_Source\PSoC4/CapSense_1_CSHL.c **** }
1293:.\Generated_Source\PSoC4/CapSense_1_CSHL.c **** 
1294:.\Generated_Source\PSoC4/CapSense_1_CSHL.c **** 
1295:.\Generated_Source\PSoC4/CapSense_1_CSHL.c **** /*******************************************************************************
1296:.\Generated_Source\PSoC4/CapSense_1_CSHL.c **** * Function Name: CapSense_1_DisableWidget
1297:.\Generated_Source\PSoC4/CapSense_1_CSHL.c **** ********************************************************************************
1298:.\Generated_Source\PSoC4/CapSense_1_CSHL.c **** *
1299:.\Generated_Source\PSoC4/CapSense_1_CSHL.c **** * Summary:
1300:.\Generated_Source\PSoC4/CapSense_1_CSHL.c **** *  Disables all the widget elements (sensors) from the scanning process.
1301:.\Generated_Source\PSoC4/CapSense_1_CSHL.c **** *
1302:.\Generated_Source\PSoC4/CapSense_1_CSHL.c **** * Parameters:
1303:.\Generated_Source\PSoC4/CapSense_1_CSHL.c **** *  widget:  widget number.
1304:.\Generated_Source\PSoC4/CapSense_1_CSHL.c **** *
1305:.\Generated_Source\PSoC4/CapSense_1_CSHL.c **** * Return:
1306:.\Generated_Source\PSoC4/CapSense_1_CSHL.c **** *  None
1307:.\Generated_Source\PSoC4/CapSense_1_CSHL.c **** *
1308:.\Generated_Source\PSoC4/CapSense_1_CSHL.c **** * Global Variables:
1309:.\Generated_Source\PSoC4/CapSense_1_CSHL.c **** *  CapSense_1_sensorEnableMask[] - used to store the sensor scanning
1310:.\Generated_Source\PSoC4/CapSense_1_CSHL.c **** *  state.
1311:.\Generated_Source\PSoC4/CapSense_1_CSHL.c **** *  CapSense_1_sensorEnableMask[0] contains the masked bits for sensors
1312:.\Generated_Source\PSoC4/CapSense_1_CSHL.c **** *  0 through 7 (sensor 0 is bit 0, sensor 1 is bit 1).
1313:.\Generated_Source\PSoC4/CapSense_1_CSHL.c **** *  CapSense_1_sensorEnableMask[1] contains the masked bits for
1314:.\Generated_Source\PSoC4/CapSense_1_CSHL.c **** *  sensors 8 through 15 (if needed), and so on.
1315:.\Generated_Source\PSoC4/CapSense_1_CSHL.c **** *  0 - sensor isn't scanned by CapSense_1_ScanEnabledWidgets().
1316:.\Generated_Source\PSoC4/CapSense_1_CSHL.c **** *  1 - sensor is scanned by CapSense_1_ScanEnabledWidgets().
1317:.\Generated_Source\PSoC4/CapSense_1_CSHL.c **** *
1318:.\Generated_Source\PSoC4/CapSense_1_CSHL.c **** * Side Effects:
1319:.\Generated_Source\PSoC4/CapSense_1_CSHL.c **** *  None
1320:.\Generated_Source\PSoC4/CapSense_1_CSHL.c **** *
1321:.\Generated_Source\PSoC4/CapSense_1_CSHL.c **** *******************************************************************************/
ARM GAS  C:\Users\syhaines\AppData\Local\Temp\ccFwROm9.s 			page 29


1322:.\Generated_Source\PSoC4/CapSense_1_CSHL.c **** void CapSense_1_DisableWidget(uint32 widget)
1323:.\Generated_Source\PSoC4/CapSense_1_CSHL.c **** {
1324:.\Generated_Source\PSoC4/CapSense_1_CSHL.c ****     uint8 rawIndex = CapSense_1_rawDataIndex[widget];
1325:.\Generated_Source\PSoC4/CapSense_1_CSHL.c ****     uint8 numOfSensors = CapSense_1_numberOfSensors[widget] + rawIndex;
1326:.\Generated_Source\PSoC4/CapSense_1_CSHL.c **** 
1327:.\Generated_Source\PSoC4/CapSense_1_CSHL.c ****     /* Disable all sensors of widget */
1328:.\Generated_Source\PSoC4/CapSense_1_CSHL.c ****     do
1329:.\Generated_Source\PSoC4/CapSense_1_CSHL.c ****     {
1330:.\Generated_Source\PSoC4/CapSense_1_CSHL.c **** 
1331:.\Generated_Source\PSoC4/CapSense_1_CSHL.c ****         CapSense_1_SetBitValue(CapSense_1_sensorEnableMask, (uint32)rawIndex, 0u);
1332:.\Generated_Source\PSoC4/CapSense_1_CSHL.c ****         rawIndex++;
1333:.\Generated_Source\PSoC4/CapSense_1_CSHL.c ****     }
1334:.\Generated_Source\PSoC4/CapSense_1_CSHL.c ****     while(rawIndex < numOfSensors);
1335:.\Generated_Source\PSoC4/CapSense_1_CSHL.c **** }
1336:.\Generated_Source\PSoC4/CapSense_1_CSHL.c **** 
1337:.\Generated_Source\PSoC4/CapSense_1_CSHL.c **** 
1338:.\Generated_Source\PSoC4/CapSense_1_CSHL.c **** #if(CapSense_1_TOTAL_CENTROIDS_BASIC_COUNT)
1339:.\Generated_Source\PSoC4/CapSense_1_CSHL.c ****     /*******************************************************************************
1340:.\Generated_Source\PSoC4/CapSense_1_CSHL.c ****     * Function Name: CapSense_1_FindMaximum
1341:.\Generated_Source\PSoC4/CapSense_1_CSHL.c ****     ********************************************************************************
1342:.\Generated_Source\PSoC4/CapSense_1_CSHL.c ****     *
1343:.\Generated_Source\PSoC4/CapSense_1_CSHL.c ****     * Summary:
1344:.\Generated_Source\PSoC4/CapSense_1_CSHL.c ****     *  Finds the index of the maximum element within a defined centroid. Checks
1345:.\Generated_Source\PSoC4/CapSense_1_CSHL.c ****     *  CapSense_1_sensorSignal[] within a defined centroid and
1346:.\Generated_Source\PSoC4/CapSense_1_CSHL.c ****     *  returns the index of the maximum element. The values below the finger threshold are
1347:.\Generated_Source\PSoC4/CapSense_1_CSHL.c ****     *  ignored.
1348:.\Generated_Source\PSoC4/CapSense_1_CSHL.c ****     *  The centroid is defined by offset of the first element and a number of elements - count.
1349:.\Generated_Source\PSoC4/CapSense_1_CSHL.c ****     *  The diplexed centroid requires at least two consecutive elements above
1350:.\Generated_Source\PSoC4/CapSense_1_CSHL.c ****     *  FingerThreshold to find the index of the maximum element.
1351:.\Generated_Source\PSoC4/CapSense_1_CSHL.c ****     *
1352:.\Generated_Source\PSoC4/CapSense_1_CSHL.c ****     * Parameters:
1353:.\Generated_Source\PSoC4/CapSense_1_CSHL.c ****     *  offset:  Start index of centroid in CapSense_1_sensorSignal[] array.
1354:.\Generated_Source\PSoC4/CapSense_1_CSHL.c ****     *  count:   number of elements within centroid.
1355:.\Generated_Source\PSoC4/CapSense_1_CSHL.c ****     *  fingerThreshold:  Finger threshold.
1356:.\Generated_Source\PSoC4/CapSense_1_CSHL.c ****     *  diplex:   pointer to diplex table.
1357:.\Generated_Source\PSoC4/CapSense_1_CSHL.c ****     *
1358:.\Generated_Source\PSoC4/CapSense_1_CSHL.c ****     * Return:
1359:.\Generated_Source\PSoC4/CapSense_1_CSHL.c ****     *  Returns the index of the maximum element within a defined centroid.
1360:.\Generated_Source\PSoC4/CapSense_1_CSHL.c ****     *  If the index of the maximum element isn't found it returns 0xFF.
1361:.\Generated_Source\PSoC4/CapSense_1_CSHL.c ****     *
1362:.\Generated_Source\PSoC4/CapSense_1_CSHL.c ****     * Global Variables:
1363:.\Generated_Source\PSoC4/CapSense_1_CSHL.c ****     *  CapSense_1_startOfSlider[] - contains the index of the first slider element
1364:.\Generated_Source\PSoC4/CapSense_1_CSHL.c ****     *
1365:.\Generated_Source\PSoC4/CapSense_1_CSHL.c ****     * Side Effects:
1366:.\Generated_Source\PSoC4/CapSense_1_CSHL.c ****     *  None
1367:.\Generated_Source\PSoC4/CapSense_1_CSHL.c ****     *
1368:.\Generated_Source\PSoC4/CapSense_1_CSHL.c ****     *******************************************************************************/
1369:.\Generated_Source\PSoC4/CapSense_1_CSHL.c ****     #if (CapSense_1_IS_DIPLEX_SLIDER)
1370:.\Generated_Source\PSoC4/CapSense_1_CSHL.c ****         uint8 CapSense_1_FindMaximum(uint8 offset, uint8 count, uint8 fingerThreshold, const uint8 
1371:.\Generated_Source\PSoC4/CapSense_1_CSHL.c ****     #else
1372:.\Generated_Source\PSoC4/CapSense_1_CSHL.c ****         uint8 CapSense_1_FindMaximum(uint8 offset, uint8 count, uint8 fingerThreshold)
1373:.\Generated_Source\PSoC4/CapSense_1_CSHL.c ****     #endif /* (CapSense_1_IS_DIPLEX_SLIDER) */
1374:.\Generated_Source\PSoC4/CapSense_1_CSHL.c ****     {
1375:.\Generated_Source\PSoC4/CapSense_1_CSHL.c ****         uint8 i;
1376:.\Generated_Source\PSoC4/CapSense_1_CSHL.c ****         #if (CapSense_1_IS_DIPLEX_SLIDER)
1377:.\Generated_Source\PSoC4/CapSense_1_CSHL.c ****             uint8 curPos = 0u;
1378:.\Generated_Source\PSoC4/CapSense_1_CSHL.c ****             /* No centroid at Start */
ARM GAS  C:\Users\syhaines\AppData\Local\Temp\ccFwROm9.s 			page 30


1379:.\Generated_Source\PSoC4/CapSense_1_CSHL.c ****             uint8 curCntrdSize = 0u;
1380:.\Generated_Source\PSoC4/CapSense_1_CSHL.c ****             uint8 curCtrdStartPos = CapSense_1_MAXIMUM_CENTROID;
1381:.\Generated_Source\PSoC4/CapSense_1_CSHL.c ****             /* Biggest centroid is zero */
1382:.\Generated_Source\PSoC4/CapSense_1_CSHL.c ****             uint8 biggestCtrdSize = 0u;
1383:.\Generated_Source\PSoC4/CapSense_1_CSHL.c ****             uint8 biggestCtrdStartPos = 0u;
1384:.\Generated_Source\PSoC4/CapSense_1_CSHL.c ****         #endif /* (CapSense_1_IS_DIPLEX_SLIDER) */
1385:.\Generated_Source\PSoC4/CapSense_1_CSHL.c ****         uint8 maximum = CapSense_1_MAXIMUM_CENTROID;
1386:.\Generated_Source\PSoC4/CapSense_1_CSHL.c **** 
1387:.\Generated_Source\PSoC4/CapSense_1_CSHL.c ****         uint8 temp = 0u;
1388:.\Generated_Source\PSoC4/CapSense_1_CSHL.c ****         uint8 *startOfSlider = &CapSense_1_sensorSignal[offset];
1389:.\Generated_Source\PSoC4/CapSense_1_CSHL.c **** 
1390:.\Generated_Source\PSoC4/CapSense_1_CSHL.c ****         #if (CapSense_1_IS_DIPLEX_SLIDER)
1391:.\Generated_Source\PSoC4/CapSense_1_CSHL.c ****             if(diplex != 0u)
1392:.\Generated_Source\PSoC4/CapSense_1_CSHL.c ****             {
1393:.\Generated_Source\PSoC4/CapSense_1_CSHL.c ****                 /* Initialize */
1394:.\Generated_Source\PSoC4/CapSense_1_CSHL.c ****                 i = 0u;
1395:.\Generated_Source\PSoC4/CapSense_1_CSHL.c **** 
1396:.\Generated_Source\PSoC4/CapSense_1_CSHL.c ****                 /* Make slider x2 as Diplexed */
1397:.\Generated_Source\PSoC4/CapSense_1_CSHL.c ****                 count <<= 1u;
1398:.\Generated_Source\PSoC4/CapSense_1_CSHL.c ****                 while(1u)
1399:.\Generated_Source\PSoC4/CapSense_1_CSHL.c ****                 {
1400:.\Generated_Source\PSoC4/CapSense_1_CSHL.c ****                     if (startOfSlider[curPos] > 0u)    /* Looking for centroids */
1401:.\Generated_Source\PSoC4/CapSense_1_CSHL.c ****                     {
1402:.\Generated_Source\PSoC4/CapSense_1_CSHL.c ****                         if (curCtrdStartPos == CapSense_1_MAXIMUM_CENTROID)
1403:.\Generated_Source\PSoC4/CapSense_1_CSHL.c ****                         {
1404:.\Generated_Source\PSoC4/CapSense_1_CSHL.c ****                             /* Start of centroid */
1405:.\Generated_Source\PSoC4/CapSense_1_CSHL.c ****                             curCtrdStartPos = i;
1406:.\Generated_Source\PSoC4/CapSense_1_CSHL.c ****                             curCntrdSize++;
1407:.\Generated_Source\PSoC4/CapSense_1_CSHL.c ****                         }
1408:.\Generated_Source\PSoC4/CapSense_1_CSHL.c ****                         else
1409:.\Generated_Source\PSoC4/CapSense_1_CSHL.c ****                         {
1410:.\Generated_Source\PSoC4/CapSense_1_CSHL.c ****                             curCntrdSize++;
1411:.\Generated_Source\PSoC4/CapSense_1_CSHL.c ****                         }
1412:.\Generated_Source\PSoC4/CapSense_1_CSHL.c ****                     }
1413:.\Generated_Source\PSoC4/CapSense_1_CSHL.c ****                     else   /* Select biggest and indicate zero start */
1414:.\Generated_Source\PSoC4/CapSense_1_CSHL.c ****                     {
1415:.\Generated_Source\PSoC4/CapSense_1_CSHL.c ****                         if(curCntrdSize > 0u)
1416:.\Generated_Source\PSoC4/CapSense_1_CSHL.c ****                         {
1417:.\Generated_Source\PSoC4/CapSense_1_CSHL.c ****                             /* We are at the end of current */
1418:.\Generated_Source\PSoC4/CapSense_1_CSHL.c ****                             if(curCntrdSize > biggestCtrdSize)
1419:.\Generated_Source\PSoC4/CapSense_1_CSHL.c ****                             {
1420:.\Generated_Source\PSoC4/CapSense_1_CSHL.c ****                                 biggestCtrdSize = curCntrdSize;
1421:.\Generated_Source\PSoC4/CapSense_1_CSHL.c ****                                 biggestCtrdStartPos = curCtrdStartPos;
1422:.\Generated_Source\PSoC4/CapSense_1_CSHL.c ****                             }
1423:.\Generated_Source\PSoC4/CapSense_1_CSHL.c **** 
1424:.\Generated_Source\PSoC4/CapSense_1_CSHL.c ****                             curCntrdSize = 0u;
1425:.\Generated_Source\PSoC4/CapSense_1_CSHL.c ****                             curCtrdStartPos = CapSense_1_MAXIMUM_CENTROID;
1426:.\Generated_Source\PSoC4/CapSense_1_CSHL.c ****                         }
1427:.\Generated_Source\PSoC4/CapSense_1_CSHL.c ****                     }
1428:.\Generated_Source\PSoC4/CapSense_1_CSHL.c **** 
1429:.\Generated_Source\PSoC4/CapSense_1_CSHL.c ****                     i++;
1430:.\Generated_Source\PSoC4/CapSense_1_CSHL.c ****                     curPos = diplex[i];
1431:.\Generated_Source\PSoC4/CapSense_1_CSHL.c ****                     if(i == count)
1432:.\Generated_Source\PSoC4/CapSense_1_CSHL.c ****                     {
1433:.\Generated_Source\PSoC4/CapSense_1_CSHL.c ****                         break;
1434:.\Generated_Source\PSoC4/CapSense_1_CSHL.c ****                     }
1435:.\Generated_Source\PSoC4/CapSense_1_CSHL.c ****                 }
ARM GAS  C:\Users\syhaines\AppData\Local\Temp\ccFwROm9.s 			page 31


1436:.\Generated_Source\PSoC4/CapSense_1_CSHL.c **** 
1437:.\Generated_Source\PSoC4/CapSense_1_CSHL.c ****                     /* Find biggest centroid if two are same size, last one wins
1438:.\Generated_Source\PSoC4/CapSense_1_CSHL.c ****                        We are at the end of current */
1439:.\Generated_Source\PSoC4/CapSense_1_CSHL.c ****                 if (curCntrdSize >= biggestCtrdSize)
1440:.\Generated_Source\PSoC4/CapSense_1_CSHL.c ****                 {
1441:.\Generated_Source\PSoC4/CapSense_1_CSHL.c ****                     biggestCtrdSize = curCntrdSize;
1442:.\Generated_Source\PSoC4/CapSense_1_CSHL.c ****                     biggestCtrdStartPos = curCtrdStartPos;
1443:.\Generated_Source\PSoC4/CapSense_1_CSHL.c ****                 }
1444:.\Generated_Source\PSoC4/CapSense_1_CSHL.c ****             }
1445:.\Generated_Source\PSoC4/CapSense_1_CSHL.c ****             else
1446:.\Generated_Source\PSoC4/CapSense_1_CSHL.c ****             {
1447:.\Generated_Source\PSoC4/CapSense_1_CSHL.c ****                 /* Without diplexing */
1448:.\Generated_Source\PSoC4/CapSense_1_CSHL.c ****                 biggestCtrdSize = count;
1449:.\Generated_Source\PSoC4/CapSense_1_CSHL.c ****             }
1450:.\Generated_Source\PSoC4/CapSense_1_CSHL.c **** 
1451:.\Generated_Source\PSoC4/CapSense_1_CSHL.c **** 
1452:.\Generated_Source\PSoC4/CapSense_1_CSHL.c ****             /* Check centroid size */
1453:.\Generated_Source\PSoC4/CapSense_1_CSHL.c ****             #if (CapSense_1_IS_NON_DIPLEX_SLIDER)
1454:.\Generated_Source\PSoC4/CapSense_1_CSHL.c ****                 if((biggestCtrdSize >= 2u) || ((biggestCtrdSize == 1u) && (diplex == 0u)))
1455:.\Generated_Source\PSoC4/CapSense_1_CSHL.c ****             #else
1456:.\Generated_Source\PSoC4/CapSense_1_CSHL.c ****                 if(biggestCtrdSize >= 2u)
1457:.\Generated_Source\PSoC4/CapSense_1_CSHL.c ****             #endif /* (CapSense_1_IS_NON_DIPLEX_SLIDER) */
1458:.\Generated_Source\PSoC4/CapSense_1_CSHL.c ****                 {
1459:.\Generated_Source\PSoC4/CapSense_1_CSHL.c ****                     for (i = biggestCtrdStartPos; i < (biggestCtrdStartPos + biggestCtrdSize); i++)
1460:.\Generated_Source\PSoC4/CapSense_1_CSHL.c ****                     {
1461:.\Generated_Source\PSoC4/CapSense_1_CSHL.c ****                         #if (CapSense_1_IS_DIPLEX_SLIDER && CapSense_1_IS_NON_DIPLEX_SLIDER)
1462:.\Generated_Source\PSoC4/CapSense_1_CSHL.c ****                             if (diplex == 0u)
1463:.\Generated_Source\PSoC4/CapSense_1_CSHL.c ****                             {
1464:.\Generated_Source\PSoC4/CapSense_1_CSHL.c ****                                 curPos = i;
1465:.\Generated_Source\PSoC4/CapSense_1_CSHL.c ****                             }
1466:.\Generated_Source\PSoC4/CapSense_1_CSHL.c ****                             else
1467:.\Generated_Source\PSoC4/CapSense_1_CSHL.c ****                             {
1468:.\Generated_Source\PSoC4/CapSense_1_CSHL.c ****                                 curPos = diplex[i];
1469:.\Generated_Source\PSoC4/CapSense_1_CSHL.c ****                             }
1470:.\Generated_Source\PSoC4/CapSense_1_CSHL.c ****                         #elif (CapSense_1_IS_DIPLEX_SLIDER)
1471:.\Generated_Source\PSoC4/CapSense_1_CSHL.c ****                             curPos = diplex[i];
1472:.\Generated_Source\PSoC4/CapSense_1_CSHL.c ****                         #endif /* (CapSense_1_IS_DIPLEX_SLIDER && CapSense_1_IS_NON_DIPLEX_SLIDER) 
1473:.\Generated_Source\PSoC4/CapSense_1_CSHL.c ****                         /* Looking for greater element within centroid */
1474:.\Generated_Source\PSoC4/CapSense_1_CSHL.c ****                         if(startOfSlider[curPos] > fingerThreshold)
1475:.\Generated_Source\PSoC4/CapSense_1_CSHL.c ****                         {
1476:.\Generated_Source\PSoC4/CapSense_1_CSHL.c ****                             if(startOfSlider[curPos] > temp)
1477:.\Generated_Source\PSoC4/CapSense_1_CSHL.c ****                             {
1478:.\Generated_Source\PSoC4/CapSense_1_CSHL.c ****                                 maximum = i;
1479:.\Generated_Source\PSoC4/CapSense_1_CSHL.c ****                                 temp = startOfSlider[curPos];
1480:.\Generated_Source\PSoC4/CapSense_1_CSHL.c ****                             }
1481:.\Generated_Source\PSoC4/CapSense_1_CSHL.c ****                         }
1482:.\Generated_Source\PSoC4/CapSense_1_CSHL.c ****                     }
1483:.\Generated_Source\PSoC4/CapSense_1_CSHL.c ****                 }
1484:.\Generated_Source\PSoC4/CapSense_1_CSHL.c ****         #else
1485:.\Generated_Source\PSoC4/CapSense_1_CSHL.c ****             for (i = 0u; i < count; i++)
1486:.\Generated_Source\PSoC4/CapSense_1_CSHL.c ****             {
1487:.\Generated_Source\PSoC4/CapSense_1_CSHL.c ****                 /* Looking for greater element within centroid */
1488:.\Generated_Source\PSoC4/CapSense_1_CSHL.c ****                 if(startOfSlider[i] > fingerThreshold)
1489:.\Generated_Source\PSoC4/CapSense_1_CSHL.c ****                 {
1490:.\Generated_Source\PSoC4/CapSense_1_CSHL.c ****                     if(startOfSlider[i] > temp)
1491:.\Generated_Source\PSoC4/CapSense_1_CSHL.c ****                     {
1492:.\Generated_Source\PSoC4/CapSense_1_CSHL.c ****                         maximum = i;
ARM GAS  C:\Users\syhaines\AppData\Local\Temp\ccFwROm9.s 			page 32


1493:.\Generated_Source\PSoC4/CapSense_1_CSHL.c ****                         temp = startOfSlider[i];
1494:.\Generated_Source\PSoC4/CapSense_1_CSHL.c ****                     }
1495:.\Generated_Source\PSoC4/CapSense_1_CSHL.c ****                 }
1496:.\Generated_Source\PSoC4/CapSense_1_CSHL.c ****             }
1497:.\Generated_Source\PSoC4/CapSense_1_CSHL.c ****         #endif /* (CapSense_1_IS_DIPLEX_SLIDER) */
1498:.\Generated_Source\PSoC4/CapSense_1_CSHL.c ****         return (maximum);
1499:.\Generated_Source\PSoC4/CapSense_1_CSHL.c ****     }
1500:.\Generated_Source\PSoC4/CapSense_1_CSHL.c **** 
1501:.\Generated_Source\PSoC4/CapSense_1_CSHL.c **** 
1502:.\Generated_Source\PSoC4/CapSense_1_CSHL.c ****     /*******************************************************************************
1503:.\Generated_Source\PSoC4/CapSense_1_CSHL.c ****     * Function Name: CapSense_1_CalcCentroid
1504:.\Generated_Source\PSoC4/CapSense_1_CSHL.c ****     ********************************************************************************
1505:.\Generated_Source\PSoC4/CapSense_1_CSHL.c ****     *
1506:.\Generated_Source\PSoC4/CapSense_1_CSHL.c ****     * Summary:
1507:.\Generated_Source\PSoC4/CapSense_1_CSHL.c ****     *  Returns a position value calculated according to the index of the maximum element and API
1508:.\Generated_Source\PSoC4/CapSense_1_CSHL.c ****     *  resolution.
1509:.\Generated_Source\PSoC4/CapSense_1_CSHL.c ****     *
1510:.\Generated_Source\PSoC4/CapSense_1_CSHL.c ****     * Parameters:
1511:.\Generated_Source\PSoC4/CapSense_1_CSHL.c ****     *  type:  widget type.
1512:.\Generated_Source\PSoC4/CapSense_1_CSHL.c ****     *  diplex:  pointer to diplex table.
1513:.\Generated_Source\PSoC4/CapSense_1_CSHL.c ****     *  maximum:  Index of maximum element within centroid.
1514:.\Generated_Source\PSoC4/CapSense_1_CSHL.c ****     *  offset:   Start index of centroid in CapSense_1_sensorSignal[] array.
1515:.\Generated_Source\PSoC4/CapSense_1_CSHL.c ****     *  count:    Number of elements within centroid.
1516:.\Generated_Source\PSoC4/CapSense_1_CSHL.c ****     *  resolution:  multiplicator calculated according to centroid type and
1517:.\Generated_Source\PSoC4/CapSense_1_CSHL.c ****     *  API resolution.
1518:.\Generated_Source\PSoC4/CapSense_1_CSHL.c ****     *  noiseThreshold:  Noise threshold.
1519:.\Generated_Source\PSoC4/CapSense_1_CSHL.c ****     *
1520:.\Generated_Source\PSoC4/CapSense_1_CSHL.c ****     * Return:
1521:.\Generated_Source\PSoC4/CapSense_1_CSHL.c ****     *  Returns a position value of the slider.
1522:.\Generated_Source\PSoC4/CapSense_1_CSHL.c ****     *
1523:.\Generated_Source\PSoC4/CapSense_1_CSHL.c ****     * Side Effects:
1524:.\Generated_Source\PSoC4/CapSense_1_CSHL.c ****     *  None
1525:.\Generated_Source\PSoC4/CapSense_1_CSHL.c ****     *
1526:.\Generated_Source\PSoC4/CapSense_1_CSHL.c ****     *******************************************************************************/
1527:.\Generated_Source\PSoC4/CapSense_1_CSHL.c **** #if (CapSense_1_TOTAL_TRACKPAD_GESTURES_COUNT > 0u)
1528:.\Generated_Source\PSoC4/CapSense_1_CSHL.c ****     uint8 CapSense_1_CalcCentroid(uint8 maximum, uint8 offset,
1529:.\Generated_Source\PSoC4/CapSense_1_CSHL.c ****                                         uint8 count, uint32 resolution, uint8 noiseThreshold)
1530:.\Generated_Source\PSoC4/CapSense_1_CSHL.c **** #else
1531:.\Generated_Source\PSoC4/CapSense_1_CSHL.c ****     uint8 CapSense_1_CalcCentroid(uint8 maximum, uint8 offset,
1532:.\Generated_Source\PSoC4/CapSense_1_CSHL.c ****                                         uint8 count, uint16 resolution, uint8 noiseThreshold)
1533:.\Generated_Source\PSoC4/CapSense_1_CSHL.c **** #endif /* (CapSense_1_TOTAL_TRACKPAD_GESTURES_COUNT > 0u) */
1534:.\Generated_Source\PSoC4/CapSense_1_CSHL.c ****     {
1535:.\Generated_Source\PSoC4/CapSense_1_CSHL.c ****         #if ((CapSense_1_TOTAL_LINEAR_SLIDERS_COUNT > 0u) || (CapSense_1_TOTAL_TOUCH_PADS_BASIC_COU
1536:.\Generated_Source\PSoC4/CapSense_1_CSHL.c ****             uint8 posPrev;
1537:.\Generated_Source\PSoC4/CapSense_1_CSHL.c ****             uint8 posNext;
1538:.\Generated_Source\PSoC4/CapSense_1_CSHL.c ****         #endif /* ((CapSense_1_TOTAL_LINEAR_SLIDERS_COUNT>0u) || (CapSense_1_TOTAL_TOUCH_PADS_BASIC
1539:.\Generated_Source\PSoC4/CapSense_1_CSHL.c **** 
1540:.\Generated_Source\PSoC4/CapSense_1_CSHL.c ****         /* Helps during centroid calculation */
1541:.\Generated_Source\PSoC4/CapSense_1_CSHL.c ****         #if (CapSense_1_TOTAL_CENTROIDS_BASIC_COUNT)
1542:.\Generated_Source\PSoC4/CapSense_1_CSHL.c ****             static uint8 CapSense_1_centroid[3u];
1543:.\Generated_Source\PSoC4/CapSense_1_CSHL.c ****         #endif  /* (CapSense_1_TOTAL_CENTROIDS_BASIC_COUNT) */
1544:.\Generated_Source\PSoC4/CapSense_1_CSHL.c **** 
1545:.\Generated_Source\PSoC4/CapSense_1_CSHL.c ****         #if (CapSense_1_IS_DIPLEX_SLIDER)
1546:.\Generated_Source\PSoC4/CapSense_1_CSHL.c ****             uint8 pos;
1547:.\Generated_Source\PSoC4/CapSense_1_CSHL.c ****         #endif /* (CapSense_1_IS_DIPLEX_SLIDER) */
1548:.\Generated_Source\PSoC4/CapSense_1_CSHL.c **** 
1549:.\Generated_Source\PSoC4/CapSense_1_CSHL.c ****         uint8 position;
ARM GAS  C:\Users\syhaines\AppData\Local\Temp\ccFwROm9.s 			page 33


1550:.\Generated_Source\PSoC4/CapSense_1_CSHL.c ****         uint32 numerator;
1551:.\Generated_Source\PSoC4/CapSense_1_CSHL.c ****         int32 denominator;
1552:.\Generated_Source\PSoC4/CapSense_1_CSHL.c **** 
1553:.\Generated_Source\PSoC4/CapSense_1_CSHL.c ****         uint8  *startOfSlider = &CapSense_1_sensorSignal[offset];
1554:.\Generated_Source\PSoC4/CapSense_1_CSHL.c **** 
1555:.\Generated_Source\PSoC4/CapSense_1_CSHL.c ****         #if ((CapSense_1_TOTAL_LINEAR_SLIDERS_COUNT > 0u) || (CapSense_1_TOTAL_TOUCH_PADS_BASIC_COU
1556:.\Generated_Source\PSoC4/CapSense_1_CSHL.c ****             posPrev = 0u;
1557:.\Generated_Source\PSoC4/CapSense_1_CSHL.c ****         #endif /* ((CapSense_1_TOTAL_LINEAR_SLIDERS_COUNT>0u) || (CapSense_1_TOTAL_TOUCH_PADS_BASIC
1558:.\Generated_Source\PSoC4/CapSense_1_CSHL.c **** 
1559:.\Generated_Source\PSoC4/CapSense_1_CSHL.c ****         #if (CapSense_1_ADD_SLIDER_TYPE)
1560:.\Generated_Source\PSoC4/CapSense_1_CSHL.c ****             if(type == CapSense_1_TYPE_RADIAL_SLIDER)
1561:.\Generated_Source\PSoC4/CapSense_1_CSHL.c ****             {
1562:.\Generated_Source\PSoC4/CapSense_1_CSHL.c ****         #endif /* (CapSense_1_ADD_SLIDER_TYPE) */
1563:.\Generated_Source\PSoC4/CapSense_1_CSHL.c **** 
1564:.\Generated_Source\PSoC4/CapSense_1_CSHL.c ****             #if (CapSense_1_TOTAL_RADIAL_SLIDERS_COUNT > 0u)
1565:.\Generated_Source\PSoC4/CapSense_1_CSHL.c ****                 /* Copy Signal to the centroid array */
1566:.\Generated_Source\PSoC4/CapSense_1_CSHL.c ****                 CapSense_1_centroid[CapSense_1_POS] = startOfSlider[maximum];
1567:.\Generated_Source\PSoC4/CapSense_1_CSHL.c **** 
1568:.\Generated_Source\PSoC4/CapSense_1_CSHL.c ****                 /* Check borders for ROTARY Slider */
1569:.\Generated_Source\PSoC4/CapSense_1_CSHL.c ****                 if (maximum == 0u)                   /* Start of centroid */
1570:.\Generated_Source\PSoC4/CapSense_1_CSHL.c ****                 {
1571:.\Generated_Source\PSoC4/CapSense_1_CSHL.c ****                     CapSense_1_centroid[CapSense_1_POS_PREV] = startOfSlider[count - 1u];
1572:.\Generated_Source\PSoC4/CapSense_1_CSHL.c ****                     CapSense_1_centroid[CapSense_1_POS_NEXT] = startOfSlider[1u];
1573:.\Generated_Source\PSoC4/CapSense_1_CSHL.c ****                 }
1574:.\Generated_Source\PSoC4/CapSense_1_CSHL.c ****                 else if (maximum == (count - 1u))    /* End of centroid */
1575:.\Generated_Source\PSoC4/CapSense_1_CSHL.c ****                 {
1576:.\Generated_Source\PSoC4/CapSense_1_CSHL.c ****                     CapSense_1_centroid[CapSense_1_POS_PREV] = startOfSlider[maximum - 1u];
1577:.\Generated_Source\PSoC4/CapSense_1_CSHL.c ****                     CapSense_1_centroid[CapSense_1_POS_NEXT] = startOfSlider[0u];
1578:.\Generated_Source\PSoC4/CapSense_1_CSHL.c ****                 }
1579:.\Generated_Source\PSoC4/CapSense_1_CSHL.c ****                 else                                /* Not first Not last */
1580:.\Generated_Source\PSoC4/CapSense_1_CSHL.c ****                 {
1581:.\Generated_Source\PSoC4/CapSense_1_CSHL.c ****                     CapSense_1_centroid[CapSense_1_POS_PREV] = startOfSlider[maximum - 1u];
1582:.\Generated_Source\PSoC4/CapSense_1_CSHL.c ****                     CapSense_1_centroid[CapSense_1_POS_NEXT] = startOfSlider[maximum + 1u];
1583:.\Generated_Source\PSoC4/CapSense_1_CSHL.c ****                 }
1584:.\Generated_Source\PSoC4/CapSense_1_CSHL.c ****             #endif /* (CapSense_1_TOTAL_RADIAL_SLIDERS_COUNT > 0u) */
1585:.\Generated_Source\PSoC4/CapSense_1_CSHL.c **** 
1586:.\Generated_Source\PSoC4/CapSense_1_CSHL.c ****         #if (CapSense_1_ADD_SLIDER_TYPE)
1587:.\Generated_Source\PSoC4/CapSense_1_CSHL.c ****             }
1588:.\Generated_Source\PSoC4/CapSense_1_CSHL.c ****             else
1589:.\Generated_Source\PSoC4/CapSense_1_CSHL.c ****             {
1590:.\Generated_Source\PSoC4/CapSense_1_CSHL.c ****         #endif /* (CapSense_1_ADD_SLIDER_TYPE) */
1591:.\Generated_Source\PSoC4/CapSense_1_CSHL.c **** 
1592:.\Generated_Source\PSoC4/CapSense_1_CSHL.c ****             #if ((CapSense_1_TOTAL_LINEAR_SLIDERS_COUNT > 0u) || (CapSense_1_TOTAL_TOUCH_PADS_BASIC
1593:.\Generated_Source\PSoC4/CapSense_1_CSHL.c ****                 #if (CapSense_1_IS_DIPLEX_SLIDER && CapSense_1_IS_NON_DIPLEX_SLIDER)
1594:.\Generated_Source\PSoC4/CapSense_1_CSHL.c ****                     /* Calculate next and previous near to maximum */
1595:.\Generated_Source\PSoC4/CapSense_1_CSHL.c ****                     if(diplex == 0u)
1596:.\Generated_Source\PSoC4/CapSense_1_CSHL.c ****                     {
1597:.\Generated_Source\PSoC4/CapSense_1_CSHL.c ****                         pos     = maximum;
1598:.\Generated_Source\PSoC4/CapSense_1_CSHL.c ****                         posPrev = maximum - 1u;
1599:.\Generated_Source\PSoC4/CapSense_1_CSHL.c ****                         posNext = maximum + 1u;
1600:.\Generated_Source\PSoC4/CapSense_1_CSHL.c ****                     }
1601:.\Generated_Source\PSoC4/CapSense_1_CSHL.c ****                     else
1602:.\Generated_Source\PSoC4/CapSense_1_CSHL.c ****                     {
1603:.\Generated_Source\PSoC4/CapSense_1_CSHL.c ****                         pos     = diplex[maximum];
1604:.\Generated_Source\PSoC4/CapSense_1_CSHL.c ****                         posPrev = diplex[maximum - 1u];
1605:.\Generated_Source\PSoC4/CapSense_1_CSHL.c ****                         posNext = diplex[maximum + 1u];
1606:.\Generated_Source\PSoC4/CapSense_1_CSHL.c ****                         count <<= 1u;
ARM GAS  C:\Users\syhaines\AppData\Local\Temp\ccFwROm9.s 			page 34


1607:.\Generated_Source\PSoC4/CapSense_1_CSHL.c ****                     }
1608:.\Generated_Source\PSoC4/CapSense_1_CSHL.c ****                 #elif (CapSense_1_IS_DIPLEX_SLIDER)
1609:.\Generated_Source\PSoC4/CapSense_1_CSHL.c ****                     /* Calculate next and previous near to maximum */
1610:.\Generated_Source\PSoC4/CapSense_1_CSHL.c ****                     pos     = diplex[maximum];
1611:.\Generated_Source\PSoC4/CapSense_1_CSHL.c ****                     posPrev = diplex[maximum - 1u];
1612:.\Generated_Source\PSoC4/CapSense_1_CSHL.c ****                     posNext = diplex[maximum + 1u];
1613:.\Generated_Source\PSoC4/CapSense_1_CSHL.c ****                     count <<= 1u;
1614:.\Generated_Source\PSoC4/CapSense_1_CSHL.c ****                 #else
1615:.\Generated_Source\PSoC4/CapSense_1_CSHL.c ****                     /* Calculate next and previous near to maximum */
1616:.\Generated_Source\PSoC4/CapSense_1_CSHL.c ****                     if (maximum >= 1u)
1617:.\Generated_Source\PSoC4/CapSense_1_CSHL.c ****                     {
1618:.\Generated_Source\PSoC4/CapSense_1_CSHL.c ****                         posPrev = maximum - 1u;
1619:.\Generated_Source\PSoC4/CapSense_1_CSHL.c ****                     }
1620:.\Generated_Source\PSoC4/CapSense_1_CSHL.c ****                     posNext = maximum + 1u;
1621:.\Generated_Source\PSoC4/CapSense_1_CSHL.c ****                 #endif /* (CapSense_1_IS_DIPLEX_SLIDER && CapSense_1_IS_NON_DIPLEX_SLIDER) */
1622:.\Generated_Source\PSoC4/CapSense_1_CSHL.c **** 
1623:.\Generated_Source\PSoC4/CapSense_1_CSHL.c ****                 /* Copy Signal to the centroid array */
1624:.\Generated_Source\PSoC4/CapSense_1_CSHL.c ****                 #if (CapSense_1_IS_DIPLEX_SLIDER)
1625:.\Generated_Source\PSoC4/CapSense_1_CSHL.c ****                     CapSense_1_centroid[CapSense_1_POS] = startOfSlider[pos];
1626:.\Generated_Source\PSoC4/CapSense_1_CSHL.c ****                 #else
1627:.\Generated_Source\PSoC4/CapSense_1_CSHL.c ****                     CapSense_1_centroid[CapSense_1_POS] = startOfSlider[maximum];
1628:.\Generated_Source\PSoC4/CapSense_1_CSHL.c ****                 #endif /* (CapSense_1_IS_DIPLEX_SLIDER) */
1629:.\Generated_Source\PSoC4/CapSense_1_CSHL.c **** 
1630:.\Generated_Source\PSoC4/CapSense_1_CSHL.c ****                 /* Check borders for LINEAR Slider */
1631:.\Generated_Source\PSoC4/CapSense_1_CSHL.c ****                 if (maximum == 0u)                   /* Start of centroid */
1632:.\Generated_Source\PSoC4/CapSense_1_CSHL.c ****                 {
1633:.\Generated_Source\PSoC4/CapSense_1_CSHL.c ****                     CapSense_1_centroid[CapSense_1_POS_PREV] = 0u;
1634:.\Generated_Source\PSoC4/CapSense_1_CSHL.c ****                     CapSense_1_centroid[CapSense_1_POS_NEXT] = startOfSlider[posNext];
1635:.\Generated_Source\PSoC4/CapSense_1_CSHL.c ****                 }
1636:.\Generated_Source\PSoC4/CapSense_1_CSHL.c ****                 else if (maximum == ((count) - 1u)) /* End of centroid */
1637:.\Generated_Source\PSoC4/CapSense_1_CSHL.c ****                 {
1638:.\Generated_Source\PSoC4/CapSense_1_CSHL.c ****                     CapSense_1_centroid[CapSense_1_POS_PREV] = startOfSlider[posPrev];
1639:.\Generated_Source\PSoC4/CapSense_1_CSHL.c ****                     CapSense_1_centroid[CapSense_1_POS_NEXT] = 0u;
1640:.\Generated_Source\PSoC4/CapSense_1_CSHL.c ****                 }
1641:.\Generated_Source\PSoC4/CapSense_1_CSHL.c ****                 else                                /* Not first Not last */
1642:.\Generated_Source\PSoC4/CapSense_1_CSHL.c ****                 {
1643:.\Generated_Source\PSoC4/CapSense_1_CSHL.c ****                     CapSense_1_centroid[CapSense_1_POS_PREV] = startOfSlider[posPrev];
1644:.\Generated_Source\PSoC4/CapSense_1_CSHL.c ****                     CapSense_1_centroid[CapSense_1_POS_NEXT] = startOfSlider[posNext];
1645:.\Generated_Source\PSoC4/CapSense_1_CSHL.c ****                 }
1646:.\Generated_Source\PSoC4/CapSense_1_CSHL.c ****             #endif /* ((CapSense_1_TOTAL_LINEAR_SLIDERS_COUNT>0u)||(CapSense_1_TOTAL_TOUCH_PADS_BAS
1647:.\Generated_Source\PSoC4/CapSense_1_CSHL.c **** 
1648:.\Generated_Source\PSoC4/CapSense_1_CSHL.c ****         #if (CapSense_1_ADD_SLIDER_TYPE)
1649:.\Generated_Source\PSoC4/CapSense_1_CSHL.c ****             }
1650:.\Generated_Source\PSoC4/CapSense_1_CSHL.c ****         #endif /* (CapSense_1_ADD_SLIDER_TYPE) */
1651:.\Generated_Source\PSoC4/CapSense_1_CSHL.c **** 
1652:.\Generated_Source\PSoC4/CapSense_1_CSHL.c ****         /* Subtract noiseThreshold */
1653:.\Generated_Source\PSoC4/CapSense_1_CSHL.c ****         if(CapSense_1_centroid[CapSense_1_POS_PREV] > noiseThreshold)
1654:.\Generated_Source\PSoC4/CapSense_1_CSHL.c ****         {
1655:.\Generated_Source\PSoC4/CapSense_1_CSHL.c ****             CapSense_1_centroid[CapSense_1_POS_PREV] -= noiseThreshold;
1656:.\Generated_Source\PSoC4/CapSense_1_CSHL.c ****         }
1657:.\Generated_Source\PSoC4/CapSense_1_CSHL.c ****         else
1658:.\Generated_Source\PSoC4/CapSense_1_CSHL.c ****         {
1659:.\Generated_Source\PSoC4/CapSense_1_CSHL.c ****             CapSense_1_centroid[CapSense_1_POS_PREV] = 0u;
1660:.\Generated_Source\PSoC4/CapSense_1_CSHL.c ****         }
1661:.\Generated_Source\PSoC4/CapSense_1_CSHL.c **** 
1662:.\Generated_Source\PSoC4/CapSense_1_CSHL.c ****         /* Maximum always greater than fingerThreshold, so greater than noiseThreshold */
1663:.\Generated_Source\PSoC4/CapSense_1_CSHL.c ****         CapSense_1_centroid[CapSense_1_POS] -= noiseThreshold;
ARM GAS  C:\Users\syhaines\AppData\Local\Temp\ccFwROm9.s 			page 35


1664:.\Generated_Source\PSoC4/CapSense_1_CSHL.c **** 
1665:.\Generated_Source\PSoC4/CapSense_1_CSHL.c ****         /* Subtract noiseThreshold */
1666:.\Generated_Source\PSoC4/CapSense_1_CSHL.c ****         if(CapSense_1_centroid[CapSense_1_POS_NEXT] > noiseThreshold)
1667:.\Generated_Source\PSoC4/CapSense_1_CSHL.c ****         {
1668:.\Generated_Source\PSoC4/CapSense_1_CSHL.c ****             CapSense_1_centroid[CapSense_1_POS_NEXT] -= noiseThreshold;
1669:.\Generated_Source\PSoC4/CapSense_1_CSHL.c ****         }
1670:.\Generated_Source\PSoC4/CapSense_1_CSHL.c ****         else
1671:.\Generated_Source\PSoC4/CapSense_1_CSHL.c ****         {
1672:.\Generated_Source\PSoC4/CapSense_1_CSHL.c ****             CapSense_1_centroid[CapSense_1_POS_NEXT] = 0u;
1673:.\Generated_Source\PSoC4/CapSense_1_CSHL.c ****         }
1674:.\Generated_Source\PSoC4/CapSense_1_CSHL.c **** 
1675:.\Generated_Source\PSoC4/CapSense_1_CSHL.c **** 
1676:.\Generated_Source\PSoC4/CapSense_1_CSHL.c ****         /* Si+1 - Si-1 */
1677:.\Generated_Source\PSoC4/CapSense_1_CSHL.c ****         numerator = (uint32) CapSense_1_centroid[CapSense_1_POS_NEXT] -
1678:.\Generated_Source\PSoC4/CapSense_1_CSHL.c ****                     (uint32) CapSense_1_centroid[CapSense_1_POS_PREV];
1679:.\Generated_Source\PSoC4/CapSense_1_CSHL.c **** 
1680:.\Generated_Source\PSoC4/CapSense_1_CSHL.c ****         /* Si+1 + Si + Si-1 */
1681:.\Generated_Source\PSoC4/CapSense_1_CSHL.c ****         denominator = (int32) CapSense_1_centroid[CapSense_1_POS_PREV] +
1682:.\Generated_Source\PSoC4/CapSense_1_CSHL.c ****                       (int32) CapSense_1_centroid[CapSense_1_POS] +
1683:.\Generated_Source\PSoC4/CapSense_1_CSHL.c ****                       (int32) CapSense_1_centroid[CapSense_1_POS_NEXT];
1684:.\Generated_Source\PSoC4/CapSense_1_CSHL.c **** 
1685:.\Generated_Source\PSoC4/CapSense_1_CSHL.c ****         /* (numerator/denominator) + maximum */
1686:.\Generated_Source\PSoC4/CapSense_1_CSHL.c ****         denominator = (((int32)(uint32)((uint32)numerator << 8u)/denominator) + (int32)(uint32)((ui
1687:.\Generated_Source\PSoC4/CapSense_1_CSHL.c **** 
1688:.\Generated_Source\PSoC4/CapSense_1_CSHL.c ****         #if(CapSense_1_TOTAL_RADIAL_SLIDERS_COUNT > 0u)
1689:.\Generated_Source\PSoC4/CapSense_1_CSHL.c ****             /* Only required for RADIAL Slider */
1690:.\Generated_Source\PSoC4/CapSense_1_CSHL.c ****             if(denominator < 0)
1691:.\Generated_Source\PSoC4/CapSense_1_CSHL.c ****             {
1692:.\Generated_Source\PSoC4/CapSense_1_CSHL.c ****                 denominator += (int32)((uint16)((uint16) count << 8u));
1693:.\Generated_Source\PSoC4/CapSense_1_CSHL.c ****             }
1694:.\Generated_Source\PSoC4/CapSense_1_CSHL.c ****         #endif /* (CapSense_1_TOTAL_RADIAL_SLIDERS_COUNT > 0u) */
1695:.\Generated_Source\PSoC4/CapSense_1_CSHL.c **** 
1696:.\Generated_Source\PSoC4/CapSense_1_CSHL.c ****         denominator *= (int16)resolution;
1697:.\Generated_Source\PSoC4/CapSense_1_CSHL.c **** 
1698:.\Generated_Source\PSoC4/CapSense_1_CSHL.c ****         /* Round result and put it to uint8 */
1699:.\Generated_Source\PSoC4/CapSense_1_CSHL.c ****         position = ((uint8) HI16((uint32)denominator + CapSense_1_CENTROID_ROUND_VALUE));
1700:.\Generated_Source\PSoC4/CapSense_1_CSHL.c **** 
1701:.\Generated_Source\PSoC4/CapSense_1_CSHL.c ****         return (position);
1702:.\Generated_Source\PSoC4/CapSense_1_CSHL.c ****     }
1703:.\Generated_Source\PSoC4/CapSense_1_CSHL.c **** #endif /* (CapSense_1_TOTAL_CENTROIDS_BASIC_COUNT) */
1704:.\Generated_Source\PSoC4/CapSense_1_CSHL.c **** 
1705:.\Generated_Source\PSoC4/CapSense_1_CSHL.c **** 
1706:.\Generated_Source\PSoC4/CapSense_1_CSHL.c **** #if((CapSense_1_TOTAL_RADIAL_SLIDERS_COUNT > 0u) || (CapSense_1_TOTAL_LINEAR_SLIDERS_COUNT > 0u))
1707:.\Generated_Source\PSoC4/CapSense_1_CSHL.c ****     /*******************************************************************************
1708:.\Generated_Source\PSoC4/CapSense_1_CSHL.c ****     * Function Name: CapSense_1_GetCentroidPos
1709:.\Generated_Source\PSoC4/CapSense_1_CSHL.c ****     ********************************************************************************
1710:.\Generated_Source\PSoC4/CapSense_1_CSHL.c ****     *
1711:.\Generated_Source\PSoC4/CapSense_1_CSHL.c ****     * Summary:
1712:.\Generated_Source\PSoC4/CapSense_1_CSHL.c ****     *  Checks the CapSense_1_Signal[ ] array for a centroid within
1713:.\Generated_Source\PSoC4/CapSense_1_CSHL.c ****     *  a slider specified range. The centroid position is calculated according to the resolution
1714:.\Generated_Source\PSoC4/CapSense_1_CSHL.c ****     *  specified in the CapSense customizer. The position filters are applied to the
1715:.\Generated_Source\PSoC4/CapSense_1_CSHL.c ****     *  result if enabled.
1716:.\Generated_Source\PSoC4/CapSense_1_CSHL.c ****     *
1717:.\Generated_Source\PSoC4/CapSense_1_CSHL.c ****     * Parameters:
1718:.\Generated_Source\PSoC4/CapSense_1_CSHL.c ****     *  widget:  Widget number.
1719:.\Generated_Source\PSoC4/CapSense_1_CSHL.c ****     *  For every linear slider widget there are defines in this format:
1720:.\Generated_Source\PSoC4/CapSense_1_CSHL.c ****     *  #define CapSense_1_"widget_name"__LS           5
ARM GAS  C:\Users\syhaines\AppData\Local\Temp\ccFwROm9.s 			page 36


1721:.\Generated_Source\PSoC4/CapSense_1_CSHL.c ****     *
1722:.\Generated_Source\PSoC4/CapSense_1_CSHL.c ****     * Return:
1723:.\Generated_Source\PSoC4/CapSense_1_CSHL.c ****     *  Returns a position value of the linear slider.
1724:.\Generated_Source\PSoC4/CapSense_1_CSHL.c ****     *
1725:.\Generated_Source\PSoC4/CapSense_1_CSHL.c ****     * Global Variables:
1726:.\Generated_Source\PSoC4/CapSense_1_CSHL.c ****     *  None
1727:.\Generated_Source\PSoC4/CapSense_1_CSHL.c ****     *
1728:.\Generated_Source\PSoC4/CapSense_1_CSHL.c ****     * Side Effects:
1729:.\Generated_Source\PSoC4/CapSense_1_CSHL.c ****     *  If any sensor within the slider widget is active, the function returns values
1730:.\Generated_Source\PSoC4/CapSense_1_CSHL.c ****     *  from zero to the API resolution value set in the CapSense customizer. If no
1731:.\Generated_Source\PSoC4/CapSense_1_CSHL.c ****     *  sensors are active, the function returns 0xFFFF. If an error occurs during
1732:.\Generated_Source\PSoC4/CapSense_1_CSHL.c ****     *  execution of the centroid/diplexing algorithm, the function returns 0xFFFF.
1733:.\Generated_Source\PSoC4/CapSense_1_CSHL.c ****     *  There are no checks of the widget type argument provided to this function.
1734:.\Generated_Source\PSoC4/CapSense_1_CSHL.c ****     *  The unproper widget type provided will cause unexpected position calculations.
1735:.\Generated_Source\PSoC4/CapSense_1_CSHL.c ****     *
1736:.\Generated_Source\PSoC4/CapSense_1_CSHL.c ****     * Note:
1737:.\Generated_Source\PSoC4/CapSense_1_CSHL.c ****     *  If noise counts on the slider segments are greater than the noise
1738:.\Generated_Source\PSoC4/CapSense_1_CSHL.c ****     *  threshold, this subroutine may generate a false centroid result. The noise
1739:.\Generated_Source\PSoC4/CapSense_1_CSHL.c ****     *  threshold should be set carefully (high enough above the noise level) so
1740:.\Generated_Source\PSoC4/CapSense_1_CSHL.c ****     *  that noise will not generate a false centroid.
1741:.\Generated_Source\PSoC4/CapSense_1_CSHL.c ****     *******************************************************************************/
1742:.\Generated_Source\PSoC4/CapSense_1_CSHL.c ****     uint16 CapSense_1_GetCentroidPos(uint32 widget)
1743:.\Generated_Source\PSoC4/CapSense_1_CSHL.c ****     {
1744:.\Generated_Source\PSoC4/CapSense_1_CSHL.c ****         #if (CapSense_1_IS_DIPLEX_SLIDER)
1745:.\Generated_Source\PSoC4/CapSense_1_CSHL.c ****             const uint8 *diplex;
1746:.\Generated_Source\PSoC4/CapSense_1_CSHL.c ****         #endif /* (CapSense_1_IS_DIPLEX_SLIDER) */
1747:.\Generated_Source\PSoC4/CapSense_1_CSHL.c **** 
1748:.\Generated_Source\PSoC4/CapSense_1_CSHL.c ****         #if (0u != CapSense_1_LINEAR_SLIDERS_POS_FILTERS_MASK)
1749:.\Generated_Source\PSoC4/CapSense_1_CSHL.c ****             uint8 posIndex;
1750:.\Generated_Source\PSoC4/CapSense_1_CSHL.c ****             uint8 firstTimeIndex = CapSense_1_posFiltersData[widget];
1751:.\Generated_Source\PSoC4/CapSense_1_CSHL.c ****             uint8 posFiltersMask = CapSense_1_posFiltersMask[widget];
1752:.\Generated_Source\PSoC4/CapSense_1_CSHL.c ****         #endif /* (0u != CapSense_1_LINEAR_SLIDERS_POS_FILTERS_MASK) */
1753:.\Generated_Source\PSoC4/CapSense_1_CSHL.c **** 
1754:.\Generated_Source\PSoC4/CapSense_1_CSHL.c ****         #if ((0u != (CapSense_1_MEDIAN_FILTER & CapSense_1_LINEAR_SLIDERS_POS_FILTERS_MASK)) || \
1755:.\Generated_Source\PSoC4/CapSense_1_CSHL.c ****              (0u != (CapSense_1_AVERAGING_FILTER & CapSense_1_LINEAR_SLIDERS_POS_FILTERS_MASK)))
1756:.\Generated_Source\PSoC4/CapSense_1_CSHL.c ****             uint8 tempPos;
1757:.\Generated_Source\PSoC4/CapSense_1_CSHL.c ****         #endif /* ((0u != (CapSense_1_MEDIAN_FILTER & CapSense_1_LINEAR_SLIDERS_POS_FILTERS_MASK)) 
1758:.\Generated_Source\PSoC4/CapSense_1_CSHL.c ****                *   (0u != (CapSense_1_AVERAGING_FILTER & CapSense_1_LINEAR_SLIDERS_POS_FILTERS_MASK
1759:.\Generated_Source\PSoC4/CapSense_1_CSHL.c ****                */
1760:.\Generated_Source\PSoC4/CapSense_1_CSHL.c **** 
1761:.\Generated_Source\PSoC4/CapSense_1_CSHL.c ****         uint8 maximum;
1762:.\Generated_Source\PSoC4/CapSense_1_CSHL.c ****         uint16 position;
1763:.\Generated_Source\PSoC4/CapSense_1_CSHL.c ****         uint8 offset = CapSense_1_rawDataIndex[widget];
1764:.\Generated_Source\PSoC4/CapSense_1_CSHL.c ****         uint8 count = CapSense_1_numberOfSensors[widget];
1765:.\Generated_Source\PSoC4/CapSense_1_CSHL.c **** 
1766:.\Generated_Source\PSoC4/CapSense_1_CSHL.c ****         #if (CapSense_1_IS_DIPLEX_SLIDER)
1767:.\Generated_Source\PSoC4/CapSense_1_CSHL.c ****             if(widget < CapSense_1_TOTAL_DIPLEXED_SLIDERS_COUNT)
1768:.\Generated_Source\PSoC4/CapSense_1_CSHL.c ****             {
1769:.\Generated_Source\PSoC4/CapSense_1_CSHL.c ****                 maximum = CapSense_1_diplexTable[widget];
1770:.\Generated_Source\PSoC4/CapSense_1_CSHL.c ****                 diplex = &CapSense_1_diplexTable[maximum];
1771:.\Generated_Source\PSoC4/CapSense_1_CSHL.c ****             }
1772:.\Generated_Source\PSoC4/CapSense_1_CSHL.c ****             else
1773:.\Generated_Source\PSoC4/CapSense_1_CSHL.c ****             {
1774:.\Generated_Source\PSoC4/CapSense_1_CSHL.c ****                 diplex = 0u;
1775:.\Generated_Source\PSoC4/CapSense_1_CSHL.c ****             }
1776:.\Generated_Source\PSoC4/CapSense_1_CSHL.c ****         #endif /* (CapSense_1_IS_DIPLEX_SLIDER) */
1777:.\Generated_Source\PSoC4/CapSense_1_CSHL.c **** 
ARM GAS  C:\Users\syhaines\AppData\Local\Temp\ccFwROm9.s 			page 37


1778:.\Generated_Source\PSoC4/CapSense_1_CSHL.c ****         /* Find Maximum within centroid */
1779:.\Generated_Source\PSoC4/CapSense_1_CSHL.c ****         #if (CapSense_1_IS_DIPLEX_SLIDER)
1780:.\Generated_Source\PSoC4/CapSense_1_CSHL.c ****             maximum = CapSense_1_FindMaximum(offset, count, (uint8)CapSense_1_fingerThreshold[widge
1781:.\Generated_Source\PSoC4/CapSense_1_CSHL.c ****         #else
1782:.\Generated_Source\PSoC4/CapSense_1_CSHL.c ****             maximum = CapSense_1_FindMaximum(offset, count, (uint8)CapSense_1_fingerThreshold[widge
1783:.\Generated_Source\PSoC4/CapSense_1_CSHL.c ****         #endif /* (CapSense_1_IS_DIPLEX_SLIDER) */
1784:.\Generated_Source\PSoC4/CapSense_1_CSHL.c **** 
1785:.\Generated_Source\PSoC4/CapSense_1_CSHL.c ****         if (maximum != 0xFFu)
1786:.\Generated_Source\PSoC4/CapSense_1_CSHL.c ****         {
1787:.\Generated_Source\PSoC4/CapSense_1_CSHL.c ****             /* Calculate centroid */
1788:.\Generated_Source\PSoC4/CapSense_1_CSHL.c ****             position = (uint16) CapSense_1_CalcCentroid(maximum,
1789:.\Generated_Source\PSoC4/CapSense_1_CSHL.c ****                          offset, count, CapSense_1_centroidMult[widget], CapSense_1_noiseThreshold[
1790:.\Generated_Source\PSoC4/CapSense_1_CSHL.c **** 
1791:.\Generated_Source\PSoC4/CapSense_1_CSHL.c ****             #if (0u != CapSense_1_LINEAR_SLIDERS_POS_FILTERS_MASK)
1792:.\Generated_Source\PSoC4/CapSense_1_CSHL.c ****                 /* Check if this linear slider has enabled filters */
1793:.\Generated_Source\PSoC4/CapSense_1_CSHL.c ****                 if (0u != (posFiltersMask & CapSense_1_ANY_POS_FILTER))
1794:.\Generated_Source\PSoC4/CapSense_1_CSHL.c ****                 {
1795:.\Generated_Source\PSoC4/CapSense_1_CSHL.c ****                     /* Calculate position to store filters data */
1796:.\Generated_Source\PSoC4/CapSense_1_CSHL.c ****                     posIndex  = firstTimeIndex + 1u;
1797:.\Generated_Source\PSoC4/CapSense_1_CSHL.c **** 
1798:.\Generated_Source\PSoC4/CapSense_1_CSHL.c ****                     if (0u == CapSense_1_posFiltersData[firstTimeIndex])
1799:.\Generated_Source\PSoC4/CapSense_1_CSHL.c ****                     {
1800:.\Generated_Source\PSoC4/CapSense_1_CSHL.c ****                         /* Init filters */
1801:.\Generated_Source\PSoC4/CapSense_1_CSHL.c ****                         CapSense_1_posFiltersData[posIndex] = (uint8) position;
1802:.\Generated_Source\PSoC4/CapSense_1_CSHL.c ****                         #if ((0u != (CapSense_1_MEDIAN_FILTER & \
1803:.\Generated_Source\PSoC4/CapSense_1_CSHL.c ****                                      CapSense_1_LINEAR_SLIDERS_POS_FILTERS_MASK)) || \
1804:.\Generated_Source\PSoC4/CapSense_1_CSHL.c ****                              (0u != (CapSense_1_AVERAGING_FILTER & \
1805:.\Generated_Source\PSoC4/CapSense_1_CSHL.c ****                                      CapSense_1_LINEAR_SLIDERS_POS_FILTERS_MASK)))
1806:.\Generated_Source\PSoC4/CapSense_1_CSHL.c **** 
1807:.\Generated_Source\PSoC4/CapSense_1_CSHL.c ****                             if ( (0u != (posFiltersMask & CapSense_1_MEDIAN_FILTER)) ||
1808:.\Generated_Source\PSoC4/CapSense_1_CSHL.c ****                                  (0u != (posFiltersMask & CapSense_1_AVERAGING_FILTER)) )
1809:.\Generated_Source\PSoC4/CapSense_1_CSHL.c ****                             {
1810:.\Generated_Source\PSoC4/CapSense_1_CSHL.c ****                                 CapSense_1_posFiltersData[posIndex + 1u] = (uint8) position;
1811:.\Generated_Source\PSoC4/CapSense_1_CSHL.c ****                             }
1812:.\Generated_Source\PSoC4/CapSense_1_CSHL.c ****                         #endif /* ((0u != (CapSense_1_MEDIAN_FILTER & \
1813:.\Generated_Source\PSoC4/CapSense_1_CSHL.c ****                                *           CapSense_1_LINEAR_SLIDERS_POS_FILTERS_MASK)) || \
1814:.\Generated_Source\PSoC4/CapSense_1_CSHL.c ****                                *   (0u != (CapSense_1_AVERAGING_FILTER & \
1815:.\Generated_Source\PSoC4/CapSense_1_CSHL.c ****                                *           CapSense_1_LINEAR_SLIDERS_POS_FILTERS_MASK)))
1816:.\Generated_Source\PSoC4/CapSense_1_CSHL.c ****                                */
1817:.\Generated_Source\PSoC4/CapSense_1_CSHL.c **** 
1818:.\Generated_Source\PSoC4/CapSense_1_CSHL.c ****                         CapSense_1_posFiltersData[firstTimeIndex] = 1u;
1819:.\Generated_Source\PSoC4/CapSense_1_CSHL.c ****                     }
1820:.\Generated_Source\PSoC4/CapSense_1_CSHL.c ****                     else
1821:.\Generated_Source\PSoC4/CapSense_1_CSHL.c ****                     {
1822:.\Generated_Source\PSoC4/CapSense_1_CSHL.c ****                         /* Do filtering */
1823:.\Generated_Source\PSoC4/CapSense_1_CSHL.c ****                         #if (0u != (CapSense_1_MEDIAN_FILTER & CapSense_1_LINEAR_SLIDERS_POS_FILTER
1824:.\Generated_Source\PSoC4/CapSense_1_CSHL.c ****                             if (0u != (posFiltersMask & CapSense_1_MEDIAN_FILTER))
1825:.\Generated_Source\PSoC4/CapSense_1_CSHL.c ****                             {
1826:.\Generated_Source\PSoC4/CapSense_1_CSHL.c ****                                 tempPos = (uint8) position;
1827:.\Generated_Source\PSoC4/CapSense_1_CSHL.c ****                                 position = CapSense_1_MedianFilter(position,
1828:.\Generated_Source\PSoC4/CapSense_1_CSHL.c ****                                                                 (uint16)CapSense_1_posFiltersData[p
1829:.\Generated_Source\PSoC4/CapSense_1_CSHL.c ****                                                                 (uint16)CapSense_1_posFiltersData[p
1830:.\Generated_Source\PSoC4/CapSense_1_CSHL.c ****                                 CapSense_1_posFiltersData[posIndex + 1u] =
1831:.\Generated_Source\PSoC4/CapSense_1_CSHL.c ****                                                                              CapSense_1_posFiltersD
1832:.\Generated_Source\PSoC4/CapSense_1_CSHL.c ****                                 CapSense_1_posFiltersData[posIndex] = tempPos;
1833:.\Generated_Source\PSoC4/CapSense_1_CSHL.c ****                             }
1834:.\Generated_Source\PSoC4/CapSense_1_CSHL.c ****                         #endif /*(0u != (CapSense_1_MEDIAN_FILTER &
ARM GAS  C:\Users\syhaines\AppData\Local\Temp\ccFwROm9.s 			page 38


1835:.\Generated_Source\PSoC4/CapSense_1_CSHL.c ****                                *         CapSense_1_LINEAR_SLIDERS_POS_FILTERS_MASK))
1836:.\Generated_Source\PSoC4/CapSense_1_CSHL.c ****                                */
1837:.\Generated_Source\PSoC4/CapSense_1_CSHL.c **** 
1838:.\Generated_Source\PSoC4/CapSense_1_CSHL.c ****                         #if(0u!=(CapSense_1_AVERAGING_FILTER & CapSense_1_LINEAR_SLIDERS_POS_FILTER
1839:.\Generated_Source\PSoC4/CapSense_1_CSHL.c ****                             if (0u != (posFiltersMask & CapSense_1_AVERAGING_FILTER))
1840:.\Generated_Source\PSoC4/CapSense_1_CSHL.c ****                             {
1841:.\Generated_Source\PSoC4/CapSense_1_CSHL.c ****                                 tempPos = (uint8) position;
1842:.\Generated_Source\PSoC4/CapSense_1_CSHL.c ****                                 position = CapSense_1_AveragingFilter(position,
1843:.\Generated_Source\PSoC4/CapSense_1_CSHL.c ****                                                                 (uint16)CapSense_1_posFiltersData[p
1844:.\Generated_Source\PSoC4/CapSense_1_CSHL.c ****                                                                 (uint16)CapSense_1_posFiltersData[p
1845:.\Generated_Source\PSoC4/CapSense_1_CSHL.c ****                                 CapSense_1_posFiltersData[posIndex+1u]=CapSense_1_posFiltersData[po
1846:.\Generated_Source\PSoC4/CapSense_1_CSHL.c ****                                 CapSense_1_posFiltersData[posIndex] = tempPos;
1847:.\Generated_Source\PSoC4/CapSense_1_CSHL.c ****                             }
1848:.\Generated_Source\PSoC4/CapSense_1_CSHL.c ****                         #endif /* (0u != (CapSense_1_AVERAGING_FILTER & \
1849:.\Generated_Source\PSoC4/CapSense_1_CSHL.c ****                                *           CapSense_1_LINEAR_SLIDERS_POS_FILTERS_MASK))
1850:.\Generated_Source\PSoC4/CapSense_1_CSHL.c ****                                */
1851:.\Generated_Source\PSoC4/CapSense_1_CSHL.c **** 
1852:.\Generated_Source\PSoC4/CapSense_1_CSHL.c ****                         #if (0u != (CapSense_1_IIR2_FILTER & CapSense_1_LINEAR_SLIDERS_POS_FILTERS_
1853:.\Generated_Source\PSoC4/CapSense_1_CSHL.c ****                             if (0u != (posFiltersMask & CapSense_1_IIR2_FILTER))
1854:.\Generated_Source\PSoC4/CapSense_1_CSHL.c ****                             {
1855:.\Generated_Source\PSoC4/CapSense_1_CSHL.c ****                                 position = CapSense_1_IIR2Filter(position,
1856:.\Generated_Source\PSoC4/CapSense_1_CSHL.c ****                                                                     (uint16)CapSense_1_posFiltersDa
1857:.\Generated_Source\PSoC4/CapSense_1_CSHL.c ****                                 CapSense_1_posFiltersData[posIndex] = (uint8) position;
1858:.\Generated_Source\PSoC4/CapSense_1_CSHL.c ****                             }
1859:.\Generated_Source\PSoC4/CapSense_1_CSHL.c ****                         #endif /* (0u != (CapSense_1_IIR2_FILTER & \
1860:.\Generated_Source\PSoC4/CapSense_1_CSHL.c ****                                *          CapSense_1_LINEAR_SLIDERS_POS_FILTERS_MASK))
1861:.\Generated_Source\PSoC4/CapSense_1_CSHL.c ****                                */
1862:.\Generated_Source\PSoC4/CapSense_1_CSHL.c **** 
1863:.\Generated_Source\PSoC4/CapSense_1_CSHL.c ****                         #if (0u != (CapSense_1_IIR4_FILTER & CapSense_1_LINEAR_SLIDERS_POS_FILTERS_
1864:.\Generated_Source\PSoC4/CapSense_1_CSHL.c ****                             if (0u != (posFiltersMask & CapSense_1_IIR4_FILTER))
1865:.\Generated_Source\PSoC4/CapSense_1_CSHL.c ****                             {
1866:.\Generated_Source\PSoC4/CapSense_1_CSHL.c ****                                 position = CapSense_1_IIR4Filter(position,
1867:.\Generated_Source\PSoC4/CapSense_1_CSHL.c ****                                                                     (uint16)CapSense_1_posFiltersDa
1868:.\Generated_Source\PSoC4/CapSense_1_CSHL.c ****                                 CapSense_1_posFiltersData[posIndex] = (uint8) position;
1869:.\Generated_Source\PSoC4/CapSense_1_CSHL.c ****                             }
1870:.\Generated_Source\PSoC4/CapSense_1_CSHL.c ****                         #endif /* (0u != (CapSense_1_IIR4_FILTER & \
1871:.\Generated_Source\PSoC4/CapSense_1_CSHL.c ****                                *          CapSense_1_LINEAR_SLIDERS_POS_FILTERS_MASK))
1872:.\Generated_Source\PSoC4/CapSense_1_CSHL.c ****                                */
1873:.\Generated_Source\PSoC4/CapSense_1_CSHL.c **** 
1874:.\Generated_Source\PSoC4/CapSense_1_CSHL.c ****                         #if (0u != (CapSense_1_JITTER_FILTER & CapSense_1_LINEAR_SLIDERS_POS_FILTER
1875:.\Generated_Source\PSoC4/CapSense_1_CSHL.c ****                             if (0u != (posFiltersMask & CapSense_1_JITTER_FILTER))
1876:.\Generated_Source\PSoC4/CapSense_1_CSHL.c ****                             {
1877:.\Generated_Source\PSoC4/CapSense_1_CSHL.c ****                                 position = CapSense_1_JitterFilter(position,
1878:.\Generated_Source\PSoC4/CapSense_1_CSHL.c ****                                                                     (uint16)CapSense_1_posFiltersDa
1879:.\Generated_Source\PSoC4/CapSense_1_CSHL.c ****                                 CapSense_1_posFiltersData[posIndex] = (uint8) position;
1880:.\Generated_Source\PSoC4/CapSense_1_CSHL.c ****                             }
1881:.\Generated_Source\PSoC4/CapSense_1_CSHL.c ****                         #endif /* (0u != (CapSense_1_JITTER_FILTER & \
1882:.\Generated_Source\PSoC4/CapSense_1_CSHL.c ****                                *           CapSense_1_LINEAR_SLIDERS_POS_FILTERS_MASK))
1883:.\Generated_Source\PSoC4/CapSense_1_CSHL.c ****                                */
1884:.\Generated_Source\PSoC4/CapSense_1_CSHL.c ****                     }
1885:.\Generated_Source\PSoC4/CapSense_1_CSHL.c ****                 }
1886:.\Generated_Source\PSoC4/CapSense_1_CSHL.c ****             #endif /* (0u != CapSense_1_LINEAR_SLIDERS_POS_FILTERS_MASK) */
1887:.\Generated_Source\PSoC4/CapSense_1_CSHL.c **** 
1888:.\Generated_Source\PSoC4/CapSense_1_CSHL.c ****         }
1889:.\Generated_Source\PSoC4/CapSense_1_CSHL.c ****         else
1890:.\Generated_Source\PSoC4/CapSense_1_CSHL.c ****         {
1891:.\Generated_Source\PSoC4/CapSense_1_CSHL.c ****             /* Maximum wasn't found */
ARM GAS  C:\Users\syhaines\AppData\Local\Temp\ccFwROm9.s 			page 39


1892:.\Generated_Source\PSoC4/CapSense_1_CSHL.c ****             position = 0xFFFFu;
1893:.\Generated_Source\PSoC4/CapSense_1_CSHL.c **** 
1894:.\Generated_Source\PSoC4/CapSense_1_CSHL.c ****             #if(0u != CapSense_1_LINEAR_SLIDERS_POS_FILTERS_MASK)
1895:.\Generated_Source\PSoC4/CapSense_1_CSHL.c ****                 /* Reset filters */
1896:.\Generated_Source\PSoC4/CapSense_1_CSHL.c ****                 if(0u != (posFiltersMask & CapSense_1_ANY_POS_FILTER))
1897:.\Generated_Source\PSoC4/CapSense_1_CSHL.c ****                 {
1898:.\Generated_Source\PSoC4/CapSense_1_CSHL.c ****                     CapSense_1_posFiltersData[firstTimeIndex] = 0u;
1899:.\Generated_Source\PSoC4/CapSense_1_CSHL.c ****                 }
1900:.\Generated_Source\PSoC4/CapSense_1_CSHL.c ****             #endif /* (0u != CapSense_1_LINEAR_SLIDERS_POS_FILTERS_MASK) */
1901:.\Generated_Source\PSoC4/CapSense_1_CSHL.c ****         }
1902:.\Generated_Source\PSoC4/CapSense_1_CSHL.c **** 
1903:.\Generated_Source\PSoC4/CapSense_1_CSHL.c **** 
1904:.\Generated_Source\PSoC4/CapSense_1_CSHL.c ****         return (position);
1905:.\Generated_Source\PSoC4/CapSense_1_CSHL.c ****     }
1906:.\Generated_Source\PSoC4/CapSense_1_CSHL.c **** #endif /* ((CapSense_1_TOTAL_RADIAL_SLIDERS_COUNT > 0u) || (CapSense_1_TOTAL_LINEAR_SLIDERS_COUNT >
1907:.\Generated_Source\PSoC4/CapSense_1_CSHL.c **** 
1908:.\Generated_Source\PSoC4/CapSense_1_CSHL.c **** 
1909:.\Generated_Source\PSoC4/CapSense_1_CSHL.c **** #if((CapSense_1_TOTAL_RADIAL_SLIDERS_COUNT > 0u) || (CapSense_1_TOTAL_LINEAR_SLIDERS_COUNT > 0u))
1910:.\Generated_Source\PSoC4/CapSense_1_CSHL.c ****     /*******************************************************************************
1911:.\Generated_Source\PSoC4/CapSense_1_CSHL.c ****     * Function Name: CapSense_1_GetRadialCentroidPos
1912:.\Generated_Source\PSoC4/CapSense_1_CSHL.c ****     ********************************************************************************
1913:.\Generated_Source\PSoC4/CapSense_1_CSHL.c ****     *
1914:.\Generated_Source\PSoC4/CapSense_1_CSHL.c ****     * Summary:
1915:.\Generated_Source\PSoC4/CapSense_1_CSHL.c ****     *  Checks the CapSense_1_Signal[ ] array for a centroid within
1916:.\Generated_Source\PSoC4/CapSense_1_CSHL.c ****     *  a slider specified range. The centroid position is calculated according to the resolution
1917:.\Generated_Source\PSoC4/CapSense_1_CSHL.c ****     *  specified in the CapSense customizer. The position filters are applied to the
1918:.\Generated_Source\PSoC4/CapSense_1_CSHL.c ****     *  result if enabled.
1919:.\Generated_Source\PSoC4/CapSense_1_CSHL.c ****     *
1920:.\Generated_Source\PSoC4/CapSense_1_CSHL.c ****     * Parameters:
1921:.\Generated_Source\PSoC4/CapSense_1_CSHL.c ****     *  widget:  Widget number.
1922:.\Generated_Source\PSoC4/CapSense_1_CSHL.c ****     *  For every radial slider widget there are defines in this format:
1923:.\Generated_Source\PSoC4/CapSense_1_CSHL.c ****     *  #define CapSense_1_"widget_name"__RS           5
1924:.\Generated_Source\PSoC4/CapSense_1_CSHL.c ****     *
1925:.\Generated_Source\PSoC4/CapSense_1_CSHL.c ****     * Return:
1926:.\Generated_Source\PSoC4/CapSense_1_CSHL.c ****     *  Returns a position value of the radial slider.
1927:.\Generated_Source\PSoC4/CapSense_1_CSHL.c ****     *
1928:.\Generated_Source\PSoC4/CapSense_1_CSHL.c ****     * Global Variables:
1929:.\Generated_Source\PSoC4/CapSense_1_CSHL.c ****     *  None.
1930:.\Generated_Source\PSoC4/CapSense_1_CSHL.c ****     *
1931:.\Generated_Source\PSoC4/CapSense_1_CSHL.c ****     * Side Effects:
1932:.\Generated_Source\PSoC4/CapSense_1_CSHL.c ****     *  If any sensor within the slider widget is active, the function returns values
1933:.\Generated_Source\PSoC4/CapSense_1_CSHL.c ****     *  from zero to the API resolution value set in the CapSense customizer. If no
1934:.\Generated_Source\PSoC4/CapSense_1_CSHL.c ****     *  sensors are active, the function returns 0xFFFF.
1935:.\Generated_Source\PSoC4/CapSense_1_CSHL.c ****     *  There are no checks of the widget type argument provided to this function.
1936:.\Generated_Source\PSoC4/CapSense_1_CSHL.c ****     *  The unproper widget type provided will cause unexpected position calculations.
1937:.\Generated_Source\PSoC4/CapSense_1_CSHL.c ****     *
1938:.\Generated_Source\PSoC4/CapSense_1_CSHL.c ****     * Note:
1939:.\Generated_Source\PSoC4/CapSense_1_CSHL.c ****     *  If noise counts on the slider segments are greater than the noise
1940:.\Generated_Source\PSoC4/CapSense_1_CSHL.c ****     *  threshold, this subroutine may generate a false centroid result. The noise
1941:.\Generated_Source\PSoC4/CapSense_1_CSHL.c ****     *  threshold should be set carefully (high enough above the noise level) so
1942:.\Generated_Source\PSoC4/CapSense_1_CSHL.c ****     *  that noise will not generate a false centroid.
1943:.\Generated_Source\PSoC4/CapSense_1_CSHL.c ****     *
1944:.\Generated_Source\PSoC4/CapSense_1_CSHL.c ****     *******************************************************************************/
1945:.\Generated_Source\PSoC4/CapSense_1_CSHL.c ****      uint16 CapSense_1_GetRadialCentroidPos(uint32 widget)
1946:.\Generated_Source\PSoC4/CapSense_1_CSHL.c ****     {
1947:.\Generated_Source\PSoC4/CapSense_1_CSHL.c ****         #if (0u != CapSense_1_RADIAL_SLIDERS_POS_FILTERS_MASK)
1948:.\Generated_Source\PSoC4/CapSense_1_CSHL.c ****             uint8 posIndex;
ARM GAS  C:\Users\syhaines\AppData\Local\Temp\ccFwROm9.s 			page 40


1949:.\Generated_Source\PSoC4/CapSense_1_CSHL.c ****             uint8 firstTimeIndex = CapSense_1_posFiltersData[widget];
1950:.\Generated_Source\PSoC4/CapSense_1_CSHL.c ****             uint8 posFiltersMask = CapSense_1_posFiltersMask[widget];
1951:.\Generated_Source\PSoC4/CapSense_1_CSHL.c ****         #endif /* (0u != CapSense_1_RADIAL_SLIDERS_POS_FILTERS_MASK) */
1952:.\Generated_Source\PSoC4/CapSense_1_CSHL.c **** 
1953:.\Generated_Source\PSoC4/CapSense_1_CSHL.c ****         #if ((0u != (CapSense_1_MEDIAN_FILTER & CapSense_1_RADIAL_SLIDERS_POS_FILTERS_MASK)) || \
1954:.\Generated_Source\PSoC4/CapSense_1_CSHL.c ****              (0u != (CapSense_1_AVERAGING_FILTER & CapSense_1_RADIAL_SLIDERS_POS_FILTERS_MASK)))
1955:.\Generated_Source\PSoC4/CapSense_1_CSHL.c ****             uint8 tempPos;
1956:.\Generated_Source\PSoC4/CapSense_1_CSHL.c ****         #endif /* ((0u != (CapSense_1_MEDIAN_FILTER & CapSense_1_RADIAL_SLIDERS_POS_FILTERS_MASK)) 
1957:.\Generated_Source\PSoC4/CapSense_1_CSHL.c ****                *   (0u != (CapSense_1_AVERAGING_FILTER & CapSense_1_RADIAL_SLIDERS_POS_FILTERS_MASK
1958:.\Generated_Source\PSoC4/CapSense_1_CSHL.c ****                */
1959:.\Generated_Source\PSoC4/CapSense_1_CSHL.c **** 
1960:.\Generated_Source\PSoC4/CapSense_1_CSHL.c ****         uint8 maximum;
1961:.\Generated_Source\PSoC4/CapSense_1_CSHL.c ****         uint16 position;
1962:.\Generated_Source\PSoC4/CapSense_1_CSHL.c ****         uint8 offset = CapSense_1_rawDataIndex[widget];
1963:.\Generated_Source\PSoC4/CapSense_1_CSHL.c ****         uint8 count = CapSense_1_numberOfSensors[widget];
1964:.\Generated_Source\PSoC4/CapSense_1_CSHL.c **** 
1965:.\Generated_Source\PSoC4/CapSense_1_CSHL.c ****         /* Find Maximum within centroid */
1966:.\Generated_Source\PSoC4/CapSense_1_CSHL.c ****         #if (CapSense_1_IS_DIPLEX_SLIDER)
1967:.\Generated_Source\PSoC4/CapSense_1_CSHL.c ****             maximum = CapSense_1_FindMaximum(offset, count, (uint8)CapSense_1_fingerThreshold[widge
1968:.\Generated_Source\PSoC4/CapSense_1_CSHL.c ****         #else
1969:.\Generated_Source\PSoC4/CapSense_1_CSHL.c ****             maximum = CapSense_1_FindMaximum(offset, count, (uint8)CapSense_1_fingerThreshold[widge
1970:.\Generated_Source\PSoC4/CapSense_1_CSHL.c ****         #endif /* (CapSense_1_IS_DIPLEX_SLIDER) */
1971:.\Generated_Source\PSoC4/CapSense_1_CSHL.c **** 
1972:.\Generated_Source\PSoC4/CapSense_1_CSHL.c ****         if (maximum != CapSense_1_MAXIMUM_CENTROID)
1973:.\Generated_Source\PSoC4/CapSense_1_CSHL.c ****         {
1974:.\Generated_Source\PSoC4/CapSense_1_CSHL.c ****             /* Calculate centroid */
1975:.\Generated_Source\PSoC4/CapSense_1_CSHL.c ****             position = (uint16) CapSense_1_CalcCentroid(maximum,
1976:.\Generated_Source\PSoC4/CapSense_1_CSHL.c ****                          offset, count, CapSense_1_centroidMult[widget], CapSense_1_noiseThreshold[
1977:.\Generated_Source\PSoC4/CapSense_1_CSHL.c **** 
1978:.\Generated_Source\PSoC4/CapSense_1_CSHL.c ****             #if (0u != CapSense_1_RADIAL_SLIDERS_POS_FILTERS_MASK)
1979:.\Generated_Source\PSoC4/CapSense_1_CSHL.c ****                 /* Check if this Radial slider has enabled filters */
1980:.\Generated_Source\PSoC4/CapSense_1_CSHL.c ****                 if (0u != (posFiltersMask & CapSense_1_ANY_POS_FILTER))
1981:.\Generated_Source\PSoC4/CapSense_1_CSHL.c ****                 {
1982:.\Generated_Source\PSoC4/CapSense_1_CSHL.c ****                     /* Calculate position to store filters data */
1983:.\Generated_Source\PSoC4/CapSense_1_CSHL.c ****                     posIndex  = firstTimeIndex + 1u;
1984:.\Generated_Source\PSoC4/CapSense_1_CSHL.c **** 
1985:.\Generated_Source\PSoC4/CapSense_1_CSHL.c ****                     if (0u == CapSense_1_posFiltersData[firstTimeIndex])
1986:.\Generated_Source\PSoC4/CapSense_1_CSHL.c ****                     {
1987:.\Generated_Source\PSoC4/CapSense_1_CSHL.c ****                         /* Init filters */
1988:.\Generated_Source\PSoC4/CapSense_1_CSHL.c ****                         CapSense_1_posFiltersData[posIndex] = (uint8) position;
1989:.\Generated_Source\PSoC4/CapSense_1_CSHL.c ****                         #if ((0u != (CapSense_1_MEDIAN_FILTER & \
1990:.\Generated_Source\PSoC4/CapSense_1_CSHL.c ****                                      CapSense_1_RADIAL_SLIDERS_POS_FILTERS_MASK)) || \
1991:.\Generated_Source\PSoC4/CapSense_1_CSHL.c ****                              (0u != (CapSense_1_AVERAGING_FILTER & \
1992:.\Generated_Source\PSoC4/CapSense_1_CSHL.c ****                                      CapSense_1_RADIAL_SLIDERS_POS_FILTERS_MASK)))
1993:.\Generated_Source\PSoC4/CapSense_1_CSHL.c **** 
1994:.\Generated_Source\PSoC4/CapSense_1_CSHL.c ****                             if ( (0u != (posFiltersMask & CapSense_1_MEDIAN_FILTER))  ||
1995:.\Generated_Source\PSoC4/CapSense_1_CSHL.c ****                                  (0u != (posFiltersMask & CapSense_1_AVERAGING_FILTER)) )
1996:.\Generated_Source\PSoC4/CapSense_1_CSHL.c ****                             {
1997:.\Generated_Source\PSoC4/CapSense_1_CSHL.c ****                                 CapSense_1_posFiltersData[posIndex + 1u] = (uint8) position;
1998:.\Generated_Source\PSoC4/CapSense_1_CSHL.c ****                             }
1999:.\Generated_Source\PSoC4/CapSense_1_CSHL.c ****                         #endif /* ((0u != (CapSense_1_MEDIAN_FILTER & \
2000:.\Generated_Source\PSoC4/CapSense_1_CSHL.c ****                                *           CapSense_1_RADIAL_SLIDERS_POS_FILTERS_MASK)) || \
2001:.\Generated_Source\PSoC4/CapSense_1_CSHL.c ****                                *   (0u != (CapSense_1_AVERAGING_FILTER & \
2002:.\Generated_Source\PSoC4/CapSense_1_CSHL.c ****                                *           CapSense_1_RADIAL_SLIDERS_POS_FILTERS_MASK)))
2003:.\Generated_Source\PSoC4/CapSense_1_CSHL.c ****                                */
2004:.\Generated_Source\PSoC4/CapSense_1_CSHL.c **** 
2005:.\Generated_Source\PSoC4/CapSense_1_CSHL.c ****                         CapSense_1_posFiltersData[firstTimeIndex] = 1u;
ARM GAS  C:\Users\syhaines\AppData\Local\Temp\ccFwROm9.s 			page 41


2006:.\Generated_Source\PSoC4/CapSense_1_CSHL.c ****                     }
2007:.\Generated_Source\PSoC4/CapSense_1_CSHL.c ****                     else
2008:.\Generated_Source\PSoC4/CapSense_1_CSHL.c ****                     {
2009:.\Generated_Source\PSoC4/CapSense_1_CSHL.c ****                         /* Do filtering */
2010:.\Generated_Source\PSoC4/CapSense_1_CSHL.c ****                         #if (0u != (CapSense_1_MEDIAN_FILTER & CapSense_1_RADIAL_SLIDERS_POS_FILTER
2011:.\Generated_Source\PSoC4/CapSense_1_CSHL.c ****                             if (0u != (posFiltersMask & CapSense_1_MEDIAN_FILTER))
2012:.\Generated_Source\PSoC4/CapSense_1_CSHL.c ****                             {
2013:.\Generated_Source\PSoC4/CapSense_1_CSHL.c ****                                 tempPos = (uint8) position;
2014:.\Generated_Source\PSoC4/CapSense_1_CSHL.c ****                                 position = CapSense_1_MedianFilter(position,
2015:.\Generated_Source\PSoC4/CapSense_1_CSHL.c ****                                                                         CapSense_1_posFiltersData[p
2016:.\Generated_Source\PSoC4/CapSense_1_CSHL.c ****                                                                         CapSense_1_posFiltersData[p
2017:.\Generated_Source\PSoC4/CapSense_1_CSHL.c ****                                 CapSense_1_posFiltersData[posIndex + 1u] =
2018:.\Generated_Source\PSoC4/CapSense_1_CSHL.c ****                                                                               CapSense_1_posFilters
2019:.\Generated_Source\PSoC4/CapSense_1_CSHL.c ****                                 CapSense_1_posFiltersData[posIndex] = tempPos;
2020:.\Generated_Source\PSoC4/CapSense_1_CSHL.c ****                             }
2021:.\Generated_Source\PSoC4/CapSense_1_CSHL.c ****                         #endif /* (0u != (CapSense_1_MEDIAN_FILTER &
2022:.\Generated_Source\PSoC4/CapSense_1_CSHL.c ****                                *          CapSense_1_RADIAL_SLIDERS_POS_FILTERS_MASK))
2023:.\Generated_Source\PSoC4/CapSense_1_CSHL.c ****                                */
2024:.\Generated_Source\PSoC4/CapSense_1_CSHL.c **** 
2025:.\Generated_Source\PSoC4/CapSense_1_CSHL.c ****                         #if (0u != (CapSense_1_AVERAGING_FILTER & \
2026:.\Generated_Source\PSoC4/CapSense_1_CSHL.c ****                                     CapSense_1_RADIAL_SLIDERS_POS_FILTERS_MASK))
2027:.\Generated_Source\PSoC4/CapSense_1_CSHL.c ****                             if (0u != (posFiltersMask & CapSense_1_AVERAGING_FILTER))
2028:.\Generated_Source\PSoC4/CapSense_1_CSHL.c ****                             {
2029:.\Generated_Source\PSoC4/CapSense_1_CSHL.c ****                                 tempPos = (uint8) position;
2030:.\Generated_Source\PSoC4/CapSense_1_CSHL.c ****                                 position = CapSense_1_AveragingFilter(position,
2031:.\Generated_Source\PSoC4/CapSense_1_CSHL.c ****                                                                        CapSense_1_posFiltersData[po
2032:.\Generated_Source\PSoC4/CapSense_1_CSHL.c ****                                                                        CapSense_1_posFiltersData[po
2033:.\Generated_Source\PSoC4/CapSense_1_CSHL.c ****                                 CapSense_1_posFiltersData[posIndex+1u]= CapSense_1_posFiltersData[p
2034:.\Generated_Source\PSoC4/CapSense_1_CSHL.c ****                                 CapSense_1_posFiltersData[posIndex] = tempPos;
2035:.\Generated_Source\PSoC4/CapSense_1_CSHL.c ****                             }
2036:.\Generated_Source\PSoC4/CapSense_1_CSHL.c ****                         #endif /* (0u != (CapSense_1_AVERAGING_FILTER & \
2037:.\Generated_Source\PSoC4/CapSense_1_CSHL.c ****                                *          CapSense_1_RADIAL_SLIDERS_POS_FILTERS_MASK))
2038:.\Generated_Source\PSoC4/CapSense_1_CSHL.c ****                                */
2039:.\Generated_Source\PSoC4/CapSense_1_CSHL.c **** 
2040:.\Generated_Source\PSoC4/CapSense_1_CSHL.c ****                         #if (0u != (CapSense_1_IIR2_FILTER & CapSense_1_RADIAL_SLIDERS_POS_FILTERS_
2041:.\Generated_Source\PSoC4/CapSense_1_CSHL.c ****                             if (0u != (posFiltersMask & CapSense_1_IIR2_FILTER))
2042:.\Generated_Source\PSoC4/CapSense_1_CSHL.c ****                             {
2043:.\Generated_Source\PSoC4/CapSense_1_CSHL.c ****                                 position = CapSense_1_IIR2Filter(position,
2044:.\Generated_Source\PSoC4/CapSense_1_CSHL.c ****                                                                     (uint16)CapSense_1_posFiltersDa
2045:.\Generated_Source\PSoC4/CapSense_1_CSHL.c ****                                 CapSense_1_posFiltersData[posIndex] = (uint8) position;
2046:.\Generated_Source\PSoC4/CapSense_1_CSHL.c ****                             }
2047:.\Generated_Source\PSoC4/CapSense_1_CSHL.c ****                         #endif /* (0u != (CapSense_1_IIR2_FILTER &
2048:.\Generated_Source\PSoC4/CapSense_1_CSHL.c ****                                *          CapSense_1_RADIAL_SLIDERS_POS_FILTERS_MASK))
2049:.\Generated_Source\PSoC4/CapSense_1_CSHL.c ****                                */
2050:.\Generated_Source\PSoC4/CapSense_1_CSHL.c **** 
2051:.\Generated_Source\PSoC4/CapSense_1_CSHL.c ****                         #if (0u != (CapSense_1_IIR4_FILTER & CapSense_1_RADIAL_SLIDERS_POS_FILTERS_
2052:.\Generated_Source\PSoC4/CapSense_1_CSHL.c ****                             if (0u != (posFiltersMask & CapSense_1_IIR4_FILTER))
2053:.\Generated_Source\PSoC4/CapSense_1_CSHL.c ****                             {
2054:.\Generated_Source\PSoC4/CapSense_1_CSHL.c ****                                 position = CapSense_1_IIR4Filter(position,
2055:.\Generated_Source\PSoC4/CapSense_1_CSHL.c ****                                                                     (uint16)CapSense_1_posFiltersDa
2056:.\Generated_Source\PSoC4/CapSense_1_CSHL.c ****                                 CapSense_1_posFiltersData[posIndex] = (uint8) position;
2057:.\Generated_Source\PSoC4/CapSense_1_CSHL.c ****                             }
2058:.\Generated_Source\PSoC4/CapSense_1_CSHL.c ****                         #endif /* (0u != (CapSense_1_IIR4_FILTER &
2059:.\Generated_Source\PSoC4/CapSense_1_CSHL.c ****                                *          CapSense_1_RADIAL_SLIDERS_POS_FILTERS_MASK))
2060:.\Generated_Source\PSoC4/CapSense_1_CSHL.c ****                                */
2061:.\Generated_Source\PSoC4/CapSense_1_CSHL.c **** 
2062:.\Generated_Source\PSoC4/CapSense_1_CSHL.c ****                         #if (0u != (CapSense_1_JITTER_FILTER & CapSense_1_RADIAL_SLIDERS_POS_FILTER
ARM GAS  C:\Users\syhaines\AppData\Local\Temp\ccFwROm9.s 			page 42


2063:.\Generated_Source\PSoC4/CapSense_1_CSHL.c ****                             if (0u != (posFiltersMask & CapSense_1_JITTER_FILTER))
2064:.\Generated_Source\PSoC4/CapSense_1_CSHL.c ****                             {
2065:.\Generated_Source\PSoC4/CapSense_1_CSHL.c ****                                 position = CapSense_1_JitterFilter(position,
2066:.\Generated_Source\PSoC4/CapSense_1_CSHL.c ****                                                                          CapSense_1_posFiltersData[
2067:.\Generated_Source\PSoC4/CapSense_1_CSHL.c ****                                 CapSense_1_posFiltersData[posIndex] = (uint8) position;
2068:.\Generated_Source\PSoC4/CapSense_1_CSHL.c ****                             }
2069:.\Generated_Source\PSoC4/CapSense_1_CSHL.c ****                         #endif /* (0u != (CapSense_1_JITTER_FILTER &
2070:.\Generated_Source\PSoC4/CapSense_1_CSHL.c ****                                *           CapSense_1_RADIAL_SLIDERS_POS_FILTERS_MASK))
2071:.\Generated_Source\PSoC4/CapSense_1_CSHL.c ****                                */
2072:.\Generated_Source\PSoC4/CapSense_1_CSHL.c ****                     }
2073:.\Generated_Source\PSoC4/CapSense_1_CSHL.c ****                 }
2074:.\Generated_Source\PSoC4/CapSense_1_CSHL.c ****             #endif /* (0u != CapSense_1_RADIAL_SLIDERS_POS_FILTERS_MASK) */
2075:.\Generated_Source\PSoC4/CapSense_1_CSHL.c **** 
2076:.\Generated_Source\PSoC4/CapSense_1_CSHL.c ****         }
2077:.\Generated_Source\PSoC4/CapSense_1_CSHL.c ****         else
2078:.\Generated_Source\PSoC4/CapSense_1_CSHL.c ****         {
2079:.\Generated_Source\PSoC4/CapSense_1_CSHL.c ****             /* Maximum was not found */
2080:.\Generated_Source\PSoC4/CapSense_1_CSHL.c ****             position = 0xFFFFu;
2081:.\Generated_Source\PSoC4/CapSense_1_CSHL.c **** 
2082:.\Generated_Source\PSoC4/CapSense_1_CSHL.c ****             #if (0u != CapSense_1_RADIAL_SLIDERS_POS_FILTERS_MASK)
2083:.\Generated_Source\PSoC4/CapSense_1_CSHL.c ****                 /* Reset filters */
2084:.\Generated_Source\PSoC4/CapSense_1_CSHL.c ****                 if((posFiltersMask & CapSense_1_ANY_POS_FILTER) != 0u)
2085:.\Generated_Source\PSoC4/CapSense_1_CSHL.c ****                 {
2086:.\Generated_Source\PSoC4/CapSense_1_CSHL.c ****                     CapSense_1_posFiltersData[firstTimeIndex] = 0u;
2087:.\Generated_Source\PSoC4/CapSense_1_CSHL.c ****                 }
2088:.\Generated_Source\PSoC4/CapSense_1_CSHL.c ****             #endif /* (0u != CapSense_1_RADIAL_SLIDERS_POS_FILTERS_MASK) */
2089:.\Generated_Source\PSoC4/CapSense_1_CSHL.c ****         }
2090:.\Generated_Source\PSoC4/CapSense_1_CSHL.c **** 
2091:.\Generated_Source\PSoC4/CapSense_1_CSHL.c ****         return (position);
2092:.\Generated_Source\PSoC4/CapSense_1_CSHL.c ****     }
2093:.\Generated_Source\PSoC4/CapSense_1_CSHL.c **** #endif /* ((CapSense_1_TOTAL_RADIAL_SLIDERS_COUNT > 0u) || (CapSense_1_TOTAL_LINEAR_SLIDERS_COUNT >
2094:.\Generated_Source\PSoC4/CapSense_1_CSHL.c **** 
2095:.\Generated_Source\PSoC4/CapSense_1_CSHL.c **** 
2096:.\Generated_Source\PSoC4/CapSense_1_CSHL.c **** #if(CapSense_1_TOTAL_TOUCH_PADS_BASIC_COUNT > 0u)
2097:.\Generated_Source\PSoC4/CapSense_1_CSHL.c ****     /*******************************************************************************
2098:.\Generated_Source\PSoC4/CapSense_1_CSHL.c ****     * Function Name: CapSense_1_GetTouchCentroidPos
2099:.\Generated_Source\PSoC4/CapSense_1_CSHL.c ****     ********************************************************************************
2100:.\Generated_Source\PSoC4/CapSense_1_CSHL.c ****     *
2101:.\Generated_Source\PSoC4/CapSense_1_CSHL.c ****     * Summary:
2102:.\Generated_Source\PSoC4/CapSense_1_CSHL.c ****     *  If a finger is present on a touchpad, this function calculates the X and Y
2103:.\Generated_Source\PSoC4/CapSense_1_CSHL.c ****     *  position of the finger by calculating the centroids within touchpad specified
2104:.\Generated_Source\PSoC4/CapSense_1_CSHL.c ****     *  range. The X and Y positions are calculated according to the API resolutions set in the
2105:.\Generated_Source\PSoC4/CapSense_1_CSHL.c ****     *  CapSense customizer. Returns 1 if a finger is on the touchpad.
2106:.\Generated_Source\PSoC4/CapSense_1_CSHL.c ****     *  The position filter is applied to the result if enabled.
2107:.\Generated_Source\PSoC4/CapSense_1_CSHL.c ****     *  This function is available only if a touch pad is defined by the CapSense
2108:.\Generated_Source\PSoC4/CapSense_1_CSHL.c ****     *  customizer.
2109:.\Generated_Source\PSoC4/CapSense_1_CSHL.c ****     *
2110:.\Generated_Source\PSoC4/CapSense_1_CSHL.c ****     * Parameters:
2111:.\Generated_Source\PSoC4/CapSense_1_CSHL.c ****     *  widget:  Widget number.
2112:.\Generated_Source\PSoC4/CapSense_1_CSHL.c ****     *  For every touchpad widget there are defines in this format:
2113:.\Generated_Source\PSoC4/CapSense_1_CSHL.c ****     *  #define CapSense_1_"widget_name"__TP            5
2114:.\Generated_Source\PSoC4/CapSense_1_CSHL.c ****     *
2115:.\Generated_Source\PSoC4/CapSense_1_CSHL.c ****     *  pos:     Pointer to the array of two uint16 elements, where result
2116:.\Generated_Source\PSoC4/CapSense_1_CSHL.c ****     *  result of calculation of X and Y position are stored.
2117:.\Generated_Source\PSoC4/CapSense_1_CSHL.c ****     *  pos[0u]  - position of X
2118:.\Generated_Source\PSoC4/CapSense_1_CSHL.c ****     *  pos[1u]  - position of Y
2119:.\Generated_Source\PSoC4/CapSense_1_CSHL.c ****     *
ARM GAS  C:\Users\syhaines\AppData\Local\Temp\ccFwROm9.s 			page 43


2120:.\Generated_Source\PSoC4/CapSense_1_CSHL.c ****     * Return:
2121:.\Generated_Source\PSoC4/CapSense_1_CSHL.c ****     *  Returns a 1 if a finger is on the touch pad, 0 - if not.
2122:.\Generated_Source\PSoC4/CapSense_1_CSHL.c ****     *
2123:.\Generated_Source\PSoC4/CapSense_1_CSHL.c ****     * Global Variables:
2124:.\Generated_Source\PSoC4/CapSense_1_CSHL.c ****     *  None.
2125:.\Generated_Source\PSoC4/CapSense_1_CSHL.c ****     *
2126:.\Generated_Source\PSoC4/CapSense_1_CSHL.c ****     * Side Effects:
2127:.\Generated_Source\PSoC4/CapSense_1_CSHL.c ****     *   There are no checks of the widget type argument provided to this function.
2128:.\Generated_Source\PSoC4/CapSense_1_CSHL.c ****     *   The unproper widget type provided will cause unexpected position
2129:.\Generated_Source\PSoC4/CapSense_1_CSHL.c ****     *   calculations.
2130:.\Generated_Source\PSoC4/CapSense_1_CSHL.c ****     *
2131:.\Generated_Source\PSoC4/CapSense_1_CSHL.c ****     *******************************************************************************/
2132:.\Generated_Source\PSoC4/CapSense_1_CSHL.c ****     uint32 CapSense_1_GetTouchCentroidPos(uint32 widget, uint16* pos)
2133:.\Generated_Source\PSoC4/CapSense_1_CSHL.c ****     {
2134:.\Generated_Source\PSoC4/CapSense_1_CSHL.c ****         #if (0u != CapSense_1_TOUCH_PADS_POS_FILTERS_MASK)
2135:.\Generated_Source\PSoC4/CapSense_1_CSHL.c ****             uint8 posXIndex;
2136:.\Generated_Source\PSoC4/CapSense_1_CSHL.c ****             uint8 posYIndex;
2137:.\Generated_Source\PSoC4/CapSense_1_CSHL.c ****             uint8 firstTimeIndex = CapSense_1_posFiltersData[widget];
2138:.\Generated_Source\PSoC4/CapSense_1_CSHL.c ****             uint8 posFiltersMask = CapSense_1_posFiltersMask[widget];
2139:.\Generated_Source\PSoC4/CapSense_1_CSHL.c ****         #endif /* (0u != CapSense_1_TOUCH_PADS_POS_FILTERS_MASK) */
2140:.\Generated_Source\PSoC4/CapSense_1_CSHL.c **** 
2141:.\Generated_Source\PSoC4/CapSense_1_CSHL.c ****         #if ((0u != (CapSense_1_MEDIAN_FILTER & CapSense_1_TOUCH_PADS_POS_FILTERS_MASK)) || \
2142:.\Generated_Source\PSoC4/CapSense_1_CSHL.c ****              (0u != (CapSense_1_AVERAGING_FILTER & CapSense_1_TOUCH_PADS_POS_FILTERS_MASK)))
2143:.\Generated_Source\PSoC4/CapSense_1_CSHL.c ****             uint16 tempPos;
2144:.\Generated_Source\PSoC4/CapSense_1_CSHL.c ****         #endif /* ((0u != (CapSense_1_MEDIAN_FILTER & CapSense_1_TOUCH_PADS_POS_FILTERS_MASK)) || \
2145:.\Generated_Source\PSoC4/CapSense_1_CSHL.c ****                *   (0u != (CapSense_1_AVERAGING_FILTER & CapSense_1_TOUCH_PADS_POS_FILTERS_MASK)))
2146:.\Generated_Source\PSoC4/CapSense_1_CSHL.c ****                */
2147:.\Generated_Source\PSoC4/CapSense_1_CSHL.c **** 
2148:.\Generated_Source\PSoC4/CapSense_1_CSHL.c ****         uint8 MaxX;
2149:.\Generated_Source\PSoC4/CapSense_1_CSHL.c ****         uint8 MaxY;
2150:.\Generated_Source\PSoC4/CapSense_1_CSHL.c ****         uint8 posX;
2151:.\Generated_Source\PSoC4/CapSense_1_CSHL.c ****         uint8 posY;
2152:.\Generated_Source\PSoC4/CapSense_1_CSHL.c ****         uint32 touch = 0u;
2153:.\Generated_Source\PSoC4/CapSense_1_CSHL.c ****         uint8 offset = CapSense_1_rawDataIndex[widget];
2154:.\Generated_Source\PSoC4/CapSense_1_CSHL.c ****         uint8 count = CapSense_1_numberOfSensors[widget];
2155:.\Generated_Source\PSoC4/CapSense_1_CSHL.c **** 
2156:.\Generated_Source\PSoC4/CapSense_1_CSHL.c ****         /* Find Maximum within X centroid */
2157:.\Generated_Source\PSoC4/CapSense_1_CSHL.c ****         #if (CapSense_1_IS_DIPLEX_SLIDER)
2158:.\Generated_Source\PSoC4/CapSense_1_CSHL.c ****             MaxX = CapSense_1_FindMaximum(offset, count, CapSense_1_fingerThreshold[widget], 0u);
2159:.\Generated_Source\PSoC4/CapSense_1_CSHL.c ****         #else
2160:.\Generated_Source\PSoC4/CapSense_1_CSHL.c ****             MaxX = CapSense_1_FindMaximum(offset, count, CapSense_1_fingerThreshold[widget]);
2161:.\Generated_Source\PSoC4/CapSense_1_CSHL.c ****         #endif /* (CapSense_1_IS_DIPLEX_SLIDER) */
2162:.\Generated_Source\PSoC4/CapSense_1_CSHL.c **** 
2163:.\Generated_Source\PSoC4/CapSense_1_CSHL.c ****         if (MaxX != CapSense_1_MAXIMUM_CENTROID)
2164:.\Generated_Source\PSoC4/CapSense_1_CSHL.c ****         {
2165:.\Generated_Source\PSoC4/CapSense_1_CSHL.c ****             offset = CapSense_1_rawDataIndex[widget + 1u];
2166:.\Generated_Source\PSoC4/CapSense_1_CSHL.c ****             count = CapSense_1_numberOfSensors[widget + 1u];
2167:.\Generated_Source\PSoC4/CapSense_1_CSHL.c **** 
2168:.\Generated_Source\PSoC4/CapSense_1_CSHL.c ****             /* Find Maximum within Y centroid */
2169:.\Generated_Source\PSoC4/CapSense_1_CSHL.c ****             #if (CapSense_1_IS_DIPLEX_SLIDER)
2170:.\Generated_Source\PSoC4/CapSense_1_CSHL.c ****                 MaxY = CapSense_1_FindMaximum(offset, count, CapSense_1_fingerThreshold[widget + 1u
2171:.\Generated_Source\PSoC4/CapSense_1_CSHL.c ****             #else
2172:.\Generated_Source\PSoC4/CapSense_1_CSHL.c ****                 MaxY = CapSense_1_FindMaximum(offset, count, CapSense_1_fingerThreshold[widget + 1u
2173:.\Generated_Source\PSoC4/CapSense_1_CSHL.c ****             #endif /* (CapSense_1_IS_DIPLEX_SLIDER) */
2174:.\Generated_Source\PSoC4/CapSense_1_CSHL.c **** 
2175:.\Generated_Source\PSoC4/CapSense_1_CSHL.c ****             if (MaxY != CapSense_1_MAXIMUM_CENTROID)
2176:.\Generated_Source\PSoC4/CapSense_1_CSHL.c ****             {
ARM GAS  C:\Users\syhaines\AppData\Local\Temp\ccFwROm9.s 			page 44


2177:.\Generated_Source\PSoC4/CapSense_1_CSHL.c ****                 /* X and Y maximums are found = true touch */
2178:.\Generated_Source\PSoC4/CapSense_1_CSHL.c ****                 touch = 1u;
2179:.\Generated_Source\PSoC4/CapSense_1_CSHL.c **** 
2180:.\Generated_Source\PSoC4/CapSense_1_CSHL.c ****                 /* Calculate Y centroid */
2181:.\Generated_Source\PSoC4/CapSense_1_CSHL.c ****                 posY = CapSense_1_CalcCentroid(MaxY, offset, count,
2182:.\Generated_Source\PSoC4/CapSense_1_CSHL.c ****                             CapSense_1_centroidMult[widget + 1u], CapSense_1_noiseThreshold[widget 
2183:.\Generated_Source\PSoC4/CapSense_1_CSHL.c **** 
2184:.\Generated_Source\PSoC4/CapSense_1_CSHL.c ****                 /* Calculate X centroid */
2185:.\Generated_Source\PSoC4/CapSense_1_CSHL.c ****                 offset = CapSense_1_rawDataIndex[widget];
2186:.\Generated_Source\PSoC4/CapSense_1_CSHL.c ****                 count = CapSense_1_numberOfSensors[widget];
2187:.\Generated_Source\PSoC4/CapSense_1_CSHL.c **** 
2188:.\Generated_Source\PSoC4/CapSense_1_CSHL.c ****                 posX = CapSense_1_CalcCentroid(MaxX, offset, count,
2189:.\Generated_Source\PSoC4/CapSense_1_CSHL.c ****                             CapSense_1_centroidMult[widget],CapSense_1_noiseThreshold[widget]);
2190:.\Generated_Source\PSoC4/CapSense_1_CSHL.c **** 
2191:.\Generated_Source\PSoC4/CapSense_1_CSHL.c ****                 #if (0u != CapSense_1_TOUCH_PADS_POS_FILTERS_MASK)
2192:.\Generated_Source\PSoC4/CapSense_1_CSHL.c ****                     /* Check if this TP has enabled filters */
2193:.\Generated_Source\PSoC4/CapSense_1_CSHL.c ****                     if (0u != (posFiltersMask & CapSense_1_ANY_POS_FILTER))
2194:.\Generated_Source\PSoC4/CapSense_1_CSHL.c ****                     {
2195:.\Generated_Source\PSoC4/CapSense_1_CSHL.c ****                         /* Calculate position to store filters data */
2196:.\Generated_Source\PSoC4/CapSense_1_CSHL.c ****                         posXIndex  = firstTimeIndex + 1u;
2197:.\Generated_Source\PSoC4/CapSense_1_CSHL.c ****                         posYIndex  = CapSense_1_posFiltersData[widget + 1u];
2198:.\Generated_Source\PSoC4/CapSense_1_CSHL.c **** 
2199:.\Generated_Source\PSoC4/CapSense_1_CSHL.c ****                         if (0u == CapSense_1_posFiltersData[firstTimeIndex])
2200:.\Generated_Source\PSoC4/CapSense_1_CSHL.c ****                         {
2201:.\Generated_Source\PSoC4/CapSense_1_CSHL.c ****                             /* Init filters */
2202:.\Generated_Source\PSoC4/CapSense_1_CSHL.c ****                             CapSense_1_posFiltersData[posXIndex] = posX;
2203:.\Generated_Source\PSoC4/CapSense_1_CSHL.c ****                             CapSense_1_posFiltersData[posYIndex] = posY;
2204:.\Generated_Source\PSoC4/CapSense_1_CSHL.c **** 
2205:.\Generated_Source\PSoC4/CapSense_1_CSHL.c ****                             #if((0u != (CapSense_1_MEDIAN_FILTER & \
2206:.\Generated_Source\PSoC4/CapSense_1_CSHL.c ****                                         CapSense_1_TOUCH_PADS_POS_FILTERS_MASK))|| \
2207:.\Generated_Source\PSoC4/CapSense_1_CSHL.c ****                                 (0u != (CapSense_1_AVERAGING_FILTER & \
2208:.\Generated_Source\PSoC4/CapSense_1_CSHL.c ****                                         CapSense_1_TOUCH_PADS_POS_FILTERS_MASK)))
2209:.\Generated_Source\PSoC4/CapSense_1_CSHL.c **** 
2210:.\Generated_Source\PSoC4/CapSense_1_CSHL.c ****                                 if ( (0u != (posFiltersMask & CapSense_1_MEDIAN_FILTER)) ||
2211:.\Generated_Source\PSoC4/CapSense_1_CSHL.c ****                                      (0u != (posFiltersMask & CapSense_1_AVERAGING_FILTER)) )
2212:.\Generated_Source\PSoC4/CapSense_1_CSHL.c ****                                 {
2213:.\Generated_Source\PSoC4/CapSense_1_CSHL.c ****                                     CapSense_1_posFiltersData[posXIndex + 1u] = posX;
2214:.\Generated_Source\PSoC4/CapSense_1_CSHL.c ****                                     CapSense_1_posFiltersData[posYIndex + 1u] = posY;
2215:.\Generated_Source\PSoC4/CapSense_1_CSHL.c ****                                 }
2216:.\Generated_Source\PSoC4/CapSense_1_CSHL.c ****                             #endif /* ((0u != (CapSense_1_MEDIAN_FILTER & \
2217:.\Generated_Source\PSoC4/CapSense_1_CSHL.c ****                                    *           CapSense_1_TOUCH_PADS_POS_FILTERS_MASK)) || \
2218:.\Generated_Source\PSoC4/CapSense_1_CSHL.c ****                                    *    (0u != (CapSense_1_AVERAGING_FILTER & \
2219:.\Generated_Source\PSoC4/CapSense_1_CSHL.c ****                                    *            CapSense_1_TOUCH_PADS_POS_FILTERS_MASK)))
2220:.\Generated_Source\PSoC4/CapSense_1_CSHL.c ****                                    */
2221:.\Generated_Source\PSoC4/CapSense_1_CSHL.c **** 
2222:.\Generated_Source\PSoC4/CapSense_1_CSHL.c ****                             CapSense_1_posFiltersData[firstTimeIndex] = 1u;
2223:.\Generated_Source\PSoC4/CapSense_1_CSHL.c ****                         }
2224:.\Generated_Source\PSoC4/CapSense_1_CSHL.c ****                         else
2225:.\Generated_Source\PSoC4/CapSense_1_CSHL.c ****                         {
2226:.\Generated_Source\PSoC4/CapSense_1_CSHL.c ****                             /* Do filtering */
2227:.\Generated_Source\PSoC4/CapSense_1_CSHL.c ****                             #if (0u != (CapSense_1_MEDIAN_FILTER & CapSense_1_TOUCH_PADS_POS_FILTER
2228:.\Generated_Source\PSoC4/CapSense_1_CSHL.c ****                                 if (0u != (posFiltersMask & CapSense_1_MEDIAN_FILTER))
2229:.\Generated_Source\PSoC4/CapSense_1_CSHL.c ****                                 {
2230:.\Generated_Source\PSoC4/CapSense_1_CSHL.c ****                                     tempPos = posX;
2231:.\Generated_Source\PSoC4/CapSense_1_CSHL.c ****                                     posX = (uint8) CapSense_1_MedianFilter(posX,
2232:.\Generated_Source\PSoC4/CapSense_1_CSHL.c ****                                                                       CapSense_1_posFiltersData[pos
2233:.\Generated_Source\PSoC4/CapSense_1_CSHL.c ****                                                                       CapSense_1_posFiltersData[pos
ARM GAS  C:\Users\syhaines\AppData\Local\Temp\ccFwROm9.s 			page 45


2234:.\Generated_Source\PSoC4/CapSense_1_CSHL.c ****                                     CapSense_1_posFiltersData[posXIndex + 1u] =
2235:.\Generated_Source\PSoC4/CapSense_1_CSHL.c ****                                                                              CapSense_1_posFiltersD
2236:.\Generated_Source\PSoC4/CapSense_1_CSHL.c ****                                     CapSense_1_posFiltersData[posXIndex] = tempPos;
2237:.\Generated_Source\PSoC4/CapSense_1_CSHL.c **** 
2238:.\Generated_Source\PSoC4/CapSense_1_CSHL.c ****                                     tempPos = posY;
2239:.\Generated_Source\PSoC4/CapSense_1_CSHL.c ****                                     posY = (uint8) CapSense_1_MedianFilter(posY,
2240:.\Generated_Source\PSoC4/CapSense_1_CSHL.c ****                                                                        CapSense_1_posFiltersData[po
2241:.\Generated_Source\PSoC4/CapSense_1_CSHL.c ****                                                                        CapSense_1_posFiltersData[po
2242:.\Generated_Source\PSoC4/CapSense_1_CSHL.c ****                                     CapSense_1_posFiltersData[posYIndex + 1u] =
2243:.\Generated_Source\PSoC4/CapSense_1_CSHL.c ****                                                                              CapSense_1_posFiltersD
2244:.\Generated_Source\PSoC4/CapSense_1_CSHL.c ****                                     CapSense_1_posFiltersData[posYIndex] = tempPos;
2245:.\Generated_Source\PSoC4/CapSense_1_CSHL.c ****                                 }
2246:.\Generated_Source\PSoC4/CapSense_1_CSHL.c **** 
2247:.\Generated_Source\PSoC4/CapSense_1_CSHL.c ****                             #endif /* (0u != (CapSense_1_MEDIAN_FILTER & \
2248:.\Generated_Source\PSoC4/CapSense_1_CSHL.c ****                                    *          CapSense_1_TOUCH_PADS_POS_FILTERS_MASK))
2249:.\Generated_Source\PSoC4/CapSense_1_CSHL.c ****                                    */
2250:.\Generated_Source\PSoC4/CapSense_1_CSHL.c **** 
2251:.\Generated_Source\PSoC4/CapSense_1_CSHL.c ****                             #if(0u !=(CapSense_1_AVERAGING_FILTER & CapSense_1_TOUCH_PADS_POS_FILTE
2252:.\Generated_Source\PSoC4/CapSense_1_CSHL.c ****                                 if (0u != (posFiltersMask & CapSense_1_AVERAGING_FILTER))
2253:.\Generated_Source\PSoC4/CapSense_1_CSHL.c ****                                 {
2254:.\Generated_Source\PSoC4/CapSense_1_CSHL.c ****                                     tempPos = posX;
2255:.\Generated_Source\PSoC4/CapSense_1_CSHL.c ****                                     posX = (uint8) CapSense_1_AveragingFilter(posX,
2256:.\Generated_Source\PSoC4/CapSense_1_CSHL.c ****                                                                        CapSense_1_posFiltersData[po
2257:.\Generated_Source\PSoC4/CapSense_1_CSHL.c ****                                                                        CapSense_1_posFiltersData[po
2258:.\Generated_Source\PSoC4/CapSense_1_CSHL.c ****                                     CapSense_1_posFiltersData[posXIndex + 1u] =
2259:.\Generated_Source\PSoC4/CapSense_1_CSHL.c ****                                                                              CapSense_1_posFiltersD
2260:.\Generated_Source\PSoC4/CapSense_1_CSHL.c ****                                     CapSense_1_posFiltersData[posXIndex] = tempPos;
2261:.\Generated_Source\PSoC4/CapSense_1_CSHL.c **** 
2262:.\Generated_Source\PSoC4/CapSense_1_CSHL.c ****                                     tempPos = posY;
2263:.\Generated_Source\PSoC4/CapSense_1_CSHL.c ****                                     posY = (uint8) CapSense_1_AveragingFilter(posY,
2264:.\Generated_Source\PSoC4/CapSense_1_CSHL.c ****                                                                       CapSense_1_posFiltersData[pos
2265:.\Generated_Source\PSoC4/CapSense_1_CSHL.c ****                                                                       CapSense_1_posFiltersData[pos
2266:.\Generated_Source\PSoC4/CapSense_1_CSHL.c ****                                     CapSense_1_posFiltersData[posYIndex + 1u] =
2267:.\Generated_Source\PSoC4/CapSense_1_CSHL.c ****                                                                             CapSense_1_posFiltersDa
2268:.\Generated_Source\PSoC4/CapSense_1_CSHL.c ****                                     CapSense_1_posFiltersData[posYIndex] = tempPos;
2269:.\Generated_Source\PSoC4/CapSense_1_CSHL.c ****                                 }
2270:.\Generated_Source\PSoC4/CapSense_1_CSHL.c **** 
2271:.\Generated_Source\PSoC4/CapSense_1_CSHL.c ****                             #endif /* (0u != (CapSense_1_AVERAGING_FILTER & \
2272:.\Generated_Source\PSoC4/CapSense_1_CSHL.c ****                                    *           CapSense_1_TOUCH_PADS_POS_FILTERS_MASK))
2273:.\Generated_Source\PSoC4/CapSense_1_CSHL.c ****                                    */
2274:.\Generated_Source\PSoC4/CapSense_1_CSHL.c **** 
2275:.\Generated_Source\PSoC4/CapSense_1_CSHL.c ****                             #if (0u != (CapSense_1_IIR2_FILTER & CapSense_1_TOUCH_PADS_POS_FILTERS_
2276:.\Generated_Source\PSoC4/CapSense_1_CSHL.c ****                                 if (0u != (posFiltersMask & CapSense_1_IIR2_FILTER))
2277:.\Generated_Source\PSoC4/CapSense_1_CSHL.c ****                                 {
2278:.\Generated_Source\PSoC4/CapSense_1_CSHL.c ****                                     posX = (uint8) CapSense_1_IIR2Filter(posX,
2279:.\Generated_Source\PSoC4/CapSense_1_CSHL.c ****                                                                            CapSense_1_posFiltersDat
2280:.\Generated_Source\PSoC4/CapSense_1_CSHL.c ****                                     CapSense_1_posFiltersData[posXIndex] = posX;
2281:.\Generated_Source\PSoC4/CapSense_1_CSHL.c **** 
2282:.\Generated_Source\PSoC4/CapSense_1_CSHL.c ****                                     posY = (uint8) CapSense_1_IIR2Filter(posY,
2283:.\Generated_Source\PSoC4/CapSense_1_CSHL.c ****                                                                             CapSense_1_posFiltersDa
2284:.\Generated_Source\PSoC4/CapSense_1_CSHL.c ****                                     CapSense_1_posFiltersData[posYIndex] = posY;
2285:.\Generated_Source\PSoC4/CapSense_1_CSHL.c ****                                 }
2286:.\Generated_Source\PSoC4/CapSense_1_CSHL.c **** 
2287:.\Generated_Source\PSoC4/CapSense_1_CSHL.c ****                             #endif /* (0u != (CapSense_1_IIR2_FILTER & \
2288:.\Generated_Source\PSoC4/CapSense_1_CSHL.c ****                                    *          CapSense_1_TOUCH_PADS_POS_FILTERS_MASK))
2289:.\Generated_Source\PSoC4/CapSense_1_CSHL.c ****                                    */
2290:.\Generated_Source\PSoC4/CapSense_1_CSHL.c **** 
ARM GAS  C:\Users\syhaines\AppData\Local\Temp\ccFwROm9.s 			page 46


2291:.\Generated_Source\PSoC4/CapSense_1_CSHL.c ****                             #if (0u != (CapSense_1_IIR4_FILTER & CapSense_1_TOUCH_PADS_POS_FILTERS_
2292:.\Generated_Source\PSoC4/CapSense_1_CSHL.c ****                                 if (0u != (posFiltersMask & CapSense_1_IIR4_FILTER))
2293:.\Generated_Source\PSoC4/CapSense_1_CSHL.c ****                                 {
2294:.\Generated_Source\PSoC4/CapSense_1_CSHL.c ****                                     posX = (uint8) CapSense_1_IIR4Filter((uint16)posX,
2295:.\Generated_Source\PSoC4/CapSense_1_CSHL.c ****                                                                     (uint16)CapSense_1_posFiltersDa
2296:.\Generated_Source\PSoC4/CapSense_1_CSHL.c ****                                     CapSense_1_posFiltersData[posXIndex] = posX;
2297:.\Generated_Source\PSoC4/CapSense_1_CSHL.c **** 
2298:.\Generated_Source\PSoC4/CapSense_1_CSHL.c ****                                     posY = (uint8) CapSense_1_IIR4Filter((uint16)posY,
2299:.\Generated_Source\PSoC4/CapSense_1_CSHL.c ****                                                                     (uint16)CapSense_1_posFiltersDa
2300:.\Generated_Source\PSoC4/CapSense_1_CSHL.c ****                                     CapSense_1_posFiltersData[posYIndex] = posY;
2301:.\Generated_Source\PSoC4/CapSense_1_CSHL.c ****                                 }
2302:.\Generated_Source\PSoC4/CapSense_1_CSHL.c **** 
2303:.\Generated_Source\PSoC4/CapSense_1_CSHL.c ****                             #endif /* (0u != (CapSense_1_IIR4_FILTER & \
2304:.\Generated_Source\PSoC4/CapSense_1_CSHL.c ****                                    *           CapSense_1_TOUCH_PADS_POS_FILTERS_MASK))
2305:.\Generated_Source\PSoC4/CapSense_1_CSHL.c ****                                    */
2306:.\Generated_Source\PSoC4/CapSense_1_CSHL.c **** 
2307:.\Generated_Source\PSoC4/CapSense_1_CSHL.c ****                             #if (0u != (CapSense_1_JITTER_FILTER & CapSense_1_TOUCH_PADS_POS_FILTER
2308:.\Generated_Source\PSoC4/CapSense_1_CSHL.c ****                                 if (0u != (posFiltersMask & CapSense_1_JITTER_FILTER))
2309:.\Generated_Source\PSoC4/CapSense_1_CSHL.c ****                                     {
2310:.\Generated_Source\PSoC4/CapSense_1_CSHL.c ****                                         posX = (uint8) CapSense_1_JitterFilter(posX,
2311:.\Generated_Source\PSoC4/CapSense_1_CSHL.c ****                                                                             CapSense_1_posFiltersDa
2312:.\Generated_Source\PSoC4/CapSense_1_CSHL.c ****                                         CapSense_1_posFiltersData[posXIndex] = posX;
2313:.\Generated_Source\PSoC4/CapSense_1_CSHL.c **** 
2314:.\Generated_Source\PSoC4/CapSense_1_CSHL.c ****                                         posY = (uint8) CapSense_1_JitterFilter(posY,
2315:.\Generated_Source\PSoC4/CapSense_1_CSHL.c ****                                                                             CapSense_1_posFiltersDa
2316:.\Generated_Source\PSoC4/CapSense_1_CSHL.c ****                                         CapSense_1_posFiltersData[posYIndex] = posY;
2317:.\Generated_Source\PSoC4/CapSense_1_CSHL.c ****                                     }
2318:.\Generated_Source\PSoC4/CapSense_1_CSHL.c ****                             #endif /* (0u != (CapSense_1_JITTER_FILTER & \
2319:.\Generated_Source\PSoC4/CapSense_1_CSHL.c ****                                    *           CapSense_1_TOUCH_PADS_POS_FILTERS_MASK))
2320:.\Generated_Source\PSoC4/CapSense_1_CSHL.c ****                                    */
2321:.\Generated_Source\PSoC4/CapSense_1_CSHL.c ****                         }
2322:.\Generated_Source\PSoC4/CapSense_1_CSHL.c ****                     }
2323:.\Generated_Source\PSoC4/CapSense_1_CSHL.c ****                 #endif /* (0u != CapSense_1_TOUCH_PADS_POS_FILTERS_MASK) */
2324:.\Generated_Source\PSoC4/CapSense_1_CSHL.c **** 
2325:.\Generated_Source\PSoC4/CapSense_1_CSHL.c ****                 /* Save positions */
2326:.\Generated_Source\PSoC4/CapSense_1_CSHL.c ****                 pos[0u] = posX;
2327:.\Generated_Source\PSoC4/CapSense_1_CSHL.c ****                 pos[1u] = posY;
2328:.\Generated_Source\PSoC4/CapSense_1_CSHL.c ****             }
2329:.\Generated_Source\PSoC4/CapSense_1_CSHL.c ****         }
2330:.\Generated_Source\PSoC4/CapSense_1_CSHL.c **** 
2331:.\Generated_Source\PSoC4/CapSense_1_CSHL.c ****         #if (0u != CapSense_1_TOUCH_PADS_POS_FILTERS_MASK)
2332:.\Generated_Source\PSoC4/CapSense_1_CSHL.c ****             if(touch == 0u)
2333:.\Generated_Source\PSoC4/CapSense_1_CSHL.c ****             {
2334:.\Generated_Source\PSoC4/CapSense_1_CSHL.c ****                 /* Reset filters */
2335:.\Generated_Source\PSoC4/CapSense_1_CSHL.c ****                 if ((posFiltersMask & CapSense_1_ANY_POS_FILTER) != 0u)
2336:.\Generated_Source\PSoC4/CapSense_1_CSHL.c ****                 {
2337:.\Generated_Source\PSoC4/CapSense_1_CSHL.c ****                     CapSense_1_posFiltersData[firstTimeIndex] = 0u;
2338:.\Generated_Source\PSoC4/CapSense_1_CSHL.c ****                 }
2339:.\Generated_Source\PSoC4/CapSense_1_CSHL.c ****             }
2340:.\Generated_Source\PSoC4/CapSense_1_CSHL.c ****         #endif /* (0u != CapSense_1_TOUCH_PADS_POS_FILTERS_MASK) */
2341:.\Generated_Source\PSoC4/CapSense_1_CSHL.c **** 
2342:.\Generated_Source\PSoC4/CapSense_1_CSHL.c ****         return (touch);
2343:.\Generated_Source\PSoC4/CapSense_1_CSHL.c ****     }
2344:.\Generated_Source\PSoC4/CapSense_1_CSHL.c **** #endif /* (CapSense_1_TOTAL_TOUCH_PADS_BASIC_COUNT > 0u) */
2345:.\Generated_Source\PSoC4/CapSense_1_CSHL.c **** 
2346:.\Generated_Source\PSoC4/CapSense_1_CSHL.c **** 
2347:.\Generated_Source\PSoC4/CapSense_1_CSHL.c **** #if ( (0u != (CapSense_1_RAW_FILTER_MASK & CapSense_1_MEDIAN_FILTER)) || \
ARM GAS  C:\Users\syhaines\AppData\Local\Temp\ccFwROm9.s 			page 47


2348:.\Generated_Source\PSoC4/CapSense_1_CSHL.c ****       (0u != (CapSense_1_POS_FILTERS_MASK & CapSense_1_MEDIAN_FILTER)) || \
2349:.\Generated_Source\PSoC4/CapSense_1_CSHL.c ****       ((CapSense_1_TUNING_METHOD == CapSense_1__TUNING_AUTO)) )
2350:.\Generated_Source\PSoC4/CapSense_1_CSHL.c ****     /*******************************************************************************
2351:.\Generated_Source\PSoC4/CapSense_1_CSHL.c ****     * Function Name: CapSense_1_MedianFilter
2352:.\Generated_Source\PSoC4/CapSense_1_CSHL.c ****     ********************************************************************************
2353:.\Generated_Source\PSoC4/CapSense_1_CSHL.c ****     *
2354:.\Generated_Source\PSoC4/CapSense_1_CSHL.c ****     * Summary:
2355:.\Generated_Source\PSoC4/CapSense_1_CSHL.c ****     *  This is the Median filter function.
2356:.\Generated_Source\PSoC4/CapSense_1_CSHL.c ****     *  The median filter looks at the three most recent samples and reports the
2357:.\Generated_Source\PSoC4/CapSense_1_CSHL.c ****     *  median value.
2358:.\Generated_Source\PSoC4/CapSense_1_CSHL.c ****     *
2359:.\Generated_Source\PSoC4/CapSense_1_CSHL.c ****     * Parameters:
2360:.\Generated_Source\PSoC4/CapSense_1_CSHL.c ****     *  x1:  Current value.
2361:.\Generated_Source\PSoC4/CapSense_1_CSHL.c ****     *  x2:  Previous value.
2362:.\Generated_Source\PSoC4/CapSense_1_CSHL.c ****     *  x3:  Before previous value.
2363:.\Generated_Source\PSoC4/CapSense_1_CSHL.c ****     *
2364:.\Generated_Source\PSoC4/CapSense_1_CSHL.c ****     * Return:
2365:.\Generated_Source\PSoC4/CapSense_1_CSHL.c ****     *  Returns filtered value.
2366:.\Generated_Source\PSoC4/CapSense_1_CSHL.c ****     *
2367:.\Generated_Source\PSoC4/CapSense_1_CSHL.c ****     * Global Variables:
2368:.\Generated_Source\PSoC4/CapSense_1_CSHL.c ****     *  None.
2369:.\Generated_Source\PSoC4/CapSense_1_CSHL.c ****     *
2370:.\Generated_Source\PSoC4/CapSense_1_CSHL.c ****     * Side Effects:
2371:.\Generated_Source\PSoC4/CapSense_1_CSHL.c ****     *  None
2372:.\Generated_Source\PSoC4/CapSense_1_CSHL.c ****     *
2373:.\Generated_Source\PSoC4/CapSense_1_CSHL.c ****     *******************************************************************************/
2374:.\Generated_Source\PSoC4/CapSense_1_CSHL.c ****     uint16 CapSense_1_MedianFilter(uint16 x1, uint16 x2, uint16 x3)
2375:.\Generated_Source\PSoC4/CapSense_1_CSHL.c ****     {
2376:.\Generated_Source\PSoC4/CapSense_1_CSHL.c ****         uint16 tmp;
2377:.\Generated_Source\PSoC4/CapSense_1_CSHL.c **** 
2378:.\Generated_Source\PSoC4/CapSense_1_CSHL.c ****         if (x1 > x2)
2379:.\Generated_Source\PSoC4/CapSense_1_CSHL.c ****         {
2380:.\Generated_Source\PSoC4/CapSense_1_CSHL.c ****             tmp = x2;
2381:.\Generated_Source\PSoC4/CapSense_1_CSHL.c ****             x2 = x1;
2382:.\Generated_Source\PSoC4/CapSense_1_CSHL.c ****             x1 = tmp;
2383:.\Generated_Source\PSoC4/CapSense_1_CSHL.c ****         }
2384:.\Generated_Source\PSoC4/CapSense_1_CSHL.c **** 
2385:.\Generated_Source\PSoC4/CapSense_1_CSHL.c ****         if (x2 > x3)
2386:.\Generated_Source\PSoC4/CapSense_1_CSHL.c ****         {
2387:.\Generated_Source\PSoC4/CapSense_1_CSHL.c ****             x2 = x3;
2388:.\Generated_Source\PSoC4/CapSense_1_CSHL.c ****         }
2389:.\Generated_Source\PSoC4/CapSense_1_CSHL.c **** 
2390:.\Generated_Source\PSoC4/CapSense_1_CSHL.c ****         return ((x1 > x2) ? x1 : x2);
2391:.\Generated_Source\PSoC4/CapSense_1_CSHL.c ****     }
2392:.\Generated_Source\PSoC4/CapSense_1_CSHL.c **** #endif /* ( (0u != (CapSense_1_RAW_FILTER_MASK & CapSense_1_MEDIAN_FILTER)) || \
2393:.\Generated_Source\PSoC4/CapSense_1_CSHL.c ****       (0u != (CapSense_1_POS_FILTERS_MASK & CapSense_1_MEDIAN_FILTER)) || \
2394:.\Generated_Source\PSoC4/CapSense_1_CSHL.c ****       ((CapSense_1_TUNING_METHOD == CapSense_1__TUNING_AUTO)) ) */
2395:.\Generated_Source\PSoC4/CapSense_1_CSHL.c **** 
2396:.\Generated_Source\PSoC4/CapSense_1_CSHL.c **** 
2397:.\Generated_Source\PSoC4/CapSense_1_CSHL.c **** #if ( (0u != (CapSense_1_RAW_FILTER_MASK & CapSense_1_AVERAGING_FILTER)) || \
2398:.\Generated_Source\PSoC4/CapSense_1_CSHL.c ****       (0u != (CapSense_1_POS_FILTERS_MASK & CapSense_1_AVERAGING_FILTER)) )
2399:.\Generated_Source\PSoC4/CapSense_1_CSHL.c ****     /*******************************************************************************
2400:.\Generated_Source\PSoC4/CapSense_1_CSHL.c ****     * Function Name: CapSense_1_AveragingFilter
2401:.\Generated_Source\PSoC4/CapSense_1_CSHL.c ****     ********************************************************************************
2402:.\Generated_Source\PSoC4/CapSense_1_CSHL.c ****     *
2403:.\Generated_Source\PSoC4/CapSense_1_CSHL.c ****     * Summary:
2404:.\Generated_Source\PSoC4/CapSense_1_CSHL.c ****     *  This is the Averaging filter function.
ARM GAS  C:\Users\syhaines\AppData\Local\Temp\ccFwROm9.s 			page 48


2405:.\Generated_Source\PSoC4/CapSense_1_CSHL.c ****     *  The averaging filter looks at the three most recent samples of a position and
2406:.\Generated_Source\PSoC4/CapSense_1_CSHL.c ****     *  reports the averaging value.
2407:.\Generated_Source\PSoC4/CapSense_1_CSHL.c ****     *
2408:.\Generated_Source\PSoC4/CapSense_1_CSHL.c ****     * Parameters:
2409:.\Generated_Source\PSoC4/CapSense_1_CSHL.c ****     *  x1:  Current value.
2410:.\Generated_Source\PSoC4/CapSense_1_CSHL.c ****     *  x2:  Previous value.
2411:.\Generated_Source\PSoC4/CapSense_1_CSHL.c ****     *  x3:  Before previous value.
2412:.\Generated_Source\PSoC4/CapSense_1_CSHL.c ****     *
2413:.\Generated_Source\PSoC4/CapSense_1_CSHL.c ****     * Return:
2414:.\Generated_Source\PSoC4/CapSense_1_CSHL.c ****     *  Returns filtered value.
2415:.\Generated_Source\PSoC4/CapSense_1_CSHL.c ****     *
2416:.\Generated_Source\PSoC4/CapSense_1_CSHL.c ****     * Global Variables:
2417:.\Generated_Source\PSoC4/CapSense_1_CSHL.c ****     *  None.
2418:.\Generated_Source\PSoC4/CapSense_1_CSHL.c ****     *
2419:.\Generated_Source\PSoC4/CapSense_1_CSHL.c ****     * Side Effects:
2420:.\Generated_Source\PSoC4/CapSense_1_CSHL.c ****     *  None
2421:.\Generated_Source\PSoC4/CapSense_1_CSHL.c ****     *
2422:.\Generated_Source\PSoC4/CapSense_1_CSHL.c ****     *******************************************************************************/
2423:.\Generated_Source\PSoC4/CapSense_1_CSHL.c ****     uint16 CapSense_1_AveragingFilter(uint16 x1, uint16 x2, uint16 x3)
2424:.\Generated_Source\PSoC4/CapSense_1_CSHL.c ****     {
2425:.\Generated_Source\PSoC4/CapSense_1_CSHL.c ****         uint32 tmp = ((uint32)x1 + (uint32)x2 + (uint32)x3) / 3u;
2426:.\Generated_Source\PSoC4/CapSense_1_CSHL.c **** 
2427:.\Generated_Source\PSoC4/CapSense_1_CSHL.c ****         return ((uint16) tmp);
2428:.\Generated_Source\PSoC4/CapSense_1_CSHL.c ****     }
2429:.\Generated_Source\PSoC4/CapSense_1_CSHL.c **** #endif /* ( (0u != (CapSense_1_RAW_FILTER_MASK & CapSense_1_AVERAGING_FILTER) || \
2430:.\Generated_Source\PSoC4/CapSense_1_CSHL.c ****       (0u != (CapSense_1_POS_FILTERS_MASK & CapSense_1_AVERAGING_FILTER) ) */
2431:.\Generated_Source\PSoC4/CapSense_1_CSHL.c **** 
2432:.\Generated_Source\PSoC4/CapSense_1_CSHL.c **** 
2433:.\Generated_Source\PSoC4/CapSense_1_CSHL.c **** #if ( (0u != (CapSense_1_RAW_FILTER_MASK & CapSense_1_IIR2_FILTER)) || \
2434:.\Generated_Source\PSoC4/CapSense_1_CSHL.c ****       (0u != (CapSense_1_POS_FILTERS_MASK & CapSense_1_IIR2_FILTER)) )
2435:.\Generated_Source\PSoC4/CapSense_1_CSHL.c ****     /*******************************************************************************
2436:.\Generated_Source\PSoC4/CapSense_1_CSHL.c ****     * Function Name: CapSense_1_IIR2Filter
2437:.\Generated_Source\PSoC4/CapSense_1_CSHL.c ****     ********************************************************************************
2438:.\Generated_Source\PSoC4/CapSense_1_CSHL.c ****     *
2439:.\Generated_Source\PSoC4/CapSense_1_CSHL.c ****     * Summary:
2440:.\Generated_Source\PSoC4/CapSense_1_CSHL.c ****     *  This is the IIR1/2 filter function. IIR1/2 = 1/2current + 1/2previous.
2441:.\Generated_Source\PSoC4/CapSense_1_CSHL.c ****     *
2442:.\Generated_Source\PSoC4/CapSense_1_CSHL.c ****     * Parameters:
2443:.\Generated_Source\PSoC4/CapSense_1_CSHL.c ****     *  x1:  Current value.
2444:.\Generated_Source\PSoC4/CapSense_1_CSHL.c ****     *  x2:  Previous value.
2445:.\Generated_Source\PSoC4/CapSense_1_CSHL.c ****     *
2446:.\Generated_Source\PSoC4/CapSense_1_CSHL.c ****     * Return:
2447:.\Generated_Source\PSoC4/CapSense_1_CSHL.c ****     *  Returns filtered value.
2448:.\Generated_Source\PSoC4/CapSense_1_CSHL.c ****     *
2449:.\Generated_Source\PSoC4/CapSense_1_CSHL.c ****     * Global Variables:
2450:.\Generated_Source\PSoC4/CapSense_1_CSHL.c ****     *  None.
2451:.\Generated_Source\PSoC4/CapSense_1_CSHL.c ****     *
2452:.\Generated_Source\PSoC4/CapSense_1_CSHL.c ****     * Side Effects:
2453:.\Generated_Source\PSoC4/CapSense_1_CSHL.c ****     *  None
2454:.\Generated_Source\PSoC4/CapSense_1_CSHL.c ****     *
2455:.\Generated_Source\PSoC4/CapSense_1_CSHL.c ****     *******************************************************************************/
2456:.\Generated_Source\PSoC4/CapSense_1_CSHL.c ****     uint16 CapSense_1_IIR2Filter(uint16 x1, uint16 x2)
2457:.\Generated_Source\PSoC4/CapSense_1_CSHL.c ****     {
2458:.\Generated_Source\PSoC4/CapSense_1_CSHL.c ****         uint32 tmp;
2459:.\Generated_Source\PSoC4/CapSense_1_CSHL.c **** 
2460:.\Generated_Source\PSoC4/CapSense_1_CSHL.c ****         /* IIR = 1/2 Current Value+ 1/2 Previous Value */
2461:.\Generated_Source\PSoC4/CapSense_1_CSHL.c ****         tmp = (uint32)x1 + (uint32)x2;
ARM GAS  C:\Users\syhaines\AppData\Local\Temp\ccFwROm9.s 			page 49


2462:.\Generated_Source\PSoC4/CapSense_1_CSHL.c ****         tmp >>= 1u;
2463:.\Generated_Source\PSoC4/CapSense_1_CSHL.c **** 
2464:.\Generated_Source\PSoC4/CapSense_1_CSHL.c ****         return ((uint16) tmp);
2465:.\Generated_Source\PSoC4/CapSense_1_CSHL.c ****     }
2466:.\Generated_Source\PSoC4/CapSense_1_CSHL.c **** #endif /* ( (0u != (CapSense_1_RAW_FILTER_MASK & CapSense_1_IIR2_FILTER)) || \
2467:.\Generated_Source\PSoC4/CapSense_1_CSHL.c ****        *    (0u != (CapSense_1_POS_FILTERS_MASK & CapSense_1_IIR2_FILTER)) )
2468:.\Generated_Source\PSoC4/CapSense_1_CSHL.c ****        */
2469:.\Generated_Source\PSoC4/CapSense_1_CSHL.c **** 
2470:.\Generated_Source\PSoC4/CapSense_1_CSHL.c **** 
2471:.\Generated_Source\PSoC4/CapSense_1_CSHL.c **** #if ( (0u != (CapSense_1_RAW_FILTER_MASK & CapSense_1_IIR4_FILTER)) || \
2472:.\Generated_Source\PSoC4/CapSense_1_CSHL.c ****       (0u != (CapSense_1_POS_FILTERS_MASK & CapSense_1_IIR4_FILTER)) )
2473:.\Generated_Source\PSoC4/CapSense_1_CSHL.c ****     /*******************************************************************************
2474:.\Generated_Source\PSoC4/CapSense_1_CSHL.c ****     * Function Name: CapSense_1_IIR4Filter
2475:.\Generated_Source\PSoC4/CapSense_1_CSHL.c ****     ********************************************************************************
2476:.\Generated_Source\PSoC4/CapSense_1_CSHL.c ****     *
2477:.\Generated_Source\PSoC4/CapSense_1_CSHL.c ****     * Summary:
2478:.\Generated_Source\PSoC4/CapSense_1_CSHL.c ****     *  This is the IIR1/4 filter function. IIR1/4 = 1/4current + 3/4previous.
2479:.\Generated_Source\PSoC4/CapSense_1_CSHL.c ****     *
2480:.\Generated_Source\PSoC4/CapSense_1_CSHL.c ****     * Parameters:
2481:.\Generated_Source\PSoC4/CapSense_1_CSHL.c ****     *  x1:  Current value.
2482:.\Generated_Source\PSoC4/CapSense_1_CSHL.c ****     *  x2:  Previous value.
2483:.\Generated_Source\PSoC4/CapSense_1_CSHL.c ****     *
2484:.\Generated_Source\PSoC4/CapSense_1_CSHL.c ****     * Return:
2485:.\Generated_Source\PSoC4/CapSense_1_CSHL.c ****     *  Returns a filtered value.
2486:.\Generated_Source\PSoC4/CapSense_1_CSHL.c ****     *
2487:.\Generated_Source\PSoC4/CapSense_1_CSHL.c ****     * Global Variables:
2488:.\Generated_Source\PSoC4/CapSense_1_CSHL.c ****     *  None.
2489:.\Generated_Source\PSoC4/CapSense_1_CSHL.c ****     *
2490:.\Generated_Source\PSoC4/CapSense_1_CSHL.c ****     * Side Effects:
2491:.\Generated_Source\PSoC4/CapSense_1_CSHL.c ****     *  None
2492:.\Generated_Source\PSoC4/CapSense_1_CSHL.c ****     *
2493:.\Generated_Source\PSoC4/CapSense_1_CSHL.c ****     *******************************************************************************/
2494:.\Generated_Source\PSoC4/CapSense_1_CSHL.c ****     uint16 CapSense_1_IIR4Filter(uint16 x1, uint16 x2)
2495:.\Generated_Source\PSoC4/CapSense_1_CSHL.c ****     {
2496:.\Generated_Source\PSoC4/CapSense_1_CSHL.c ****         uint32 tmp;
2497:.\Generated_Source\PSoC4/CapSense_1_CSHL.c **** 
2498:.\Generated_Source\PSoC4/CapSense_1_CSHL.c ****         /* IIR = 1/4 Current Value + 3/4 Previous Value */
2499:.\Generated_Source\PSoC4/CapSense_1_CSHL.c ****         tmp = (uint32)x1 + (uint32)x2;
 259              		.loc 1 2499 0
 260 001e 6B5A     		ldrh	r3, [r5, r1]
 261 0020 9E19     		add	r6, r3, r6
 262              	.LVL25:
2500:.\Generated_Source\PSoC4/CapSense_1_CSHL.c ****         tmp += ((uint32)x2 << 1u);
 263              		.loc 1 2500 0
 264 0022 5B00     		lsl	r3, r3, #1
 265 0024 F618     		add	r6, r6, r3
 266              	.LVL26:
2501:.\Generated_Source\PSoC4/CapSense_1_CSHL.c ****         tmp >>= 2u;
 267              		.loc 1 2501 0
 268 0026 B608     		lsr	r6, r6, #2
 269              	.LVL27:
2502:.\Generated_Source\PSoC4/CapSense_1_CSHL.c **** 
2503:.\Generated_Source\PSoC4/CapSense_1_CSHL.c ****         return ((uint16) tmp);
 270              		.loc 1 2503 0
 271 0028 B6B2     		uxth	r6, r6
 272              	.LVL28:
 273              	.LBE5:
ARM GAS  C:\Users\syhaines\AppData\Local\Temp\ccFwROm9.s 			page 50


 274              	.LBE4:
 394:.\Generated_Source\PSoC4/CapSense_1_CSHL.c **** 
 275              		.loc 1 394 0
 276 002a 6E52     		strh	r6, [r5, r1]
 277              	.LVL29:
 278              	.L18:
 415:.\Generated_Source\PSoC4/CapSense_1_CSHL.c ****     #endif /* (CapSense_1_TUNING_METHOD == CapSense_1__TUNING_AUTO) */
 279              		.loc 1 415 0
 280 002c E1B2     		uxtb	r1, r4
 281 002e 2E48     		ldr	r0, .L37+20
 282              	.LVL30:
 283 0030 FFF7FEFF 		bl	MeasureNoiseEnvelope_P4_v2_30
 284              	.LVL31:
 420:.\Generated_Source\PSoC4/CapSense_1_CSHL.c ****     {
 285              		.loc 1 420 0
 286 0034 2D49     		ldr	r1, .L37+24
 287 0036 485B     		ldrh	r0, [r1, r5]
 288 0038 0191     		str	r1, [sp, #4]
 289 003a 8642     		cmp	r6, r0
 290 003c 06D3     		bcc	.L19
 422:.\Generated_Source\PSoC4/CapSense_1_CSHL.c ****         tempRaw = filteredRawData - CapSense_1_sensorBaseline[sensor];
 291              		.loc 1 422 0
 292 003e 0022     		mov	r2, #0
 293 0040 2B4B     		ldr	r3, .L37+28
 423:.\Generated_Source\PSoC4/CapSense_1_CSHL.c ****         sign = 1u;    /* Positive difference - Calculate the Signal */
 294              		.loc 1 423 0
 295 0042 351A     		sub	r5, r6, r0
 422:.\Generated_Source\PSoC4/CapSense_1_CSHL.c ****         tempRaw = filteredRawData - CapSense_1_sensorBaseline[sensor];
 296              		.loc 1 422 0
 297 0044 1A55     		strb	r2, [r3, r4]
 423:.\Generated_Source\PSoC4/CapSense_1_CSHL.c ****         sign = 1u;    /* Positive difference - Calculate the Signal */
 298              		.loc 1 423 0
 299 0046 ADB2     		uxth	r5, r5
 300              	.LVL32:
 424:.\Generated_Source\PSoC4/CapSense_1_CSHL.c ****     }
 301              		.loc 1 424 0
 302 0048 0123     		mov	r3, #1
 303 004a 17E0     		b	.L20
 304              	.LVL33:
 305              	.L19:
 433:.\Generated_Source\PSoC4/CapSense_1_CSHL.c ****     #else
 306              		.loc 1 433 0
 307 004c 294B     		ldr	r3, .L37+32
 428:.\Generated_Source\PSoC4/CapSense_1_CSHL.c ****         sign = 0u;    /* Negative difference - Do NOT calculate the Signal */
 308              		.loc 1 428 0
 309 004e 851B     		sub	r5, r0, r6
 433:.\Generated_Source\PSoC4/CapSense_1_CSHL.c ****     #else
 310              		.loc 1 433 0
 311 0050 DB5D     		ldrb	r3, [r3, r7]
 428:.\Generated_Source\PSoC4/CapSense_1_CSHL.c ****         sign = 0u;    /* Negative difference - Do NOT calculate the Signal */
 312              		.loc 1 428 0
 313 0052 ADB2     		uxth	r5, r5
 314              	.LVL34:
 433:.\Generated_Source\PSoC4/CapSense_1_CSHL.c ****     #else
 315              		.loc 1 433 0
 316 0054 AB42     		cmp	r3, r5
 317 0056 10D2     		bcs	.L27
ARM GAS  C:\Users\syhaines\AppData\Local\Temp\ccFwROm9.s 			page 51


 438:.\Generated_Source\PSoC4/CapSense_1_CSHL.c ****         {
 318              		.loc 1 438 0
 319 0058 214A     		ldr	r2, .L37+12
 320 005a 254F     		ldr	r7, .L37+28
 321 005c 1219     		add	r2, r2, r4
 322 005e 3B5D     		ldrb	r3, [r7, r4]
 323 0060 1279     		ldrb	r2, [r2, #4]
 324 0062 0026     		mov	r6, #0
 325              	.LVL35:
 326 0064 9A42     		cmp	r2, r3
 327 0066 04D8     		bhi	.L21
 440:.\Generated_Source\PSoC4/CapSense_1_CSHL.c ****             CapSense_1_lowBaselineResetCnt[sensor] = 0u;
 328              		.loc 1 440 0
 329 0068 201C     		mov	r0, r4
 330 006a FFF7FEFF 		bl	CapSense_1_BaseInit
 331              	.LVL36:
 441:.\Generated_Source\PSoC4/CapSense_1_CSHL.c ****         }
 332              		.loc 1 441 0
 333 006e 3E55     		strb	r6, [r7, r4]
 334 0070 01E0     		b	.L35
 335              	.L21:
 445:.\Generated_Source\PSoC4/CapSense_1_CSHL.c ****         }
 336              		.loc 1 445 0
 337 0072 0133     		add	r3, r3, #1
 338 0074 3B55     		strb	r3, [r7, r4]
 339              	.L35:
