ARM GAS  C:\Users\syhaines\AppData\Local\Temp\ccqhMmSy.s 			page 1


   1              		.cpu cortex-m0
   2              		.fpu softvfp
   3              		.eabi_attribute 20, 1
   4              		.eabi_attribute 21, 1
   5              		.eabi_attribute 23, 3
   6              		.eabi_attribute 24, 1
   7              		.eabi_attribute 25, 1
   8              		.eabi_attribute 26, 1
   9              		.eabi_attribute 30, 4
  10              		.eabi_attribute 34, 0
  11              		.eabi_attribute 18, 4
  12              		.code	16
  13              		.file	"cyfitter_cfg.c"
  14              		.text
  15              	.Ltext0:
  16              		.cfi_sections	.debug_frame
  17              		.section	.text.SetAnalogRoutingPumps,"ax",%progbits
  18              		.align	1
  19              		.global	SetAnalogRoutingPumps
  20              		.code	16
  21              		.thumb_func
  22              		.type	SetAnalogRoutingPumps, %function
  23              	SetAnalogRoutingPumps:
  24              	.LFB6:
  25              		.file 1 ".\\Generated_Source\\PSoC4\\cyfitter_cfg.c"
   1:.\Generated_Source\PSoC4/cyfitter_cfg.c **** /*******************************************************************************
   2:.\Generated_Source\PSoC4/cyfitter_cfg.c **** * File Name: cyfitter_cfg.c
   3:.\Generated_Source\PSoC4/cyfitter_cfg.c **** * 
   4:.\Generated_Source\PSoC4/cyfitter_cfg.c **** * PSoC Creator  3.3 CP3
   5:.\Generated_Source\PSoC4/cyfitter_cfg.c **** *
   6:.\Generated_Source\PSoC4/cyfitter_cfg.c **** * Description:
   7:.\Generated_Source\PSoC4/cyfitter_cfg.c **** * This file contains device initialization code.
   8:.\Generated_Source\PSoC4/cyfitter_cfg.c **** * Except for the user defined sections in CyClockStartupError(), this file should not be modified.
   9:.\Generated_Source\PSoC4/cyfitter_cfg.c **** * This file is automatically generated by PSoC Creator.
  10:.\Generated_Source\PSoC4/cyfitter_cfg.c **** *
  11:.\Generated_Source\PSoC4/cyfitter_cfg.c **** ********************************************************************************
  12:.\Generated_Source\PSoC4/cyfitter_cfg.c **** * Copyright (c) 2007-2016 Cypress Semiconductor.  All rights reserved.
  13:.\Generated_Source\PSoC4/cyfitter_cfg.c **** * You may use this file only in accordance with the license, terms, conditions, 
  14:.\Generated_Source\PSoC4/cyfitter_cfg.c **** * disclaimers, and limitations in the end user license agreement accompanying 
  15:.\Generated_Source\PSoC4/cyfitter_cfg.c **** * the software package with which this file was provided.
  16:.\Generated_Source\PSoC4/cyfitter_cfg.c **** ********************************************************************************/
  17:.\Generated_Source\PSoC4/cyfitter_cfg.c **** 
  18:.\Generated_Source\PSoC4/cyfitter_cfg.c **** #include <string.h>
  19:.\Generated_Source\PSoC4/cyfitter_cfg.c **** #include "cytypes.h"
  20:.\Generated_Source\PSoC4/cyfitter_cfg.c **** #include "cydevice_trm.h"
  21:.\Generated_Source\PSoC4/cyfitter_cfg.c **** #include "cyfitter.h"
  22:.\Generated_Source\PSoC4/cyfitter_cfg.c **** #include "CyLib.h"
  23:.\Generated_Source\PSoC4/cyfitter_cfg.c **** #include "cyfitter_cfg.h"
  24:.\Generated_Source\PSoC4/cyfitter_cfg.c **** 
  25:.\Generated_Source\PSoC4/cyfitter_cfg.c **** 
  26:.\Generated_Source\PSoC4/cyfitter_cfg.c **** #if defined(__GNUC__) || defined(__ARMCC_VERSION)
  27:.\Generated_Source\PSoC4/cyfitter_cfg.c ****     #define CYPACKED 
  28:.\Generated_Source\PSoC4/cyfitter_cfg.c ****     #define CYPACKED_ATTR __attribute__ ((packed))
  29:.\Generated_Source\PSoC4/cyfitter_cfg.c ****     #define CYALIGNED __attribute__ ((aligned))
  30:.\Generated_Source\PSoC4/cyfitter_cfg.c ****     #define CY_CFG_UNUSED __attribute__ ((unused))
  31:.\Generated_Source\PSoC4/cyfitter_cfg.c ****     #ifndef CY_CFG_SECTION
  32:.\Generated_Source\PSoC4/cyfitter_cfg.c ****         #define CY_CFG_SECTION __attribute__ ((section(".psocinit")))
ARM GAS  C:\Users\syhaines\AppData\Local\Temp\ccqhMmSy.s 			page 2


  33:.\Generated_Source\PSoC4/cyfitter_cfg.c ****     #endif
  34:.\Generated_Source\PSoC4/cyfitter_cfg.c ****     
  35:.\Generated_Source\PSoC4/cyfitter_cfg.c ****     #if defined(__ARMCC_VERSION)
  36:.\Generated_Source\PSoC4/cyfitter_cfg.c ****         #define CY_CFG_MEMORY_BARRIER() __memory_changed()
  37:.\Generated_Source\PSoC4/cyfitter_cfg.c ****     #else
  38:.\Generated_Source\PSoC4/cyfitter_cfg.c ****         #define CY_CFG_MEMORY_BARRIER() __sync_synchronize()
  39:.\Generated_Source\PSoC4/cyfitter_cfg.c ****     #endif
  40:.\Generated_Source\PSoC4/cyfitter_cfg.c ****     
  41:.\Generated_Source\PSoC4/cyfitter_cfg.c **** #elif defined(__ICCARM__)
  42:.\Generated_Source\PSoC4/cyfitter_cfg.c ****     #include <intrinsics.h>
  43:.\Generated_Source\PSoC4/cyfitter_cfg.c **** 
  44:.\Generated_Source\PSoC4/cyfitter_cfg.c ****     #define CYPACKED __packed
  45:.\Generated_Source\PSoC4/cyfitter_cfg.c ****     #define CYPACKED_ATTR 
  46:.\Generated_Source\PSoC4/cyfitter_cfg.c ****     #define CYALIGNED _Pragma("data_alignment=4")
  47:.\Generated_Source\PSoC4/cyfitter_cfg.c ****     #define CY_CFG_UNUSED _Pragma("diag_suppress=Pe177")
  48:.\Generated_Source\PSoC4/cyfitter_cfg.c ****     #define CY_CFG_SECTION _Pragma("location=\".psocinit\"")
  49:.\Generated_Source\PSoC4/cyfitter_cfg.c ****     
  50:.\Generated_Source\PSoC4/cyfitter_cfg.c ****     #define CY_CFG_MEMORY_BARRIER() __DMB()
  51:.\Generated_Source\PSoC4/cyfitter_cfg.c ****     
  52:.\Generated_Source\PSoC4/cyfitter_cfg.c **** #else
  53:.\Generated_Source\PSoC4/cyfitter_cfg.c ****     #error Unsupported toolchain
  54:.\Generated_Source\PSoC4/cyfitter_cfg.c **** #endif
  55:.\Generated_Source\PSoC4/cyfitter_cfg.c **** 
  56:.\Generated_Source\PSoC4/cyfitter_cfg.c **** 
  57:.\Generated_Source\PSoC4/cyfitter_cfg.c **** CY_CFG_UNUSED
  58:.\Generated_Source\PSoC4/cyfitter_cfg.c **** static void CYMEMZERO(void *s, size_t n);
  59:.\Generated_Source\PSoC4/cyfitter_cfg.c **** CY_CFG_UNUSED
  60:.\Generated_Source\PSoC4/cyfitter_cfg.c **** static void CYMEMZERO(void *s, size_t n)
  61:.\Generated_Source\PSoC4/cyfitter_cfg.c **** {
  62:.\Generated_Source\PSoC4/cyfitter_cfg.c **** 	(void)memset(s, 0, n);
  63:.\Generated_Source\PSoC4/cyfitter_cfg.c **** }
  64:.\Generated_Source\PSoC4/cyfitter_cfg.c **** CY_CFG_UNUSED
  65:.\Generated_Source\PSoC4/cyfitter_cfg.c **** static void CYCONFIGCPY(void *dest, const void *src, size_t n);
  66:.\Generated_Source\PSoC4/cyfitter_cfg.c **** CY_CFG_UNUSED
  67:.\Generated_Source\PSoC4/cyfitter_cfg.c **** static void CYCONFIGCPY(void *dest, const void *src, size_t n)
  68:.\Generated_Source\PSoC4/cyfitter_cfg.c **** {
  69:.\Generated_Source\PSoC4/cyfitter_cfg.c **** 	(void)memcpy(dest, src, n);
  70:.\Generated_Source\PSoC4/cyfitter_cfg.c **** }
  71:.\Generated_Source\PSoC4/cyfitter_cfg.c **** CY_CFG_UNUSED
  72:.\Generated_Source\PSoC4/cyfitter_cfg.c **** static void CYCONFIGCPYCODE(void *dest, const void *src, size_t n);
  73:.\Generated_Source\PSoC4/cyfitter_cfg.c **** CY_CFG_UNUSED
  74:.\Generated_Source\PSoC4/cyfitter_cfg.c **** static void CYCONFIGCPYCODE(void *dest, const void *src, size_t n)
  75:.\Generated_Source\PSoC4/cyfitter_cfg.c **** {
  76:.\Generated_Source\PSoC4/cyfitter_cfg.c **** 	(void)memcpy(dest, src, n);
  77:.\Generated_Source\PSoC4/cyfitter_cfg.c **** }
  78:.\Generated_Source\PSoC4/cyfitter_cfg.c **** 
  79:.\Generated_Source\PSoC4/cyfitter_cfg.c **** 
  80:.\Generated_Source\PSoC4/cyfitter_cfg.c **** 
  81:.\Generated_Source\PSoC4/cyfitter_cfg.c **** /* Clock startup error codes                                                   */
  82:.\Generated_Source\PSoC4/cyfitter_cfg.c **** #define CYCLOCKSTART_NO_ERROR    0u
  83:.\Generated_Source\PSoC4/cyfitter_cfg.c **** #define CYCLOCKSTART_XTAL_ERROR  1u
  84:.\Generated_Source\PSoC4/cyfitter_cfg.c **** #define CYCLOCKSTART_32KHZ_ERROR 2u
  85:.\Generated_Source\PSoC4/cyfitter_cfg.c **** #define CYCLOCKSTART_PLL_ERROR   3u
  86:.\Generated_Source\PSoC4/cyfitter_cfg.c **** 
  87:.\Generated_Source\PSoC4/cyfitter_cfg.c **** #ifdef CY_NEED_CYCLOCKSTARTUPERROR
  88:.\Generated_Source\PSoC4/cyfitter_cfg.c **** /*******************************************************************************
  89:.\Generated_Source\PSoC4/cyfitter_cfg.c **** * Function Name: CyClockStartupError
ARM GAS  C:\Users\syhaines\AppData\Local\Temp\ccqhMmSy.s 			page 3


  90:.\Generated_Source\PSoC4/cyfitter_cfg.c **** ********************************************************************************
  91:.\Generated_Source\PSoC4/cyfitter_cfg.c **** * Summary:
  92:.\Generated_Source\PSoC4/cyfitter_cfg.c **** *  If an error is encountered during clock configuration (crystal startup error,
  93:.\Generated_Source\PSoC4/cyfitter_cfg.c **** *  PLL lock error, etc.), the system will end up here.  Unless reimplemented by
  94:.\Generated_Source\PSoC4/cyfitter_cfg.c **** *  the customer, this function will stop in an infinite loop.
  95:.\Generated_Source\PSoC4/cyfitter_cfg.c **** *
  96:.\Generated_Source\PSoC4/cyfitter_cfg.c **** * Parameters:
  97:.\Generated_Source\PSoC4/cyfitter_cfg.c **** *   void
  98:.\Generated_Source\PSoC4/cyfitter_cfg.c **** *
  99:.\Generated_Source\PSoC4/cyfitter_cfg.c **** * Return:
 100:.\Generated_Source\PSoC4/cyfitter_cfg.c **** *   void
 101:.\Generated_Source\PSoC4/cyfitter_cfg.c **** *
 102:.\Generated_Source\PSoC4/cyfitter_cfg.c **** *******************************************************************************/
 103:.\Generated_Source\PSoC4/cyfitter_cfg.c **** CY_CFG_UNUSED
 104:.\Generated_Source\PSoC4/cyfitter_cfg.c **** static void CyClockStartupError(uint8 errorCode);
 105:.\Generated_Source\PSoC4/cyfitter_cfg.c **** CY_CFG_UNUSED
 106:.\Generated_Source\PSoC4/cyfitter_cfg.c **** static void CyClockStartupError(uint8 errorCode)
 107:.\Generated_Source\PSoC4/cyfitter_cfg.c **** {
 108:.\Generated_Source\PSoC4/cyfitter_cfg.c ****     /* To remove the compiler warning if errorCode not used.                */
 109:.\Generated_Source\PSoC4/cyfitter_cfg.c ****     errorCode = errorCode;
 110:.\Generated_Source\PSoC4/cyfitter_cfg.c **** 
 111:.\Generated_Source\PSoC4/cyfitter_cfg.c ****     /* `#START CyClockStartupError` */
 112:.\Generated_Source\PSoC4/cyfitter_cfg.c **** 
 113:.\Generated_Source\PSoC4/cyfitter_cfg.c ****     /* If we have a clock startup error (bad MHz crystal, PLL lock, etc.),  */
 114:.\Generated_Source\PSoC4/cyfitter_cfg.c ****     /* we will end up here to allow the customer to implement something to  */
 115:.\Generated_Source\PSoC4/cyfitter_cfg.c ****     /* deal with the clock condition.                                       */
 116:.\Generated_Source\PSoC4/cyfitter_cfg.c **** 
 117:.\Generated_Source\PSoC4/cyfitter_cfg.c ****     /* `#END` */
 118:.\Generated_Source\PSoC4/cyfitter_cfg.c **** 
 119:.\Generated_Source\PSoC4/cyfitter_cfg.c ****     /* If nothing else, stop here since the clocks have not started         */
 120:.\Generated_Source\PSoC4/cyfitter_cfg.c ****     /* correctly.                                                           */
 121:.\Generated_Source\PSoC4/cyfitter_cfg.c ****     while(1) {}
 122:.\Generated_Source\PSoC4/cyfitter_cfg.c **** }
 123:.\Generated_Source\PSoC4/cyfitter_cfg.c **** #endif
 124:.\Generated_Source\PSoC4/cyfitter_cfg.c **** 
 125:.\Generated_Source\PSoC4/cyfitter_cfg.c **** #define CY_CFG_BASE_ADDR_COUNT 3u
 126:.\Generated_Source\PSoC4/cyfitter_cfg.c **** CYPACKED typedef struct
 127:.\Generated_Source\PSoC4/cyfitter_cfg.c **** {
 128:.\Generated_Source\PSoC4/cyfitter_cfg.c **** 	uint8 offset;
 129:.\Generated_Source\PSoC4/cyfitter_cfg.c **** 	uint8 value;
 130:.\Generated_Source\PSoC4/cyfitter_cfg.c **** } CYPACKED_ATTR cy_cfg_addrvalue_t;
 131:.\Generated_Source\PSoC4/cyfitter_cfg.c **** 
 132:.\Generated_Source\PSoC4/cyfitter_cfg.c **** 
 133:.\Generated_Source\PSoC4/cyfitter_cfg.c **** 
 134:.\Generated_Source\PSoC4/cyfitter_cfg.c **** /*******************************************************************************
 135:.\Generated_Source\PSoC4/cyfitter_cfg.c **** * Function Name: cfg_write_bytes32
 136:.\Generated_Source\PSoC4/cyfitter_cfg.c **** ********************************************************************************
 137:.\Generated_Source\PSoC4/cyfitter_cfg.c **** * Summary:
 138:.\Generated_Source\PSoC4/cyfitter_cfg.c **** *  This function is used for setting up the chip configuration areas that
 139:.\Generated_Source\PSoC4/cyfitter_cfg.c **** *  contain relatively sparse data.
 140:.\Generated_Source\PSoC4/cyfitter_cfg.c **** *
 141:.\Generated_Source\PSoC4/cyfitter_cfg.c **** * Parameters:
 142:.\Generated_Source\PSoC4/cyfitter_cfg.c **** *   void
 143:.\Generated_Source\PSoC4/cyfitter_cfg.c **** *
 144:.\Generated_Source\PSoC4/cyfitter_cfg.c **** * Return:
 145:.\Generated_Source\PSoC4/cyfitter_cfg.c **** *   void
 146:.\Generated_Source\PSoC4/cyfitter_cfg.c **** *
ARM GAS  C:\Users\syhaines\AppData\Local\Temp\ccqhMmSy.s 			page 4


 147:.\Generated_Source\PSoC4/cyfitter_cfg.c **** *******************************************************************************/
 148:.\Generated_Source\PSoC4/cyfitter_cfg.c **** static void cfg_write_bytes32(const uint32 addr_table[], const cy_cfg_addrvalue_t data_table[]);
 149:.\Generated_Source\PSoC4/cyfitter_cfg.c **** static void cfg_write_bytes32(const uint32 addr_table[], const cy_cfg_addrvalue_t data_table[])
 150:.\Generated_Source\PSoC4/cyfitter_cfg.c **** {
 151:.\Generated_Source\PSoC4/cyfitter_cfg.c **** 	/* For 32-bit little-endian architectures */
 152:.\Generated_Source\PSoC4/cyfitter_cfg.c **** 	uint32 i, j = 0u;
 153:.\Generated_Source\PSoC4/cyfitter_cfg.c **** 	for (i = 0u; i < CY_CFG_BASE_ADDR_COUNT; i++)
 154:.\Generated_Source\PSoC4/cyfitter_cfg.c **** 	{
 155:.\Generated_Source\PSoC4/cyfitter_cfg.c **** 		uint32 baseAddr = addr_table[i];
 156:.\Generated_Source\PSoC4/cyfitter_cfg.c **** 		uint8 count = (uint8)baseAddr;
 157:.\Generated_Source\PSoC4/cyfitter_cfg.c **** 		baseAddr &= 0xFFFFFF00u;
 158:.\Generated_Source\PSoC4/cyfitter_cfg.c **** 		while (count != 0u)
 159:.\Generated_Source\PSoC4/cyfitter_cfg.c **** 		{
 160:.\Generated_Source\PSoC4/cyfitter_cfg.c **** 			CY_SET_XTND_REG8((void CYFAR *)(baseAddr + data_table[j].offset), data_table[j].value);
 161:.\Generated_Source\PSoC4/cyfitter_cfg.c **** 			j++;
 162:.\Generated_Source\PSoC4/cyfitter_cfg.c **** 			count--;
 163:.\Generated_Source\PSoC4/cyfitter_cfg.c **** 		}
 164:.\Generated_Source\PSoC4/cyfitter_cfg.c **** 	}
 165:.\Generated_Source\PSoC4/cyfitter_cfg.c **** }
 166:.\Generated_Source\PSoC4/cyfitter_cfg.c **** 
 167:.\Generated_Source\PSoC4/cyfitter_cfg.c **** 
 168:.\Generated_Source\PSoC4/cyfitter_cfg.c **** /*******************************************************************************
 169:.\Generated_Source\PSoC4/cyfitter_cfg.c **** * Function Name: ClockSetup
 170:.\Generated_Source\PSoC4/cyfitter_cfg.c **** ********************************************************************************
 171:.\Generated_Source\PSoC4/cyfitter_cfg.c **** *
 172:.\Generated_Source\PSoC4/cyfitter_cfg.c **** * Summary:
 173:.\Generated_Source\PSoC4/cyfitter_cfg.c **** *   Performs the initialization of all of the clocks in the device based on the
 174:.\Generated_Source\PSoC4/cyfitter_cfg.c **** *   settings in the Clock tab of the DWR.  This includes enabling the requested
 175:.\Generated_Source\PSoC4/cyfitter_cfg.c **** *   clocks and setting the necessary dividers to produce the desired frequency. 
 176:.\Generated_Source\PSoC4/cyfitter_cfg.c **** *
 177:.\Generated_Source\PSoC4/cyfitter_cfg.c **** * Parameters:
 178:.\Generated_Source\PSoC4/cyfitter_cfg.c **** *   void
 179:.\Generated_Source\PSoC4/cyfitter_cfg.c **** *
 180:.\Generated_Source\PSoC4/cyfitter_cfg.c **** * Return:
 181:.\Generated_Source\PSoC4/cyfitter_cfg.c **** *   void
 182:.\Generated_Source\PSoC4/cyfitter_cfg.c **** *
 183:.\Generated_Source\PSoC4/cyfitter_cfg.c **** *******************************************************************************/
 184:.\Generated_Source\PSoC4/cyfitter_cfg.c **** static void ClockSetup(void);
 185:.\Generated_Source\PSoC4/cyfitter_cfg.c **** CY_CFG_SECTION
 186:.\Generated_Source\PSoC4/cyfitter_cfg.c **** static void ClockSetup(void)
 187:.\Generated_Source\PSoC4/cyfitter_cfg.c **** {
 188:.\Generated_Source\PSoC4/cyfitter_cfg.c **** 	/* Enable HALF_EN before trimming for the flash accelerator. */
 189:.\Generated_Source\PSoC4/cyfitter_cfg.c **** 	CY_SET_REG32((void CYXDATA *)(CYREG_CLK_SELECT), (CY_GET_REG32((void *)CYREG_CLK_SELECT) | 0x00040
 190:.\Generated_Source\PSoC4/cyfitter_cfg.c **** 
 191:.\Generated_Source\PSoC4/cyfitter_cfg.c **** 	/* Setup and trim IMO based on desired frequency. */
 192:.\Generated_Source\PSoC4/cyfitter_cfg.c **** 	CySysClkWriteImoFreq(24u);
 193:.\Generated_Source\PSoC4/cyfitter_cfg.c **** 
 194:.\Generated_Source\PSoC4/cyfitter_cfg.c **** 	/* Disable HALF_EN since it is not required at this IMO frequency. */
 195:.\Generated_Source\PSoC4/cyfitter_cfg.c **** 	CY_SET_REG32((void CYXDATA *)(CYREG_CLK_SELECT), (CY_GET_REG32((void *)CYREG_CLK_SELECT) & 0xFFFBF
 196:.\Generated_Source\PSoC4/cyfitter_cfg.c **** 	/* CYDEV_CLK_ILO_CONFIG Starting address: CYDEV_CLK_ILO_CONFIG */
 197:.\Generated_Source\PSoC4/cyfitter_cfg.c **** 	CY_SET_XTND_REG32((void CYFAR *)(CYREG_CLK_ILO_CONFIG), 0x80000006u);
 198:.\Generated_Source\PSoC4/cyfitter_cfg.c **** 
 199:.\Generated_Source\PSoC4/cyfitter_cfg.c **** 
 200:.\Generated_Source\PSoC4/cyfitter_cfg.c **** 	/* CYDEV_CLK_SELECT00 Starting address: CYDEV_CLK_SELECT00 */
 201:.\Generated_Source\PSoC4/cyfitter_cfg.c **** 	CY_SET_XTND_REG32((void CYFAR *)(CYREG_CLK_SELECT08), 0x00000010u);
 202:.\Generated_Source\PSoC4/cyfitter_cfg.c **** 	CY_SET_XTND_REG32((void CYFAR *)(CYREG_CLK_SELECT09), 0x00000010u);
 203:.\Generated_Source\PSoC4/cyfitter_cfg.c **** 
ARM GAS  C:\Users\syhaines\AppData\Local\Temp\ccqhMmSy.s 			page 5


 204:.\Generated_Source\PSoC4/cyfitter_cfg.c **** 	/* CYDEV_CLK_IMO_CONFIG Starting address: CYDEV_CLK_IMO_CONFIG */
 205:.\Generated_Source\PSoC4/cyfitter_cfg.c **** 	CY_SET_XTND_REG32((void CYFAR *)(CYREG_CLK_IMO_CONFIG), 0x82000000u);
 206:.\Generated_Source\PSoC4/cyfitter_cfg.c **** 
 207:.\Generated_Source\PSoC4/cyfitter_cfg.c **** 	/* CYDEV_CLK_SELECT Starting address: CYDEV_CLK_SELECT */
 208:.\Generated_Source\PSoC4/cyfitter_cfg.c **** 	CY_SET_XTND_REG32((void CYFAR *)(CYREG_CLK_SELECT), 0x00000000u);
 209:.\Generated_Source\PSoC4/cyfitter_cfg.c **** 
 210:.\Generated_Source\PSoC4/cyfitter_cfg.c **** 	/* CYDEV_CLK_DIVIDER_A00 Starting address: CYDEV_CLK_DIVIDER_A00 */
 211:.\Generated_Source\PSoC4/cyfitter_cfg.c **** 	CY_SET_XTND_REG32((void CYFAR *)(CYREG_CLK_DIVIDER_A00), 0x80000017u);
 212:.\Generated_Source\PSoC4/cyfitter_cfg.c **** 
 213:.\Generated_Source\PSoC4/cyfitter_cfg.c **** 	CY_SET_XTND_REG32((void CYFAR *)(CYREG_WDT_CONFIG), 0x00000000u);
 214:.\Generated_Source\PSoC4/cyfitter_cfg.c **** }
 215:.\Generated_Source\PSoC4/cyfitter_cfg.c **** 
 216:.\Generated_Source\PSoC4/cyfitter_cfg.c **** 
 217:.\Generated_Source\PSoC4/cyfitter_cfg.c **** /* Analog API Functions */
 218:.\Generated_Source\PSoC4/cyfitter_cfg.c **** 
 219:.\Generated_Source\PSoC4/cyfitter_cfg.c **** 
 220:.\Generated_Source\PSoC4/cyfitter_cfg.c **** /*******************************************************************************
 221:.\Generated_Source\PSoC4/cyfitter_cfg.c **** * Function Name: AnalogSetDefault
 222:.\Generated_Source\PSoC4/cyfitter_cfg.c **** ********************************************************************************
 223:.\Generated_Source\PSoC4/cyfitter_cfg.c **** *
 224:.\Generated_Source\PSoC4/cyfitter_cfg.c **** * Summary:
 225:.\Generated_Source\PSoC4/cyfitter_cfg.c **** *  Sets up the analog portions of the chip to default values based on chip
 226:.\Generated_Source\PSoC4/cyfitter_cfg.c **** *  configuration options from the project.
 227:.\Generated_Source\PSoC4/cyfitter_cfg.c **** *
 228:.\Generated_Source\PSoC4/cyfitter_cfg.c **** * Parameters:
 229:.\Generated_Source\PSoC4/cyfitter_cfg.c **** *  void
 230:.\Generated_Source\PSoC4/cyfitter_cfg.c **** *
 231:.\Generated_Source\PSoC4/cyfitter_cfg.c **** * Return:
 232:.\Generated_Source\PSoC4/cyfitter_cfg.c **** *  void
 233:.\Generated_Source\PSoC4/cyfitter_cfg.c **** *
 234:.\Generated_Source\PSoC4/cyfitter_cfg.c **** *******************************************************************************/
 235:.\Generated_Source\PSoC4/cyfitter_cfg.c **** static void AnalogSetDefault(void);
 236:.\Generated_Source\PSoC4/cyfitter_cfg.c **** static void AnalogSetDefault(void)
 237:.\Generated_Source\PSoC4/cyfitter_cfg.c **** {
 238:.\Generated_Source\PSoC4/cyfitter_cfg.c **** 	CY_SET_XTND_REG32((void CYFAR *)CYREG_CTBM_OA0_SW, 0x00000104u);
 239:.\Generated_Source\PSoC4/cyfitter_cfg.c **** 	CY_SET_XTND_REG32((void CYFAR *)CYREG_CTBM_OA1_SW, 0x00000110u);
 240:.\Generated_Source\PSoC4/cyfitter_cfg.c **** 	/* Variable VDDA is selected; no pumps are enabled by default */
 241:.\Generated_Source\PSoC4/cyfitter_cfg.c **** }
 242:.\Generated_Source\PSoC4/cyfitter_cfg.c **** 
 243:.\Generated_Source\PSoC4/cyfitter_cfg.c **** 
 244:.\Generated_Source\PSoC4/cyfitter_cfg.c **** /*******************************************************************************
 245:.\Generated_Source\PSoC4/cyfitter_cfg.c **** * Function Name: SetAnalogRoutingPumps
 246:.\Generated_Source\PSoC4/cyfitter_cfg.c **** ********************************************************************************
 247:.\Generated_Source\PSoC4/cyfitter_cfg.c **** *
 248:.\Generated_Source\PSoC4/cyfitter_cfg.c **** * Summary:
 249:.\Generated_Source\PSoC4/cyfitter_cfg.c **** * Enables or disables the analog pumps feeding analog routing switches.
 250:.\Generated_Source\PSoC4/cyfitter_cfg.c **** * Intended to be called at startup, based on the Vdda system configuration;
 251:.\Generated_Source\PSoC4/cyfitter_cfg.c **** * may be called during operation when the user informs us that the Vdda voltage crossed the pump th
 252:.\Generated_Source\PSoC4/cyfitter_cfg.c **** *
 253:.\Generated_Source\PSoC4/cyfitter_cfg.c **** * Parameters:
 254:.\Generated_Source\PSoC4/cyfitter_cfg.c **** *  enabled - 1 to enable the pumps, 0 to disable the pumps
 255:.\Generated_Source\PSoC4/cyfitter_cfg.c **** *
 256:.\Generated_Source\PSoC4/cyfitter_cfg.c **** * Return:
 257:.\Generated_Source\PSoC4/cyfitter_cfg.c **** *  void
 258:.\Generated_Source\PSoC4/cyfitter_cfg.c **** *
 259:.\Generated_Source\PSoC4/cyfitter_cfg.c **** *******************************************************************************/
 260:.\Generated_Source\PSoC4/cyfitter_cfg.c **** void SetAnalogRoutingPumps(uint8 enabled)
ARM GAS  C:\Users\syhaines\AppData\Local\Temp\ccqhMmSy.s 			page 6


 261:.\Generated_Source\PSoC4/cyfitter_cfg.c **** {
  26              		.loc 1 261 0
  27              		.cfi_startproc
  28              	.LVL0:
 262:.\Generated_Source\PSoC4/cyfitter_cfg.c **** 	uint32 regValue = CY_GET_XTND_REG32((void *)(CYREG_SAR_PUMP_CTRL));
  29              		.loc 1 262 0
  30 0000 054A     		ldr	r2, .L5
  31 0002 1368     		ldr	r3, [r2]
  32              	.LVL1:
 263:.\Generated_Source\PSoC4/cyfitter_cfg.c **** 	if (enabled != 0u)
  33              		.loc 1 263 0
  34 0004 0028     		cmp	r0, #0
  35 0006 03D0     		beq	.L2
 264:.\Generated_Source\PSoC4/cyfitter_cfg.c **** 	{
 265:.\Generated_Source\PSoC4/cyfitter_cfg.c **** 		regValue |= 0x80000000u;
  36              		.loc 1 265 0
  37 0008 8021     		mov	r1, #128
  38 000a 0906     		lsl	r1, r1, #24
  39 000c 0B43     		orr	r3, r1
  40              	.LVL2:
  41 000e 01E0     		b	.L3
  42              	.L2:
 266:.\Generated_Source\PSoC4/cyfitter_cfg.c **** 	}
 267:.\Generated_Source\PSoC4/cyfitter_cfg.c **** 	else
 268:.\Generated_Source\PSoC4/cyfitter_cfg.c **** 	{
 269:.\Generated_Source\PSoC4/cyfitter_cfg.c **** 		regValue &= ~0x80000000u;
  43              		.loc 1 269 0
  44 0010 5B00     		lsl	r3, r3, #1
  45              	.LVL3:
  46 0012 5B08     		lsr	r3, r3, #1
  47              	.LVL4:
  48              	.L3:
 270:.\Generated_Source\PSoC4/cyfitter_cfg.c **** 	}
 271:.\Generated_Source\PSoC4/cyfitter_cfg.c **** 	CY_SET_XTND_REG32((void *)(CYREG_SAR_PUMP_CTRL), regValue);
  49              		.loc 1 271 0
  50 0014 1360     		str	r3, [r2]
 272:.\Generated_Source\PSoC4/cyfitter_cfg.c **** }
  51              		.loc 1 272 0
  52              		@ sp needed
  53 0016 7047     		bx	lr
  54              	.L6:
  55              		.align	2
  56              	.L5:
  57 0018 80031A40 		.word	1075446656
  58              		.cfi_endproc
  59              	.LFE6:
  60              		.size	SetAnalogRoutingPumps, .-SetAnalogRoutingPumps
  61              		.section	.psocinit,"ax",%progbits
  62              		.align	1
  63              		.global	cyfitter_cfg
  64              		.code	16
  65              		.thumb_func
  66              		.type	cyfitter_cfg, %function
  67              	cyfitter_cfg:
  68              	.LFB7:
 273:.\Generated_Source\PSoC4/cyfitter_cfg.c **** 
 274:.\Generated_Source\PSoC4/cyfitter_cfg.c **** #define CY_AMUX_UNUSED CYREG_CM0_ROM_DWT
ARM GAS  C:\Users\syhaines\AppData\Local\Temp\ccqhMmSy.s 			page 7


 275:.\Generated_Source\PSoC4/cyfitter_cfg.c **** 
 276:.\Generated_Source\PSoC4/cyfitter_cfg.c **** 
 277:.\Generated_Source\PSoC4/cyfitter_cfg.c **** /*******************************************************************************
 278:.\Generated_Source\PSoC4/cyfitter_cfg.c **** * Function Name: cyfitter_cfg
 279:.\Generated_Source\PSoC4/cyfitter_cfg.c **** ********************************************************************************
 280:.\Generated_Source\PSoC4/cyfitter_cfg.c **** * Summary:
 281:.\Generated_Source\PSoC4/cyfitter_cfg.c **** *  This function is called by the start-up code for the selected device. It
 282:.\Generated_Source\PSoC4/cyfitter_cfg.c **** *  performs all of the necessary device configuration based on the design
 283:.\Generated_Source\PSoC4/cyfitter_cfg.c **** *  settings.  This includes settings from the Design Wide Resources (DWR) such
 284:.\Generated_Source\PSoC4/cyfitter_cfg.c **** *  as Clocks and Pins as well as any component configuration that is necessary.
 285:.\Generated_Source\PSoC4/cyfitter_cfg.c **** *
 286:.\Generated_Source\PSoC4/cyfitter_cfg.c **** * Parameters:  
 287:.\Generated_Source\PSoC4/cyfitter_cfg.c **** *   void
 288:.\Generated_Source\PSoC4/cyfitter_cfg.c **** *
 289:.\Generated_Source\PSoC4/cyfitter_cfg.c **** * Return:
 290:.\Generated_Source\PSoC4/cyfitter_cfg.c **** *   void
 291:.\Generated_Source\PSoC4/cyfitter_cfg.c **** *
 292:.\Generated_Source\PSoC4/cyfitter_cfg.c **** *******************************************************************************/
 293:.\Generated_Source\PSoC4/cyfitter_cfg.c **** CY_CFG_SECTION
 294:.\Generated_Source\PSoC4/cyfitter_cfg.c **** void cyfitter_cfg(void)
 295:.\Generated_Source\PSoC4/cyfitter_cfg.c **** {
  69              		.loc 1 295 0
  70              		.cfi_startproc
  71 0000 F8B5     		push	{r3, r4, r5, r6, r7, lr}
  72              		.cfi_def_cfa_offset 24
  73              		.cfi_offset 3, -24
  74              		.cfi_offset 4, -20
  75              		.cfi_offset 5, -16
  76              		.cfi_offset 6, -12
  77              		.cfi_offset 7, -8
  78              		.cfi_offset 14, -4
 296:.\Generated_Source\PSoC4/cyfitter_cfg.c **** 	/* Disable interrupts by default. Let user enable if/when they want. */
 297:.\Generated_Source\PSoC4/cyfitter_cfg.c **** 	CyGlobalIntDisable;
  79              		.loc 1 297 0
  80              	@ 297 ".\Generated_Source\PSoC4\cyfitter_cfg.c" 1
  81 0002 72B6     		CPSID   i
  82              	@ 0 "" 2
  83              	.LVL5:
  84              		.code	16
  85              	.LBB14:
  86              	.LBB15:
  87              	.LBB16:
  88              	.LBB17:
  62:.\Generated_Source\PSoC4/cyfitter_cfg.c **** }
  89              		.loc 1 62 0
  90 0004 8022     		mov	r2, #128
  91 0006 0021     		mov	r1, #0
  92 0008 D200     		lsl	r2, r2, #3
  93 000a 4A48     		ldr	r0, .L12
  94 000c FFF7FEFF 		bl	memset
  95              	.LVL6:
  96 0010 8022     		mov	r2, #128
  97 0012 4948     		ldr	r0, .L12+4
  98 0014 D200     		lsl	r2, r2, #3
  99 0016 0021     		mov	r1, #0
 100 0018 FFF7FEFF 		bl	memset
 101              	.LVL7:
ARM GAS  C:\Users\syhaines\AppData\Local\Temp\ccqhMmSy.s 			page 8


 102 001c 0022     		mov	r2, #0
 103 001e 141C     		mov	r4, r2
 104              	.LVL8:
 105              	.L10:
 106              	.LBE17:
 107              	.LBE16:
 108              	.LBE15:
 109              	.LBB18:
 110              	.LBB19:
 111              	.LBB20:
 155:.\Generated_Source\PSoC4/cyfitter_cfg.c **** 		uint8 count = (uint8)baseAddr;
 112              		.loc 1 155 0
 113 0020 4649     		ldr	r1, .L12+8
 157:.\Generated_Source\PSoC4/cyfitter_cfg.c **** 		while (count != 0u)
 114              		.loc 1 157 0
 115 0022 FF25     		mov	r5, #255
 155:.\Generated_Source\PSoC4/cyfitter_cfg.c **** 		uint8 count = (uint8)baseAddr;
 116              		.loc 1 155 0
 117 0024 5758     		ldr	r7, [r2, r1]
 118              	.LVL9:
 119 0026 0C31     		add	r1, r1, #12
 157:.\Generated_Source\PSoC4/cyfitter_cfg.c **** 		while (count != 0u)
 120              		.loc 1 157 0
 121 0028 3E1C     		mov	r6, r7
 122 002a 081C     		mov	r0, r1
 123 002c 6300     		lsl	r3, r4, #1
 124 002e AE43     		bic	r6, r5
 125              	.LVL10:
 126 0030 3D40     		and	r5, r7
 127 0032 0133     		add	r3, r3, #1
 128 0034 6419     		add	r4, r4, r5
 129              	.LVL11:
 130 0036 CB18     		add	r3, r1, r3
 131 0038 6100     		lsl	r1, r4, #1
 132 003a 0131     		add	r1, r1, #1
 133 003c 4118     		add	r1, r0, r1
 134              	.LVL12:
 135              	.L8:
 158:.\Generated_Source\PSoC4/cyfitter_cfg.c **** 		{
 136              		.loc 1 158 0
 137 003e 8B42     		cmp	r3, r1
 138 0040 06D0     		beq	.L11
 139 0042 581E     		sub	r0, r3, #1
 160:.\Generated_Source\PSoC4/cyfitter_cfg.c **** 			j++;
 140              		.loc 1 160 0
 141 0044 0078     		ldrb	r0, [r0]
 142 0046 1D78     		ldrb	r5, [r3]
 143 0048 8019     		add	r0, r0, r6
 144 004a 0570     		strb	r5, [r0]
 145 004c 0233     		add	r3, r3, #2
 146 004e F6E7     		b	.L8
 147              	.L11:
 148              	.LVL13:
 149 0050 0432     		add	r2, r2, #4
 150              	.LBE20:
 153:.\Generated_Source\PSoC4/cyfitter_cfg.c **** 	{
 151              		.loc 1 153 0
ARM GAS  C:\Users\syhaines\AppData\Local\Temp\ccqhMmSy.s 			page 9


 152 0052 0C2A     		cmp	r2, #12
 153 0054 E4D1     		bne	.L10
 154              	.LBE19:
 155              	.LBE18:
 298:.\Generated_Source\PSoC4/cyfitter_cfg.c **** 
 299:.\Generated_Source\PSoC4/cyfitter_cfg.c **** 	{
 300:.\Generated_Source\PSoC4/cyfitter_cfg.c **** 		static const uint32 CYCODE cy_cfg_addr_table[] = {
 301:.\Generated_Source\PSoC4/cyfitter_cfg.c **** 			0x400F4202u, /* Base address: 0x400F4200 Count: 2 */
 302:.\Generated_Source\PSoC4/cyfitter_cfg.c **** 			0x400F4303u, /* Base address: 0x400F4300 Count: 3 */
 303:.\Generated_Source\PSoC4/cyfitter_cfg.c **** 			0x400F6002u, /* Base address: 0x400F6000 Count: 2 */
 304:.\Generated_Source\PSoC4/cyfitter_cfg.c **** 		};
 305:.\Generated_Source\PSoC4/cyfitter_cfg.c **** 
 306:.\Generated_Source\PSoC4/cyfitter_cfg.c **** 		static const cy_cfg_addrvalue_t CYCODE cy_cfg_data_table[] = {
 307:.\Generated_Source\PSoC4/cyfitter_cfg.c **** 			{0x60u, 0x10u},
 308:.\Generated_Source\PSoC4/cyfitter_cfg.c **** 			{0xD8u, 0x02u},
 309:.\Generated_Source\PSoC4/cyfitter_cfg.c **** 			{0x1Cu, 0x10u},
 310:.\Generated_Source\PSoC4/cyfitter_cfg.c **** 			{0x94u, 0x10u},
 311:.\Generated_Source\PSoC4/cyfitter_cfg.c **** 			{0xC6u, 0x04u},
 312:.\Generated_Source\PSoC4/cyfitter_cfg.c **** 			{0x02u, 0x01u},
 313:.\Generated_Source\PSoC4/cyfitter_cfg.c **** 			{0x11u, 0x01u},
 314:.\Generated_Source\PSoC4/cyfitter_cfg.c **** 		};
 315:.\Generated_Source\PSoC4/cyfitter_cfg.c **** 
 316:.\Generated_Source\PSoC4/cyfitter_cfg.c **** 
 317:.\Generated_Source\PSoC4/cyfitter_cfg.c **** 
 318:.\Generated_Source\PSoC4/cyfitter_cfg.c **** 		CYPACKED typedef struct {
 319:.\Generated_Source\PSoC4/cyfitter_cfg.c **** 			void CYFAR *address;
 320:.\Generated_Source\PSoC4/cyfitter_cfg.c **** 			uint16 size;
 321:.\Generated_Source\PSoC4/cyfitter_cfg.c **** 		} CYPACKED_ATTR cfg_memset_t;
 322:.\Generated_Source\PSoC4/cyfitter_cfg.c **** 
 323:.\Generated_Source\PSoC4/cyfitter_cfg.c **** 		static const cfg_memset_t CYCODE cfg_memset_list [] = {
 324:.\Generated_Source\PSoC4/cyfitter_cfg.c **** 			/* address, size */
 325:.\Generated_Source\PSoC4/cyfitter_cfg.c **** 			{(void CYFAR *)(CYDEV_UDB_P0_U0_BASE), 1024u},
 326:.\Generated_Source\PSoC4/cyfitter_cfg.c **** 			{(void CYFAR *)(CYDEV_UDB_DSI0_BASE), 1024u},
 327:.\Generated_Source\PSoC4/cyfitter_cfg.c **** 		};
 328:.\Generated_Source\PSoC4/cyfitter_cfg.c **** 
 329:.\Generated_Source\PSoC4/cyfitter_cfg.c **** 		uint8 CYDATA i;
 330:.\Generated_Source\PSoC4/cyfitter_cfg.c **** 
 331:.\Generated_Source\PSoC4/cyfitter_cfg.c **** 		/* Zero out critical memory blocks before beginning configuration */
 332:.\Generated_Source\PSoC4/cyfitter_cfg.c **** 		for (i = 0u; i < (sizeof(cfg_memset_list)/sizeof(cfg_memset_list[0])); i++)
 333:.\Generated_Source\PSoC4/cyfitter_cfg.c **** 		{
 334:.\Generated_Source\PSoC4/cyfitter_cfg.c **** 			const cfg_memset_t CYCODE * CYDATA ms = &cfg_memset_list[i];
 335:.\Generated_Source\PSoC4/cyfitter_cfg.c **** 			CYMEMZERO(ms->address, (size_t)(uint32)(ms->size));
 336:.\Generated_Source\PSoC4/cyfitter_cfg.c **** 		}
 337:.\Generated_Source\PSoC4/cyfitter_cfg.c **** 
 338:.\Generated_Source\PSoC4/cyfitter_cfg.c **** 		cfg_write_bytes32(cy_cfg_addr_table, cy_cfg_data_table);
 339:.\Generated_Source\PSoC4/cyfitter_cfg.c **** 
 340:.\Generated_Source\PSoC4/cyfitter_cfg.c **** 		/* HSIOM Starting address: CYDEV_HSIOM_BASE */
 341:.\Generated_Source\PSoC4/cyfitter_cfg.c **** 		CY_SET_XTND_REG32((void CYFAR *)(CYREG_HSIOM_PORT_SEL2), 0x30000000u);
 156              		.loc 1 341 0
 157 0056 C022     		mov	r2, #192
 158 0058 394B     		ldr	r3, .L12+12
 159 005a 9205     		lsl	r2, r2, #22
 160 005c 1A60     		str	r2, [r3]
 342:.\Generated_Source\PSoC4/cyfitter_cfg.c **** 		CY_SET_XTND_REG32((void CYFAR *)(CYREG_HSIOM_PORT_SEL3), 0x0000EE00u);
 161              		.loc 1 342 0
 162 005e EE22     		mov	r2, #238
 163 0060 384B     		ldr	r3, .L12+16
ARM GAS  C:\Users\syhaines\AppData\Local\Temp\ccqhMmSy.s 			page 10


 164 0062 1202     		lsl	r2, r2, #8
 165 0064 1A60     		str	r2, [r3]
 343:.\Generated_Source\PSoC4/cyfitter_cfg.c **** 
 344:.\Generated_Source\PSoC4/cyfitter_cfg.c **** 		/* UDB_PA_0 Starting address: CYDEV_UDB_PA0_BASE */
 345:.\Generated_Source\PSoC4/cyfitter_cfg.c **** 		CY_SET_XTND_REG32((void CYFAR *)(CYDEV_UDB_PA0_BASE), 0x00990000u);
 166              		.loc 1 345 0
 167 0066 9923     		mov	r3, #153
 346:.\Generated_Source\PSoC4/cyfitter_cfg.c **** 		CY_SET_XTND_REG32((void CYFAR *)(CYREG_UDB_PA0_CFG4), 0x00200000u);
 168              		.loc 1 346 0
 169 0068 8021     		mov	r1, #128
 345:.\Generated_Source\PSoC4/cyfitter_cfg.c **** 		CY_SET_XTND_REG32((void CYFAR *)(CYREG_UDB_PA0_CFG4), 0x00200000u);
 170              		.loc 1 345 0
 171 006a 374A     		ldr	r2, .L12+20
 172 006c 1B04     		lsl	r3, r3, #16
 173 006e 1360     		str	r3, [r2]
 174              		.loc 1 346 0
 175 0070 364A     		ldr	r2, .L12+24
 176 0072 8903     		lsl	r1, r1, #14
 177 0074 1160     		str	r1, [r2]
 347:.\Generated_Source\PSoC4/cyfitter_cfg.c **** 
 348:.\Generated_Source\PSoC4/cyfitter_cfg.c **** 		/* UDB_PA_1 Starting address: CYDEV_UDB_PA1_BASE */
 349:.\Generated_Source\PSoC4/cyfitter_cfg.c **** 		CY_SET_XTND_REG32((void CYFAR *)(CYDEV_UDB_PA1_BASE), 0x00990000u);
 350:.\Generated_Source\PSoC4/cyfitter_cfg.c **** 
 351:.\Generated_Source\PSoC4/cyfitter_cfg.c **** 		/* UDB_PA_2 Starting address: CYDEV_UDB_PA2_BASE */
 352:.\Generated_Source\PSoC4/cyfitter_cfg.c **** 		CY_SET_XTND_REG32((void CYFAR *)(CYDEV_UDB_PA2_BASE), 0x00990000u);
 353:.\Generated_Source\PSoC4/cyfitter_cfg.c **** 		CY_SET_XTND_REG32((void CYFAR *)(CYREG_UDB_PA2_CFG8), 0x80000000u);
 178              		.loc 1 353 0
 179 0076 8021     		mov	r1, #128
 349:.\Generated_Source\PSoC4/cyfitter_cfg.c **** 
 180              		.loc 1 349 0
 181 0078 354A     		ldr	r2, .L12+28
 182              		.loc 1 353 0
 183 007a 0906     		lsl	r1, r1, #24
 349:.\Generated_Source\PSoC4/cyfitter_cfg.c **** 
 184              		.loc 1 349 0
 185 007c 1360     		str	r3, [r2]
 352:.\Generated_Source\PSoC4/cyfitter_cfg.c **** 		CY_SET_XTND_REG32((void CYFAR *)(CYREG_UDB_PA2_CFG8), 0x80000000u);
 186              		.loc 1 352 0
 187 007e 354A     		ldr	r2, .L12+32
 354:.\Generated_Source\PSoC4/cyfitter_cfg.c **** 
 355:.\Generated_Source\PSoC4/cyfitter_cfg.c **** 		/* UDB_PA_3 Starting address: CYDEV_UDB_PA3_BASE */
 356:.\Generated_Source\PSoC4/cyfitter_cfg.c **** 		CY_SET_XTND_REG32((void CYFAR *)(CYDEV_UDB_PA3_BASE), 0x00990000u);
 357:.\Generated_Source\PSoC4/cyfitter_cfg.c **** 		CY_SET_XTND_REG32((void CYFAR *)(CYREG_UDB_PA3_CFG4), 0xA8000000u);
 358:.\Generated_Source\PSoC4/cyfitter_cfg.c **** 
 359:.\Generated_Source\PSoC4/cyfitter_cfg.c **** 		/* Enable digital routing */
 360:.\Generated_Source\PSoC4/cyfitter_cfg.c **** 		CY_SET_XTND_REG8((void *)CYREG_UDB_UDBIF_BANK_CTL, CY_GET_XTND_REG8((void *)CYREG_UDB_UDBIF_BANK_
 361:.\Generated_Source\PSoC4/cyfitter_cfg.c **** 
 362:.\Generated_Source\PSoC4/cyfitter_cfg.c **** 		/* Enable UDB array */
 363:.\Generated_Source\PSoC4/cyfitter_cfg.c **** 		CY_SET_XTND_REG8((void *)CYREG_UDB_UDBIF_WAIT_CFG, (uint8)((CY_GET_XTND_REG8((void *)CYREG_UDB_UD
 188              		.loc 1 363 0
 189 0080 3C20     		mov	r0, #60
 352:.\Generated_Source\PSoC4/cyfitter_cfg.c **** 		CY_SET_XTND_REG32((void CYFAR *)(CYREG_UDB_PA2_CFG8), 0x80000000u);
 190              		.loc 1 352 0
 191 0082 1360     		str	r3, [r2]
 353:.\Generated_Source\PSoC4/cyfitter_cfg.c **** 
 192              		.loc 1 353 0
 193 0084 344A     		ldr	r2, .L12+36
ARM GAS  C:\Users\syhaines\AppData\Local\Temp\ccqhMmSy.s 			page 11


 194              	.LBE14:
 195              	.LBB21:
 196              	.LBB22:
 189:.\Generated_Source\PSoC4/cyfitter_cfg.c **** 
 197              		.loc 1 189 0
 198 0086 354C     		ldr	r4, .L12+40
 199              	.LVL14:
 200              	.LBE22:
 201              	.LBE21:
 202              	.LBB25:
 353:.\Generated_Source\PSoC4/cyfitter_cfg.c **** 
 203              		.loc 1 353 0
 204 0088 1160     		str	r1, [r2]
 356:.\Generated_Source\PSoC4/cyfitter_cfg.c **** 		CY_SET_XTND_REG32((void CYFAR *)(CYREG_UDB_PA3_CFG4), 0xA8000000u);
 205              		.loc 1 356 0
 206 008a 354A     		ldr	r2, .L12+44
 360:.\Generated_Source\PSoC4/cyfitter_cfg.c **** 
 207              		.loc 1 360 0
 208 008c 0221     		mov	r1, #2
 356:.\Generated_Source\PSoC4/cyfitter_cfg.c **** 		CY_SET_XTND_REG32((void CYFAR *)(CYREG_UDB_PA3_CFG4), 0xA8000000u);
 209              		.loc 1 356 0
 210 008e 1360     		str	r3, [r2]
 357:.\Generated_Source\PSoC4/cyfitter_cfg.c **** 
 211              		.loc 1 357 0
 212 0090 A822     		mov	r2, #168
 213 0092 344B     		ldr	r3, .L12+48
 214 0094 1206     		lsl	r2, r2, #24
 215 0096 1A60     		str	r2, [r3]
 360:.\Generated_Source\PSoC4/cyfitter_cfg.c **** 
 216              		.loc 1 360 0
 217 0098 334A     		ldr	r2, .L12+52
 218              	.LBE25:
 364:.\Generated_Source\PSoC4/cyfitter_cfg.c **** 		CY_SET_XTND_REG8((void *)CYREG_UDB_UDBIF_BANK_CTL, (uint8)(CY_GET_XTND_REG8((void *)CYREG_UDB_UDB
 365:.\Generated_Source\PSoC4/cyfitter_cfg.c **** 	}
 366:.\Generated_Source\PSoC4/cyfitter_cfg.c **** 
 367:.\Generated_Source\PSoC4/cyfitter_cfg.c **** 	/* Perform second pass device configuration. These items must be configured in specific order afte
 368:.\Generated_Source\PSoC4/cyfitter_cfg.c **** 	/* IOPINS0_0 Starting address: CYDEV_PRT0_BASE */
 369:.\Generated_Source\PSoC4/cyfitter_cfg.c **** 	CY_SET_XTND_REG32((void CYFAR *)(CYREG_PRT0_PC), 0x00924876u);
 370:.\Generated_Source\PSoC4/cyfitter_cfg.c **** 
 371:.\Generated_Source\PSoC4/cyfitter_cfg.c **** 	/* IOPINS0_1 Starting address: CYDEV_PRT1_BASE */
 372:.\Generated_Source\PSoC4/cyfitter_cfg.c **** 	CY_SET_XTND_REG32((void CYFAR *)(CYDEV_PRT1_BASE), 0x0000009Fu);
 373:.\Generated_Source\PSoC4/cyfitter_cfg.c **** 	CY_SET_XTND_REG32((void CYFAR *)(CYREG_PRT1_PC), 0x00000400u);
 374:.\Generated_Source\PSoC4/cyfitter_cfg.c **** 	CY_SET_XTND_REG32((void CYFAR *)(CYREG_PRT1_PC2), 0x00000097u);
 375:.\Generated_Source\PSoC4/cyfitter_cfg.c **** 
 376:.\Generated_Source\PSoC4/cyfitter_cfg.c **** 	/* IOPINS0_2 Starting address: CYDEV_PRT2_BASE */
 377:.\Generated_Source\PSoC4/cyfitter_cfg.c **** 	CY_SET_XTND_REG32((void CYFAR *)(CYDEV_PRT2_BASE), 0x00000080u);
 378:.\Generated_Source\PSoC4/cyfitter_cfg.c **** 	CY_SET_XTND_REG32((void CYFAR *)(CYREG_PRT2_PC), 0x00D84924u);
 379:.\Generated_Source\PSoC4/cyfitter_cfg.c **** 
 380:.\Generated_Source\PSoC4/cyfitter_cfg.c **** 	/* IOPINS0_3 Starting address: CYDEV_PRT3_BASE */
 381:.\Generated_Source\PSoC4/cyfitter_cfg.c **** 	CY_SET_XTND_REG32((void CYFAR *)(CYDEV_PRT3_BASE), 0x000000E0u);
 382:.\Generated_Source\PSoC4/cyfitter_cfg.c **** 	CY_SET_XTND_REG32((void CYFAR *)(CYREG_PRT3_PC), 0x00490D80u);
 383:.\Generated_Source\PSoC4/cyfitter_cfg.c **** 
 384:.\Generated_Source\PSoC4/cyfitter_cfg.c **** 
 385:.\Generated_Source\PSoC4/cyfitter_cfg.c **** 	/* Setup clocks based on selections from Clock DWR */
 386:.\Generated_Source\PSoC4/cyfitter_cfg.c **** 	ClockSetup();
 387:.\Generated_Source\PSoC4/cyfitter_cfg.c **** 
 388:.\Generated_Source\PSoC4/cyfitter_cfg.c **** 	/* Perform basic analog initialization to defaults */
ARM GAS  C:\Users\syhaines\AppData\Local\Temp\ccqhMmSy.s 			page 12


 389:.\Generated_Source\PSoC4/cyfitter_cfg.c **** 	AnalogSetDefault();
 390:.\Generated_Source\PSoC4/cyfitter_cfg.c **** 
 391:.\Generated_Source\PSoC4/cyfitter_cfg.c **** }
 219              		.loc 1 391 0
 220              		@ sp needed
 221              	.LBB26:
 360:.\Generated_Source\PSoC4/cyfitter_cfg.c **** 
 222              		.loc 1 360 0
 223 009a 1378     		ldrb	r3, [r2]
 224 009c 0B43     		orr	r3, r1
 363:.\Generated_Source\PSoC4/cyfitter_cfg.c **** 		CY_SET_XTND_REG8((void *)CYREG_UDB_UDBIF_BANK_CTL, (uint8)(CY_GET_XTND_REG8((void *)CYREG_UDB_UDB
 225              		.loc 1 363 0
 226 009e 3349     		ldr	r1, .L12+56
 360:.\Generated_Source\PSoC4/cyfitter_cfg.c **** 
 227              		.loc 1 360 0
 228 00a0 1370     		strb	r3, [r2]
 363:.\Generated_Source\PSoC4/cyfitter_cfg.c **** 		CY_SET_XTND_REG8((void *)CYREG_UDB_UDBIF_BANK_CTL, (uint8)(CY_GET_XTND_REG8((void *)CYREG_UDB_UDB
 229              		.loc 1 363 0
 230 00a2 0B78     		ldrb	r3, [r1]
 231 00a4 8343     		bic	r3, r0
 232 00a6 2838     		sub	r0, r0, #40
 233 00a8 0343     		orr	r3, r0
 234 00aa 0B70     		strb	r3, [r1]
 364:.\Generated_Source\PSoC4/cyfitter_cfg.c **** 		CY_SET_XTND_REG8((void *)CYREG_UDB_UDBIF_BANK_CTL, (uint8)(CY_GET_XTND_REG8((void *)CYREG_UDB_UDB
 235              		.loc 1 364 0
 236 00ac 1621     		mov	r1, #22
 237 00ae 1378     		ldrb	r3, [r2]
 238              	.LBE26:
 239              	.LBB27:
 240              	.LBB23:
 192:.\Generated_Source\PSoC4/cyfitter_cfg.c **** 
 241              		.loc 1 192 0
 242 00b0 0430     		add	r0, r0, #4
 243              	.LBE23:
 244              	.LBE27:
 245              	.LBB28:
 364:.\Generated_Source\PSoC4/cyfitter_cfg.c **** 	}
 246              		.loc 1 364 0
 247 00b2 0B43     		orr	r3, r1
 248 00b4 1370     		strb	r3, [r2]
 249              	.LBE28:
 369:.\Generated_Source\PSoC4/cyfitter_cfg.c **** 
 250              		.loc 1 369 0
 251 00b6 2E4A     		ldr	r2, .L12+60
 252 00b8 2E4B     		ldr	r3, .L12+64
 253 00ba 1A60     		str	r2, [r3]
 372:.\Generated_Source\PSoC4/cyfitter_cfg.c **** 	CY_SET_XTND_REG32((void CYFAR *)(CYREG_PRT1_PC), 0x00000400u);
 254              		.loc 1 372 0
 255 00bc 9F22     		mov	r2, #159
 256 00be 2E4B     		ldr	r3, .L12+68
 257 00c0 1A60     		str	r2, [r3]
 373:.\Generated_Source\PSoC4/cyfitter_cfg.c **** 	CY_SET_XTND_REG32((void CYFAR *)(CYREG_PRT1_PC2), 0x00000097u);
 258              		.loc 1 373 0
 259 00c2 8022     		mov	r2, #128
 260 00c4 2D4B     		ldr	r3, .L12+72
 261 00c6 D200     		lsl	r2, r2, #3
 262 00c8 1A60     		str	r2, [r3]
ARM GAS  C:\Users\syhaines\AppData\Local\Temp\ccqhMmSy.s 			page 13


 374:.\Generated_Source\PSoC4/cyfitter_cfg.c **** 
 263              		.loc 1 374 0
 264 00ca 9722     		mov	r2, #151
 265 00cc 2C4B     		ldr	r3, .L12+76
 266 00ce 1A60     		str	r2, [r3]
 377:.\Generated_Source\PSoC4/cyfitter_cfg.c **** 	CY_SET_XTND_REG32((void CYFAR *)(CYREG_PRT2_PC), 0x00D84924u);
 267              		.loc 1 377 0
 268 00d0 2C4B     		ldr	r3, .L12+80
 269 00d2 173A     		sub	r2, r2, #23
 270 00d4 1A60     		str	r2, [r3]
 378:.\Generated_Source\PSoC4/cyfitter_cfg.c **** 
 271              		.loc 1 378 0
 272 00d6 2C4A     		ldr	r2, .L12+84
 273 00d8 2C4B     		ldr	r3, .L12+88
 274 00da 1A60     		str	r2, [r3]
 381:.\Generated_Source\PSoC4/cyfitter_cfg.c **** 	CY_SET_XTND_REG32((void CYFAR *)(CYREG_PRT3_PC), 0x00490D80u);
 275              		.loc 1 381 0
 276 00dc E022     		mov	r2, #224
 277 00de 2C4B     		ldr	r3, .L12+92
 278 00e0 1A60     		str	r2, [r3]
 382:.\Generated_Source\PSoC4/cyfitter_cfg.c **** 
 279              		.loc 1 382 0
 280 00e2 2C4A     		ldr	r2, .L12+96
 281 00e4 2C4B     		ldr	r3, .L12+100
 282 00e6 1A60     		str	r2, [r3]
 283              	.LBB29:
 284              	.LBB24:
 189:.\Generated_Source\PSoC4/cyfitter_cfg.c **** 
 285              		.loc 1 189 0
 286 00e8 8022     		mov	r2, #128
 287 00ea 2368     		ldr	r3, [r4]
 288 00ec D202     		lsl	r2, r2, #11
 289 00ee 1343     		orr	r3, r2
 290 00f0 2360     		str	r3, [r4]
 192:.\Generated_Source\PSoC4/cyfitter_cfg.c **** 
 291              		.loc 1 192 0
 292 00f2 FFF7FEFF 		bl	CySysClkWriteImoFreq
 293              	.LVL15:
 195:.\Generated_Source\PSoC4/cyfitter_cfg.c **** 	/* CYDEV_CLK_ILO_CONFIG Starting address: CYDEV_CLK_ILO_CONFIG */
 294              		.loc 1 195 0
 295 00f6 2268     		ldr	r2, [r4]
 296 00f8 284B     		ldr	r3, .L12+104
 211:.\Generated_Source\PSoC4/cyfitter_cfg.c **** 
 297              		.loc 1 211 0
 298 00fa 2949     		ldr	r1, .L12+108
 195:.\Generated_Source\PSoC4/cyfitter_cfg.c **** 	/* CYDEV_CLK_ILO_CONFIG Starting address: CYDEV_CLK_ILO_CONFIG */
 299              		.loc 1 195 0
 300 00fc 1340     		and	r3, r2
 301 00fe 2360     		str	r3, [r4]
 197:.\Generated_Source\PSoC4/cyfitter_cfg.c **** 
 302              		.loc 1 197 0
 303 0100 284A     		ldr	r2, .L12+112
 304 0102 294B     		ldr	r3, .L12+116
 305 0104 1A60     		str	r2, [r3]
 201:.\Generated_Source\PSoC4/cyfitter_cfg.c **** 	CY_SET_XTND_REG32((void CYFAR *)(CYREG_CLK_SELECT09), 0x00000010u);
 306              		.loc 1 201 0
 307 0106 1023     		mov	r3, #16
ARM GAS  C:\Users\syhaines\AppData\Local\Temp\ccqhMmSy.s 			page 14


 308 0108 284A     		ldr	r2, .L12+120
 309 010a 1360     		str	r3, [r2]
 202:.\Generated_Source\PSoC4/cyfitter_cfg.c **** 
 310              		.loc 1 202 0
 311 010c 284A     		ldr	r2, .L12+124
 312 010e 1360     		str	r3, [r2]
 205:.\Generated_Source\PSoC4/cyfitter_cfg.c **** 
 313              		.loc 1 205 0
 314 0110 8222     		mov	r2, #130
 315 0112 284B     		ldr	r3, .L12+128
 316 0114 1206     		lsl	r2, r2, #24
 317 0116 1A60     		str	r2, [r3]
 208:.\Generated_Source\PSoC4/cyfitter_cfg.c **** 
 318              		.loc 1 208 0
 319 0118 0023     		mov	r3, #0
 211:.\Generated_Source\PSoC4/cyfitter_cfg.c **** 
 320              		.loc 1 211 0
 321 011a 274A     		ldr	r2, .L12+132
 208:.\Generated_Source\PSoC4/cyfitter_cfg.c **** 
 322              		.loc 1 208 0
 323 011c 2360     		str	r3, [r4]
 211:.\Generated_Source\PSoC4/cyfitter_cfg.c **** 
 324              		.loc 1 211 0
 325 011e 1160     		str	r1, [r2]
 213:.\Generated_Source\PSoC4/cyfitter_cfg.c **** }
 326              		.loc 1 213 0
 327 0120 264A     		ldr	r2, .L12+136
 328 0122 1360     		str	r3, [r2]
 329              	.LBE24:
 330              	.LBE29:
 331              	.LBB30:
 332              	.LBB31:
 238:.\Generated_Source\PSoC4/cyfitter_cfg.c **** 	CY_SET_XTND_REG32((void CYFAR *)CYREG_CTBM_OA1_SW, 0x00000110u);
 333              		.loc 1 238 0
 334 0124 8222     		mov	r2, #130
 335 0126 264B     		ldr	r3, .L12+140
 336 0128 5200     		lsl	r2, r2, #1
 337 012a 1A60     		str	r2, [r3]
 239:.\Generated_Source\PSoC4/cyfitter_cfg.c **** 	/* Variable VDDA is selected; no pumps are enabled by default */
 338              		.loc 1 239 0
 339 012c 254B     		ldr	r3, .L12+144
 340 012e 0C32     		add	r2, r2, #12
 341 0130 1A60     		str	r2, [r3]
 342              	.LVL16:
 343              	.LVL17:
 344              	.LBE31:
 345              	.LBE30:
 346              		.loc 1 391 0
 347 0132 F8BD     		pop	{r3, r4, r5, r6, r7, pc}
 348              	.L13:
 349              		.align	2
 350              	.L12:
 351 0134 00300F40 		.word	1074737152
 352 0138 00400F40 		.word	1074741248
 353 013c 00000000 		.word	.LANCHOR0
 354 0140 08000140 		.word	1073807368
 355 0144 0C000140 		.word	1073807372
ARM GAS  C:\Users\syhaines\AppData\Local\Temp\ccqhMmSy.s 			page 15


 356 0148 00500F40 		.word	1074745344
 357 014c 04500F40 		.word	1074745348
 358 0150 10500F40 		.word	1074745360
 359 0154 20500F40 		.word	1074745376
 360 0158 28500F40 		.word	1074745384
 361 015c 00010B40 		.word	1074462976
 362 0160 30500F40 		.word	1074745392
 363 0164 34500F40 		.word	1074745396
 364 0168 00700F40 		.word	1074753536
 365 016c 01700F40 		.word	1074753537
 366 0170 76489200 		.word	9586806
 367 0174 08000440 		.word	1074003976
 368 0178 00010440 		.word	1074004224
 369 017c 08010440 		.word	1074004232
 370 0180 18010440 		.word	1074004248
 371 0184 00020440 		.word	1074004480
 372 0188 2449D800 		.word	14174500
 373 018c 08020440 		.word	1074004488
 374 0190 00030440 		.word	1074004736
 375 0194 800D4900 		.word	4787584
 376 0198 08030440 		.word	1074004744
 377 019c FFFFFBFF 		.word	-262145
 378 01a0 17000080 		.word	-2147483625
 379 01a4 06000080 		.word	-2147483642
 380 01a8 04010B40 		.word	1074462980
 381 01ac 20020240 		.word	1073873440
 382 01b0 24020240 		.word	1073873444
 383 01b4 08010B40 		.word	1074462984
 384 01b8 00000240 		.word	1073872896
 385 01bc 0C020B40 		.word	1074463244
 386 01c0 80001040 		.word	1074790528
 387 01c4 88001040 		.word	1074790536
 388              		.cfi_endproc
 389              	.LFE7:
 390              		.size	cyfitter_cfg, .-cyfitter_cfg
 391              		.section	.rodata
 392              		.align	2
 393              		.set	.LANCHOR0,. + 0
 394              		.type	cy_cfg_addr_table.4711, %object
 395              		.size	cy_cfg_addr_table.4711, 12
 396              	cy_cfg_addr_table.4711:
 397 0000 02420F40 		.word	1074741762
 398 0004 03430F40 		.word	1074742019
 399 0008 02600F40 		.word	1074749442
 400              		.type	cy_cfg_data_table.4712, %object
 401              		.size	cy_cfg_data_table.4712, 14
 402              	cy_cfg_data_table.4712:
 403 000c 60       		.byte	96
 404 000d 10       		.byte	16
 405 000e D8       		.byte	-40
 406 000f 02       		.byte	2
 407 0010 1C       		.byte	28
 408 0011 10       		.byte	16
 409 0012 94       		.byte	-108
 410 0013 10       		.byte	16
 411 0014 C6       		.byte	-58
 412 0015 04       		.byte	4
ARM GAS  C:\Users\syhaines\AppData\Local\Temp\ccqhMmSy.s 			page 16


 413 0016 02       		.byte	2
 414 0017 01       		.byte	1
 415 0018 11       		.byte	17
 416 0019 01       		.byte	1
 417 001a 0000     		.text
 418              	.Letext0:
 419              		.file 2 "c:\\program files (x86)\\cypress\\psoc creator\\3.3\\psoc creator\\import\\gnu\\arm\\4.9.
 420              		.file 3 ".\\Generated_Source\\PSoC4\\cytypes.h"
 421              		.file 4 ".\\Generated_Source\\PSoC4\\CyLib.h"