ARM GAS  C:\Users\syhaines\AppData\Local\Temp\ccXhcYqL.s 			page 1


   1              		.cpu cortex-m0
   2              		.fpu softvfp
   3              		.eabi_attribute 20, 1
   4              		.eabi_attribute 21, 1
   5              		.eabi_attribute 23, 3
   6              		.eabi_attribute 24, 1
   7              		.eabi_attribute 25, 1
   8              		.eabi_attribute 26, 1
   9              		.eabi_attribute 30, 4
  10              		.eabi_attribute 34, 0
  11              		.eabi_attribute 18, 4
  12              		.code	16
  13              		.file	"CyLib.c"
  14              		.text
  15              	.Ltext0:
  16              		.cfi_sections	.debug_frame
  17              		.section	.text.CySysClkImoStart,"ax",%progbits
  18              		.align	1
  19              		.global	CySysClkImoStart
  20              		.code	16
  21              		.thumb_func
  22              		.type	CySysClkImoStart, %function
  23              	CySysClkImoStart:
  24              	.LFB0:
  25              		.file 1 ".\\Generated_Source\\PSoC4\\CyLib.c"
   1:.\Generated_Source\PSoC4/CyLib.c **** /*******************************************************************************
   2:.\Generated_Source\PSoC4/CyLib.c **** * File Name: CyLib.c
   3:.\Generated_Source\PSoC4/CyLib.c **** * Version 4.20
   4:.\Generated_Source\PSoC4/CyLib.c **** *
   5:.\Generated_Source\PSoC4/CyLib.c **** *  Description:
   6:.\Generated_Source\PSoC4/CyLib.c **** *   Provides a system API for the clocking, interrupts, and watchdog timer.
   7:.\Generated_Source\PSoC4/CyLib.c **** *
   8:.\Generated_Source\PSoC4/CyLib.c **** *  Note:
   9:.\Generated_Source\PSoC4/CyLib.c **** *   Documentation of the API's in this file is located in the
  10:.\Generated_Source\PSoC4/CyLib.c **** *   System Reference Guide provided with PSoC Creator.
  11:.\Generated_Source\PSoC4/CyLib.c **** *
  12:.\Generated_Source\PSoC4/CyLib.c **** ********************************************************************************
  13:.\Generated_Source\PSoC4/CyLib.c **** * Copyright 2010-2014, Cypress Semiconductor Corporation.  All rights reserved.
  14:.\Generated_Source\PSoC4/CyLib.c **** * You may use this file only in accordance with the license, terms, conditions,
  15:.\Generated_Source\PSoC4/CyLib.c **** * disclaimers, and limitations in the end user license agreement accompanying
  16:.\Generated_Source\PSoC4/CyLib.c **** * the software package with which this file was provided.
  17:.\Generated_Source\PSoC4/CyLib.c **** *******************************************************************************/
  18:.\Generated_Source\PSoC4/CyLib.c **** 
  19:.\Generated_Source\PSoC4/CyLib.c **** #include "CyLib.h"
  20:.\Generated_Source\PSoC4/CyLib.c **** 
  21:.\Generated_Source\PSoC4/CyLib.c **** 
  22:.\Generated_Source\PSoC4/CyLib.c **** /* Do not use these definitions directly in your application */
  23:.\Generated_Source\PSoC4/CyLib.c **** uint32 cydelayFreqHz  = CYDEV_BCLK__SYSCLK__HZ;
  24:.\Generated_Source\PSoC4/CyLib.c **** uint32 cydelayFreqKhz = (CYDEV_BCLK__SYSCLK__HZ + CY_DELAY_1K_MINUS_1_THRESHOLD) / CY_DELAY_1K_THRE
  25:.\Generated_Source\PSoC4/CyLib.c **** uint8  cydelayFreqMhz = (uint8)((CYDEV_BCLK__SYSCLK__HZ + CY_DELAY_1M_MINUS_1_THRESHOLD) / CY_DELAY
  26:.\Generated_Source\PSoC4/CyLib.c **** uint32 cydelay32kMs   = CY_DELAY_MS_OVERFLOW * ((CYDEV_BCLK__SYSCLK__HZ + CY_DELAY_1K_MINUS_1_THRES
  27:.\Generated_Source\PSoC4/CyLib.c ****                         CY_DELAY_1K_THRESHOLD);
  28:.\Generated_Source\PSoC4/CyLib.c **** 
  29:.\Generated_Source\PSoC4/CyLib.c **** #if (CY_IP_WCO)
  30:.\Generated_Source\PSoC4/CyLib.c ****     static uint32 CySysClkGetLfclkSource(void);
  31:.\Generated_Source\PSoC4/CyLib.c **** #endif /* (CY_IP_WCO) */
  32:.\Generated_Source\PSoC4/CyLib.c **** 
ARM GAS  C:\Users\syhaines\AppData\Local\Temp\ccXhcYqL.s 			page 2


  33:.\Generated_Source\PSoC4/CyLib.c **** #if(CY_IP_SRSSV2)
  34:.\Generated_Source\PSoC4/CyLib.c ****     /* CySysClkLfclkPosedgeCatch() / CySysClkLfclkPosedgeRestore() */
  35:.\Generated_Source\PSoC4/CyLib.c ****     uint32 lfclkPosedgeWdtCounter0Enabled = 0u;
  36:.\Generated_Source\PSoC4/CyLib.c ****     uint32 lfclkPosedgeEnabledWdtCounter  = 0u;
  37:.\Generated_Source\PSoC4/CyLib.c ****     uint32 lfclkPosedgeWdtCounter0Mode    = CY_SYS_WDT_MODE_NONE;
  38:.\Generated_Source\PSoC4/CyLib.c **** 
  39:.\Generated_Source\PSoC4/CyLib.c ****     static void CySysClkLfclkPosedgeCatch(void);
  40:.\Generated_Source\PSoC4/CyLib.c ****     static void CySysClkLfclkPosedgeRestore(void);
  41:.\Generated_Source\PSoC4/CyLib.c **** 
  42:.\Generated_Source\PSoC4/CyLib.c ****     static uint32 CySysWdtLocked(void);
  43:.\Generated_Source\PSoC4/CyLib.c ****     static uint32 CySysClkIloEnabled(void);
  44:.\Generated_Source\PSoC4/CyLib.c ****     #if (CY_IP_WCO)
  45:.\Generated_Source\PSoC4/CyLib.c ****         static uint32 CySysClkWcoEnabled(void);
  46:.\Generated_Source\PSoC4/CyLib.c ****     #endif /* (CY_IP_WCO) */
  47:.\Generated_Source\PSoC4/CyLib.c **** #endif /* (CY_IP_SRSSV2) */
  48:.\Generated_Source\PSoC4/CyLib.c **** 
  49:.\Generated_Source\PSoC4/CyLib.c **** 
  50:.\Generated_Source\PSoC4/CyLib.c **** static cySysTickCallback CySysTickCallbacks[CY_SYS_SYST_NUM_OF_CALLBACKS];
  51:.\Generated_Source\PSoC4/CyLib.c **** static void CySysTickServiceCallbacks(void);
  52:.\Generated_Source\PSoC4/CyLib.c **** uint32 CySysTickInitVar = 0u;
  53:.\Generated_Source\PSoC4/CyLib.c **** 
  54:.\Generated_Source\PSoC4/CyLib.c **** 
  55:.\Generated_Source\PSoC4/CyLib.c **** #if(CY_IP_SRSSV2)
  56:.\Generated_Source\PSoC4/CyLib.c ****         /* Conversion between CySysClkWriteImoFreq() parameter and register's value */
  57:.\Generated_Source\PSoC4/CyLib.c ****         const uint8 cyImoFreqMhz2Reg[CY_SYS_CLK_IMO_FREQ_TABLE_SIZE] = {
  58:.\Generated_Source\PSoC4/CyLib.c ****             /*  3 MHz */ 0x03u,  /*  4 MHz */ 0x04u,  /*  5 MHz */ 0x05u,  /*  6 MHz */ 0x06u,
  59:.\Generated_Source\PSoC4/CyLib.c ****             /*  7 MHz */ 0x07u,  /*  8 MHz */ 0x08u,  /*  9 MHz */ 0x09u,  /* 10 MHz */ 0x0Au,
  60:.\Generated_Source\PSoC4/CyLib.c ****             /* 11 MHz */ 0x0Bu,  /* 12 MHz */ 0x0Cu,  /* 13 MHz */ 0x0Eu,  /* 14 MHz */ 0x0Fu,
  61:.\Generated_Source\PSoC4/CyLib.c ****             /* 15 MHz */ 0x10u,  /* 16 MHz */ 0x11u,  /* 17 MHz */ 0x12u,  /* 18 MHz */ 0x13u,
  62:.\Generated_Source\PSoC4/CyLib.c ****             /* 19 MHz */ 0x14u,  /* 20 MHz */ 0x15u,  /* 21 MHz */ 0x16u,  /* 22 MHz */ 0x17u,
  63:.\Generated_Source\PSoC4/CyLib.c ****             /* 23 MHz */ 0x18u,  /* 24 MHz */ 0x19u,  /* 25 MHz */ 0x1Bu,  /* 26 MHz */ 0x1Cu,
  64:.\Generated_Source\PSoC4/CyLib.c ****             /* 27 MHz */ 0x1Du,  /* 28 MHz */ 0x1Eu,  /* 29 MHz */ 0x1Fu,  /* 30 MHz */ 0x20u,
  65:.\Generated_Source\PSoC4/CyLib.c ****             /* 31 MHz */ 0x21u,  /* 32 MHz */ 0x22u,  /* 33 MHz */ 0x23u,  /* 34 MHz */ 0x25u,
  66:.\Generated_Source\PSoC4/CyLib.c ****             /* 35 MHz */ 0x26u,  /* 36 MHz */ 0x27u,  /* 37 MHz */ 0x28u,  /* 38 MHz */ 0x29u,
  67:.\Generated_Source\PSoC4/CyLib.c ****             /* 39 MHz */ 0x2Au,  /* 40 MHz */ 0x2Bu,  /* 41 MHz */ 0x2Eu,  /* 42 MHz */ 0x2Fu,
  68:.\Generated_Source\PSoC4/CyLib.c ****             /* 43 MHz */ 0x30u,  /* 44 MHz */ 0x31u,  /* 45 MHz */ 0x32u,  /* 46 MHz */ 0x33u,
  69:.\Generated_Source\PSoC4/CyLib.c ****             /* 47 MHz */ 0x34u,  /* 48 MHz */ 0x35u };
  70:.\Generated_Source\PSoC4/CyLib.c **** #endif /* (CY_IP_SRSSV2) */
  71:.\Generated_Source\PSoC4/CyLib.c **** 
  72:.\Generated_Source\PSoC4/CyLib.c **** 
  73:.\Generated_Source\PSoC4/CyLib.c **** /*******************************************************************************
  74:.\Generated_Source\PSoC4/CyLib.c **** * Function Name: CySysClkImoStart
  75:.\Generated_Source\PSoC4/CyLib.c **** ********************************************************************************
  76:.\Generated_Source\PSoC4/CyLib.c **** *
  77:.\Generated_Source\PSoC4/CyLib.c **** * Summary:
  78:.\Generated_Source\PSoC4/CyLib.c **** *  Enables the IMO.
  79:.\Generated_Source\PSoC4/CyLib.c **** *
  80:.\Generated_Source\PSoC4/CyLib.c **** * Parameters:
  81:.\Generated_Source\PSoC4/CyLib.c **** *  None
  82:.\Generated_Source\PSoC4/CyLib.c **** *
  83:.\Generated_Source\PSoC4/CyLib.c **** * Return:
  84:.\Generated_Source\PSoC4/CyLib.c **** *  None
  85:.\Generated_Source\PSoC4/CyLib.c **** *
  86:.\Generated_Source\PSoC4/CyLib.c **** *******************************************************************************/
  87:.\Generated_Source\PSoC4/CyLib.c **** void CySysClkImoStart(void)
  88:.\Generated_Source\PSoC4/CyLib.c **** {
  26              		.loc 1 88 0
ARM GAS  C:\Users\syhaines\AppData\Local\Temp\ccXhcYqL.s 			page 3


  27              		.cfi_startproc
  89:.\Generated_Source\PSoC4/CyLib.c ****     CY_SYS_CLK_IMO_CONFIG_REG |= CY_SYS_CLK_IMO_CONFIG_ENABLE;
  28              		.loc 1 89 0
  29 0000 8021     		mov	r1, #128
  30 0002 034A     		ldr	r2, .L2
  31 0004 0906     		lsl	r1, r1, #24
  32 0006 1368     		ldr	r3, [r2]
  90:.\Generated_Source\PSoC4/CyLib.c **** }
  33              		.loc 1 90 0
  34              		@ sp needed
  89:.\Generated_Source\PSoC4/CyLib.c ****     CY_SYS_CLK_IMO_CONFIG_REG |= CY_SYS_CLK_IMO_CONFIG_ENABLE;
  35              		.loc 1 89 0
  36 0008 0B43     		orr	r3, r1
  37 000a 1360     		str	r3, [r2]
  38              		.loc 1 90 0
  39 000c 7047     		bx	lr
  40              	.L3:
  41 000e C046     		.align	2
  42              	.L2:
  43 0010 08010B40 		.word	1074462984
  44              		.cfi_endproc
  45              	.LFE0:
  46              		.size	CySysClkImoStart, .-CySysClkImoStart
  47              		.section	.text.CySysClkImoStop,"ax",%progbits
  48              		.align	1
  49              		.global	CySysClkImoStop
  50              		.code	16
  51              		.thumb_func
  52              		.type	CySysClkImoStop, %function
  53              	CySysClkImoStop:
  54              	.LFB1:
  91:.\Generated_Source\PSoC4/CyLib.c **** 
  92:.\Generated_Source\PSoC4/CyLib.c **** 
  93:.\Generated_Source\PSoC4/CyLib.c **** /*******************************************************************************
  94:.\Generated_Source\PSoC4/CyLib.c **** * Function Name: CySysClkImoStop
  95:.\Generated_Source\PSoC4/CyLib.c **** ********************************************************************************
  96:.\Generated_Source\PSoC4/CyLib.c **** *
  97:.\Generated_Source\PSoC4/CyLib.c **** * Summary:
  98:.\Generated_Source\PSoC4/CyLib.c **** *  Disables the IMO.
  99:.\Generated_Source\PSoC4/CyLib.c **** *
 100:.\Generated_Source\PSoC4/CyLib.c **** * Parameters:
 101:.\Generated_Source\PSoC4/CyLib.c **** *  None
 102:.\Generated_Source\PSoC4/CyLib.c **** *
 103:.\Generated_Source\PSoC4/CyLib.c **** * Return:
 104:.\Generated_Source\PSoC4/CyLib.c **** *  None
 105:.\Generated_Source\PSoC4/CyLib.c **** *
 106:.\Generated_Source\PSoC4/CyLib.c **** *******************************************************************************/
 107:.\Generated_Source\PSoC4/CyLib.c **** void CySysClkImoStop(void)
 108:.\Generated_Source\PSoC4/CyLib.c **** {
  55              		.loc 1 108 0
  56              		.cfi_startproc
 109:.\Generated_Source\PSoC4/CyLib.c ****     CY_SYS_CLK_IMO_CONFIG_REG &= ( uint32 ) ( ~( uint32 )CY_SYS_CLK_IMO_CONFIG_ENABLE);
  57              		.loc 1 109 0
  58 0000 024A     		ldr	r2, .L5
 110:.\Generated_Source\PSoC4/CyLib.c **** }
  59              		.loc 1 110 0
  60              		@ sp needed
ARM GAS  C:\Users\syhaines\AppData\Local\Temp\ccXhcYqL.s 			page 4


 109:.\Generated_Source\PSoC4/CyLib.c ****     CY_SYS_CLK_IMO_CONFIG_REG &= ( uint32 ) ( ~( uint32 )CY_SYS_CLK_IMO_CONFIG_ENABLE);
  61              		.loc 1 109 0
  62 0002 1368     		ldr	r3, [r2]
  63 0004 5B00     		lsl	r3, r3, #1
  64 0006 5B08     		lsr	r3, r3, #1
  65 0008 1360     		str	r3, [r2]
  66              		.loc 1 110 0
  67 000a 7047     		bx	lr
  68              	.L6:
  69              		.align	2
  70              	.L5:
  71 000c 08010B40 		.word	1074462984
  72              		.cfi_endproc
  73              	.LFE1:
  74              		.size	CySysClkImoStop, .-CySysClkImoStop
  75              		.section	.text.CySysClkIloStart,"ax",%progbits
  76              		.align	1
  77              		.global	CySysClkIloStart
  78              		.code	16
  79              		.thumb_func
  80              		.type	CySysClkIloStart, %function
  81              	CySysClkIloStart:
  82              	.LFB2:
 111:.\Generated_Source\PSoC4/CyLib.c **** 
 112:.\Generated_Source\PSoC4/CyLib.c **** 
 113:.\Generated_Source\PSoC4/CyLib.c **** /*******************************************************************************
 114:.\Generated_Source\PSoC4/CyLib.c **** * Function Name: CySysClkIloStart
 115:.\Generated_Source\PSoC4/CyLib.c **** ********************************************************************************
 116:.\Generated_Source\PSoC4/CyLib.c **** *
 117:.\Generated_Source\PSoC4/CyLib.c **** * Summary:
 118:.\Generated_Source\PSoC4/CyLib.c **** *  Enables the ILO. Refer to the device datasheet for the ILO startup time.
 119:.\Generated_Source\PSoC4/CyLib.c **** *
 120:.\Generated_Source\PSoC4/CyLib.c **** * Parameters:
 121:.\Generated_Source\PSoC4/CyLib.c **** *  None
 122:.\Generated_Source\PSoC4/CyLib.c **** *
 123:.\Generated_Source\PSoC4/CyLib.c **** * Return:
 124:.\Generated_Source\PSoC4/CyLib.c **** *  None
 125:.\Generated_Source\PSoC4/CyLib.c **** *
 126:.\Generated_Source\PSoC4/CyLib.c **** *******************************************************************************/
 127:.\Generated_Source\PSoC4/CyLib.c **** void CySysClkIloStart(void)
 128:.\Generated_Source\PSoC4/CyLib.c **** {
  83              		.loc 1 128 0
  84              		.cfi_startproc
 129:.\Generated_Source\PSoC4/CyLib.c ****     CY_SYS_CLK_ILO_CONFIG_REG |= CY_SYS_CLK_ILO_CONFIG_ENABLE;
  85              		.loc 1 129 0
  86 0000 8021     		mov	r1, #128
  87 0002 034A     		ldr	r2, .L8
  88 0004 0906     		lsl	r1, r1, #24
  89 0006 1368     		ldr	r3, [r2]
 130:.\Generated_Source\PSoC4/CyLib.c **** }
  90              		.loc 1 130 0
  91              		@ sp needed
 129:.\Generated_Source\PSoC4/CyLib.c ****     CY_SYS_CLK_ILO_CONFIG_REG |= CY_SYS_CLK_ILO_CONFIG_ENABLE;
  92              		.loc 1 129 0
  93 0008 0B43     		orr	r3, r1
  94 000a 1360     		str	r3, [r2]
  95              		.loc 1 130 0
ARM GAS  C:\Users\syhaines\AppData\Local\Temp\ccXhcYqL.s 			page 5


  96 000c 7047     		bx	lr
  97              	.L9:
  98 000e C046     		.align	2
  99              	.L8:
 100 0010 04010B40 		.word	1074462980
 101              		.cfi_endproc
 102              	.LFE2:
 103              		.size	CySysClkIloStart, .-CySysClkIloStart
 104              		.section	.text.CySysClkWriteHfclkDirect,"ax",%progbits
 105              		.align	1
 106              		.global	CySysClkWriteHfclkDirect
 107              		.code	16
 108              		.thumb_func
 109              		.type	CySysClkWriteHfclkDirect, %function
 110              	CySysClkWriteHfclkDirect:
 111              	.LFB5:
 131:.\Generated_Source\PSoC4/CyLib.c **** 
 132:.\Generated_Source\PSoC4/CyLib.c **** 
 133:.\Generated_Source\PSoC4/CyLib.c **** /*******************************************************************************
 134:.\Generated_Source\PSoC4/CyLib.c **** * Function Name: CySysClkIloStop
 135:.\Generated_Source\PSoC4/CyLib.c **** ********************************************************************************
 136:.\Generated_Source\PSoC4/CyLib.c **** *
 137:.\Generated_Source\PSoC4/CyLib.c **** * Summary:
 138:.\Generated_Source\PSoC4/CyLib.c **** *  Disables the ILO.
 139:.\Generated_Source\PSoC4/CyLib.c **** *
 140:.\Generated_Source\PSoC4/CyLib.c **** * Parameters:
 141:.\Generated_Source\PSoC4/CyLib.c **** *  None
 142:.\Generated_Source\PSoC4/CyLib.c **** *
 143:.\Generated_Source\PSoC4/CyLib.c **** * Return:
 144:.\Generated_Source\PSoC4/CyLib.c **** *  None
 145:.\Generated_Source\PSoC4/CyLib.c **** *
 146:.\Generated_Source\PSoC4/CyLib.c **** * Side Effects:
 147:.\Generated_Source\PSoC4/CyLib.c **** *  This function will have no effect if the WDT is locked (CySysWdtLock() is
 148:.\Generated_Source\PSoC4/CyLib.c **** *  called). Call CySysWdtUnlock() to unlock the WDT and be able to stop ILO.
 149:.\Generated_Source\PSoC4/CyLib.c **** *
 150:.\Generated_Source\PSoC4/CyLib.c **** *  PSoC 4100 / PSoC 4200: Note that ILO is required for WDT's operation.
 151:.\Generated_Source\PSoC4/CyLib.c **** *  The ILO is required for the WDT operation.
 152:.\Generated_Source\PSoC4/CyLib.c **** *
 153:.\Generated_Source\PSoC4/CyLib.c **** *  PSoC 4100-BL / PSoC 4200-BL:
 154:.\Generated_Source\PSoC4/CyLib.c **** *  Stopping the ILO will affect the peripheral clocked by the LFCLK, if the
 155:.\Generated_Source\PSoC4/CyLib.c **** *  LFCLK is configured to be sourced by the ILO.
 156:.\Generated_Source\PSoC4/CyLib.c **** *
 157:.\Generated_Source\PSoC4/CyLib.c **** *******************************************************************************/
 158:.\Generated_Source\PSoC4/CyLib.c **** void CySysClkIloStop(void)
 159:.\Generated_Source\PSoC4/CyLib.c **** {
 160:.\Generated_Source\PSoC4/CyLib.c ****     #if(CY_IP_SRSSV2)
 161:.\Generated_Source\PSoC4/CyLib.c ****         uint8  interruptState;
 162:.\Generated_Source\PSoC4/CyLib.c **** 
 163:.\Generated_Source\PSoC4/CyLib.c ****         /* Do nothing if WDT is locked or ILO is disabled */
 164:.\Generated_Source\PSoC4/CyLib.c ****         if (0u == CySysWdtLocked())
 165:.\Generated_Source\PSoC4/CyLib.c ****         {
 166:.\Generated_Source\PSoC4/CyLib.c ****             if (0u != CySysClkIloEnabled())
 167:.\Generated_Source\PSoC4/CyLib.c ****             {
 168:.\Generated_Source\PSoC4/CyLib.c **** 
 169:.\Generated_Source\PSoC4/CyLib.c ****             #if (CY_IP_WCO)
 170:.\Generated_Source\PSoC4/CyLib.c ****                 if (CY_SYS_CLK_LFCLK_SRC_ILO == CySysClkGetLfclkSource())
 171:.\Generated_Source\PSoC4/CyLib.c ****                 {
ARM GAS  C:\Users\syhaines\AppData\Local\Temp\ccXhcYqL.s 			page 6


 172:.\Generated_Source\PSoC4/CyLib.c ****             #endif /* (CY_IP_WCO) */
 173:.\Generated_Source\PSoC4/CyLib.c **** 
 174:.\Generated_Source\PSoC4/CyLib.c ****                 interruptState = CyEnterCriticalSection();
 175:.\Generated_Source\PSoC4/CyLib.c ****                 CySysClkLfclkPosedgeCatch();
 176:.\Generated_Source\PSoC4/CyLib.c ****                 CY_SYS_CLK_ILO_CONFIG_REG &= ( uint32 ) ( ~( uint32 )CY_SYS_CLK_ILO_CONFIG_ENABLE);
 177:.\Generated_Source\PSoC4/CyLib.c ****                 CySysClkLfclkPosedgeRestore();
 178:.\Generated_Source\PSoC4/CyLib.c ****                 CyExitCriticalSection(interruptState);
 179:.\Generated_Source\PSoC4/CyLib.c **** 
 180:.\Generated_Source\PSoC4/CyLib.c ****             #if (CY_IP_WCO)
 181:.\Generated_Source\PSoC4/CyLib.c ****                 }
 182:.\Generated_Source\PSoC4/CyLib.c ****                 else /* Safe to disable - shortened pulse does not impact peripheral */
 183:.\Generated_Source\PSoC4/CyLib.c ****                 {
 184:.\Generated_Source\PSoC4/CyLib.c ****                     CY_SYS_CLK_ILO_CONFIG_REG &= ( uint32 ) ( ~( uint32 )CY_SYS_CLK_ILO_CONFIG_ENAB
 185:.\Generated_Source\PSoC4/CyLib.c ****                 }
 186:.\Generated_Source\PSoC4/CyLib.c ****             #endif /* (CY_IP_WCO) */
 187:.\Generated_Source\PSoC4/CyLib.c **** 
 188:.\Generated_Source\PSoC4/CyLib.c ****             }
 189:.\Generated_Source\PSoC4/CyLib.c ****         }
 190:.\Generated_Source\PSoC4/CyLib.c ****     #else
 191:.\Generated_Source\PSoC4/CyLib.c ****         CY_SYS_CLK_ILO_CONFIG_REG &= ( uint32 ) ( ~( uint32 )CY_SYS_CLK_ILO_CONFIG_ENABLE);
 192:.\Generated_Source\PSoC4/CyLib.c ****     #endif /* (CY_IP_SRSSV2) */
 193:.\Generated_Source\PSoC4/CyLib.c **** }
 194:.\Generated_Source\PSoC4/CyLib.c **** 
 195:.\Generated_Source\PSoC4/CyLib.c **** #if(CY_IP_SRSSV2)
 196:.\Generated_Source\PSoC4/CyLib.c ****     /*******************************************************************************
 197:.\Generated_Source\PSoC4/CyLib.c ****     * Function Name: CySysClkIloEnabled
 198:.\Generated_Source\PSoC4/CyLib.c ****     ********************************************************************************
 199:.\Generated_Source\PSoC4/CyLib.c ****     *
 200:.\Generated_Source\PSoC4/CyLib.c ****     * Summary:
 201:.\Generated_Source\PSoC4/CyLib.c ****     *  Reports ILO enable state.
 202:.\Generated_Source\PSoC4/CyLib.c ****     *
 203:.\Generated_Source\PSoC4/CyLib.c ****     * Parameters:
 204:.\Generated_Source\PSoC4/CyLib.c ****     *  None
 205:.\Generated_Source\PSoC4/CyLib.c ****     *
 206:.\Generated_Source\PSoC4/CyLib.c ****     * Return:
 207:.\Generated_Source\PSoC4/CyLib.c ****     *  1 if ILO is enabled, and 0 if ILO is disabled.
 208:.\Generated_Source\PSoC4/CyLib.c ****     *
 209:.\Generated_Source\PSoC4/CyLib.c ****     *******************************************************************************/
 210:.\Generated_Source\PSoC4/CyLib.c ****     static uint32 CySysClkIloEnabled(void)
 211:.\Generated_Source\PSoC4/CyLib.c ****     {
 212:.\Generated_Source\PSoC4/CyLib.c ****         /* Prohibits writing to WDT registers and ILO/WCO registers when not equal 0 */
 213:.\Generated_Source\PSoC4/CyLib.c ****         return ((0u != (CY_SYS_CLK_ILO_CONFIG_REG & (uint32)(CY_SYS_CLK_ILO_CONFIG_ENABLE))) ?
 214:.\Generated_Source\PSoC4/CyLib.c ****             (uint32) 1u :
 215:.\Generated_Source\PSoC4/CyLib.c ****             (uint32) 0u);
 216:.\Generated_Source\PSoC4/CyLib.c ****     }
 217:.\Generated_Source\PSoC4/CyLib.c **** #endif /* (CY_IP_SRSSV2) */
 218:.\Generated_Source\PSoC4/CyLib.c **** 
 219:.\Generated_Source\PSoC4/CyLib.c **** 
 220:.\Generated_Source\PSoC4/CyLib.c **** /*******************************************************************************
 221:.\Generated_Source\PSoC4/CyLib.c **** * Function Name: CySysClkGetLfclkSource
 222:.\Generated_Source\PSoC4/CyLib.c **** ********************************************************************************
 223:.\Generated_Source\PSoC4/CyLib.c **** *
 224:.\Generated_Source\PSoC4/CyLib.c **** * Summary:
 225:.\Generated_Source\PSoC4/CyLib.c **** *  Gets the clock source for the LFCLK clock.
 226:.\Generated_Source\PSoC4/CyLib.c **** *  The function is applicable only for the PSoC 4100-BL and PSoC 4200-BL.
 227:.\Generated_Source\PSoC4/CyLib.c **** *
 228:.\Generated_Source\PSoC4/CyLib.c **** * Parameters:
ARM GAS  C:\Users\syhaines\AppData\Local\Temp\ccXhcYqL.s 			page 7


 229:.\Generated_Source\PSoC4/CyLib.c **** *  None
 230:.\Generated_Source\PSoC4/CyLib.c **** *
 231:.\Generated_Source\PSoC4/CyLib.c **** * Return:
 232:.\Generated_Source\PSoC4/CyLib.c **** *  The LFCLK source:
 233:.\Generated_Source\PSoC4/CyLib.c **** *   CY_SYS_CLK_LFCLK_SRC_ILO    Internal Low Frequency (32 kHz) Oscillator (ILO)
 234:.\Generated_Source\PSoC4/CyLib.c **** *   CY_SYS_CLK_LFCLK_SRC_WCO    Low Frequency Watch Crystal Oscillator (WCO)
 235:.\Generated_Source\PSoC4/CyLib.c **** *
 236:.\Generated_Source\PSoC4/CyLib.c **** *******************************************************************************/
 237:.\Generated_Source\PSoC4/CyLib.c **** #if (CY_IP_WCO)
 238:.\Generated_Source\PSoC4/CyLib.c ****     static uint32 CySysClkGetLfclkSource(void)
 239:.\Generated_Source\PSoC4/CyLib.c ****     {
 240:.\Generated_Source\PSoC4/CyLib.c ****         uint32 lfclkSource;
 241:.\Generated_Source\PSoC4/CyLib.c ****         lfclkSource = CY_SYS_WDT_CONFIG_REG & CY_SYS_CLK_LFCLK_SEL_MASK;
 242:.\Generated_Source\PSoC4/CyLib.c ****         return (lfclkSource);
 243:.\Generated_Source\PSoC4/CyLib.c ****     }
 244:.\Generated_Source\PSoC4/CyLib.c **** #endif /* (CY_IP_WCO) */
 245:.\Generated_Source\PSoC4/CyLib.c **** 
 246:.\Generated_Source\PSoC4/CyLib.c **** 
 247:.\Generated_Source\PSoC4/CyLib.c **** /*******************************************************************************
 248:.\Generated_Source\PSoC4/CyLib.c **** * Function Name: CySysClkSetLfclkSource
 249:.\Generated_Source\PSoC4/CyLib.c **** ********************************************************************************
 250:.\Generated_Source\PSoC4/CyLib.c **** *
 251:.\Generated_Source\PSoC4/CyLib.c **** * Summary:
 252:.\Generated_Source\PSoC4/CyLib.c **** *  Sets the clock source for the LFCLK clock.
 253:.\Generated_Source\PSoC4/CyLib.c **** *
 254:.\Generated_Source\PSoC4/CyLib.c **** *  The switch between LFCLK sources must be done between positive edges of
 255:.\Generated_Source\PSoC4/CyLib.c **** *  the LFCLK, because the glitch risk is around LFCLK positive edge. To ensure
 256:.\Generated_Source\PSoC4/CyLib.c **** *  that the switch can be done safely, the WDT counter value is read until it
 257:.\Generated_Source\PSoC4/CyLib.c **** *  changes.
 258:.\Generated_Source\PSoC4/CyLib.c **** *
 259:.\Generated_Source\PSoC4/CyLib.c **** *  That means that the positive edge just finished and the switch is performed.
 260:.\Generated_Source\PSoC4/CyLib.c **** *  The enabled WDT counter is used for that purpose. If no counters are enabled,
 261:.\Generated_Source\PSoC4/CyLib.c **** *  the counter 0 is enabled. And after LFCLK source is switched, the counter 0
 262:.\Generated_Source\PSoC4/CyLib.c **** *  configuration is restored back.
 263:.\Generated_Source\PSoC4/CyLib.c **** *
 264:.\Generated_Source\PSoC4/CyLib.c **** *  The function is applicable only for the PSoC 4100-BL and PSoC 4200-BL.
 265:.\Generated_Source\PSoC4/CyLib.c **** *
 266:.\Generated_Source\PSoC4/CyLib.c **** * Parameters:
 267:.\Generated_Source\PSoC4/CyLib.c **** *  source: One of the available LFCLK sources.
 268:.\Generated_Source\PSoC4/CyLib.c **** *   CY_SYS_CLK_LFCLK_SRC_ILO    Internal Low Frequency (32 kHz) Oscillator (ILO)
 269:.\Generated_Source\PSoC4/CyLib.c **** *   CY_SYS_CLK_LFCLK_SRC_WCO    Low Frequency Watch Crystal Oscillator (WCO)
 270:.\Generated_Source\PSoC4/CyLib.c **** *
 271:.\Generated_Source\PSoC4/CyLib.c **** * Return:
 272:.\Generated_Source\PSoC4/CyLib.c **** *  None
 273:.\Generated_Source\PSoC4/CyLib.c **** *
 274:.\Generated_Source\PSoC4/CyLib.c **** * Side Effects:
 275:.\Generated_Source\PSoC4/CyLib.c **** *  This function will have no effect if the WDT is locked (CySysWdtLock() is
 276:.\Generated_Source\PSoC4/CyLib.c **** *  called). Call CySysWdtUnlock() to unlock the WDT.
 277:.\Generated_Source\PSoC4/CyLib.c **** *
 278:.\Generated_Source\PSoC4/CyLib.c **** *  The current source and the new source must both be running and stable before
 279:.\Generated_Source\PSoC4/CyLib.c **** *  calling this function.
 280:.\Generated_Source\PSoC4/CyLib.c **** *
 281:.\Generated_Source\PSoC4/CyLib.c **** *  Changing the LFCLK clock source may change the LFCLK clock frequency and
 282:.\Generated_Source\PSoC4/CyLib.c **** *  affect the functionality that uses this clock. For example, watchdog timer
 283:.\Generated_Source\PSoC4/CyLib.c **** *  (WDT) is clocked by LFCLK.
 284:.\Generated_Source\PSoC4/CyLib.c **** *
 285:.\Generated_Source\PSoC4/CyLib.c **** *******************************************************************************/
ARM GAS  C:\Users\syhaines\AppData\Local\Temp\ccXhcYqL.s 			page 8


 286:.\Generated_Source\PSoC4/CyLib.c **** #if (CY_IP_WCO)
 287:.\Generated_Source\PSoC4/CyLib.c ****     void CySysClkSetLfclkSource(uint32 source)
 288:.\Generated_Source\PSoC4/CyLib.c ****     {
 289:.\Generated_Source\PSoC4/CyLib.c ****         uint8  interruptState;
 290:.\Generated_Source\PSoC4/CyLib.c **** 
 291:.\Generated_Source\PSoC4/CyLib.c ****         if (CySysClkGetLfclkSource() != source)
 292:.\Generated_Source\PSoC4/CyLib.c ****         {
 293:.\Generated_Source\PSoC4/CyLib.c ****             interruptState = CyEnterCriticalSection();
 294:.\Generated_Source\PSoC4/CyLib.c **** 
 295:.\Generated_Source\PSoC4/CyLib.c ****             CySysClkLfclkPosedgeCatch();
 296:.\Generated_Source\PSoC4/CyLib.c **** 
 297:.\Generated_Source\PSoC4/CyLib.c ****             CY_SYS_WDT_CONFIG_REG = (CY_SYS_WDT_CONFIG_REG & (uint32)(~CY_SYS_CLK_LFCLK_SEL_MASK)) 
 298:.\Generated_Source\PSoC4/CyLib.c ****                                     (source & CY_SYS_CLK_LFCLK_SEL_MASK);
 299:.\Generated_Source\PSoC4/CyLib.c **** 
 300:.\Generated_Source\PSoC4/CyLib.c ****             CySysClkLfclkPosedgeRestore();
 301:.\Generated_Source\PSoC4/CyLib.c **** 
 302:.\Generated_Source\PSoC4/CyLib.c ****             CyExitCriticalSection(interruptState);
 303:.\Generated_Source\PSoC4/CyLib.c ****         }
 304:.\Generated_Source\PSoC4/CyLib.c ****     }
 305:.\Generated_Source\PSoC4/CyLib.c **** #endif /* (CY_IP_WCO) */
 306:.\Generated_Source\PSoC4/CyLib.c **** 
 307:.\Generated_Source\PSoC4/CyLib.c **** 
 308:.\Generated_Source\PSoC4/CyLib.c **** /*******************************************************************************
 309:.\Generated_Source\PSoC4/CyLib.c **** * Function Name: CySysClkWriteHfclkDirect
 310:.\Generated_Source\PSoC4/CyLib.c **** ********************************************************************************
 311:.\Generated_Source\PSoC4/CyLib.c **** *
 312:.\Generated_Source\PSoC4/CyLib.c **** * Summary:
 313:.\Generated_Source\PSoC4/CyLib.c **** *  Selects the direct source for the HFCLK.
 314:.\Generated_Source\PSoC4/CyLib.c **** *
 315:.\Generated_Source\PSoC4/CyLib.c **** * Parameters:
 316:.\Generated_Source\PSoC4/CyLib.c **** *  clkSelect: One of the available HFCLK direct sources:
 317:.\Generated_Source\PSoC4/CyLib.c **** *   Define                    Source
 318:.\Generated_Source\PSoC4/CyLib.c **** *    CY_SYS_CLK_HFCLK_IMO      IMO
 319:.\Generated_Source\PSoC4/CyLib.c **** *    CY_SYS_CLK_HFCLK_EXTCLK   External clock pin
 320:.\Generated_Source\PSoC4/CyLib.c **** *    CY_SYS_CLK_HFCLK_ECO      External crystal oscillator
 321:.\Generated_Source\PSoC4/CyLib.c **** *                                           (applicable only for PSoC 4200-BL)
 322:.\Generated_Source\PSoC4/CyLib.c **** *
 323:.\Generated_Source\PSoC4/CyLib.c **** * Return:
 324:.\Generated_Source\PSoC4/CyLib.c **** *  None
 325:.\Generated_Source\PSoC4/CyLib.c **** *
 326:.\Generated_Source\PSoC4/CyLib.c **** * Side Effects:
 327:.\Generated_Source\PSoC4/CyLib.c **** *  The new source must be running and stable before calling this function.
 328:.\Generated_Source\PSoC4/CyLib.c **** *
 329:.\Generated_Source\PSoC4/CyLib.c **** *  PSoC 4000:
 330:.\Generated_Source\PSoC4/CyLib.c **** *  The SYSCLK has a maximum speed of 16 MHz, so HFCLK and SYSCLK dividers should
 331:.\Generated_Source\PSoC4/CyLib.c **** *  be selected in a way to not to exceed 16 MHz for the System clock.
 332:.\Generated_Source\PSoC4/CyLib.c **** *
 333:.\Generated_Source\PSoC4/CyLib.c **** *  If the SYSCLK clock frequency increases during device operation, call
 334:.\Generated_Source\PSoC4/CyLib.c **** *  CySysFlashSetWaitCycles() with the appropriate parameter to adjust the number
 335:.\Generated_Source\PSoC4/CyLib.c **** *  of clock cycles the cache will wait before sampling data comes back from Flash.
 336:.\Generated_Source\PSoC4/CyLib.c **** *  If the SYSCLK clock frequency decreases, you can call
 337:.\Generated_Source\PSoC4/CyLib.c **** *  CySysFlashSetWaitCycles() to improve the CPU performance. See
 338:.\Generated_Source\PSoC4/CyLib.c **** *  CySysFlashSetWaitCycles() description for more information.
 339:.\Generated_Source\PSoC4/CyLib.c **** *
 340:.\Generated_Source\PSoC4/CyLib.c **** *******************************************************************************/
 341:.\Generated_Source\PSoC4/CyLib.c **** void CySysClkWriteHfclkDirect(uint32 clkSelect)
 342:.\Generated_Source\PSoC4/CyLib.c **** {
ARM GAS  C:\Users\syhaines\AppData\Local\Temp\ccXhcYqL.s 			page 9


 112              		.loc 1 342 0
 113              		.cfi_startproc
 114              	.LVL0:
 115 0000 10B5     		push	{r4, lr}
 116              		.cfi_def_cfa_offset 8
 117              		.cfi_offset 4, -8
 118              		.cfi_offset 14, -4
 119              		.loc 1 342 0
 120 0002 041C     		mov	r4, r0
 343:.\Generated_Source\PSoC4/CyLib.c ****     uint8  interruptState;
 344:.\Generated_Source\PSoC4/CyLib.c **** 
 345:.\Generated_Source\PSoC4/CyLib.c ****     interruptState = CyEnterCriticalSection();
 121              		.loc 1 345 0
 122 0004 FFF7FEFF 		bl	CyEnterCriticalSection
 123              	.LVL1:
 346:.\Generated_Source\PSoC4/CyLib.c **** 
 347:.\Generated_Source\PSoC4/CyLib.c ****     CY_SYS_CLK_SELECT_REG = ((CY_SYS_CLK_SELECT_REG & (( uint32 ) ~(( uint32 )CY_SYS_CLK_SELECT_DIR
 348:.\Generated_Source\PSoC4/CyLib.c ****                         (( uint32 ) (clkSelect & ( uint32 )CY_SYS_CLK_SELECT_DIRECT_SEL_PARAM_MASK)
 124              		.loc 1 348 0
 125 0008 0123     		mov	r3, #1
 126 000a 2340     		and	r3, r4
 347:.\Generated_Source\PSoC4/CyLib.c ****                         (( uint32 ) (clkSelect & ( uint32 )CY_SYS_CLK_SELECT_DIRECT_SEL_PARAM_MASK)
 127              		.loc 1 347 0
 128 000c 0724     		mov	r4, #7
 129              	.LVL2:
 130 000e 0449     		ldr	r1, .L11
 349:.\Generated_Source\PSoC4/CyLib.c **** 
 350:.\Generated_Source\PSoC4/CyLib.c ****     CyExitCriticalSection(interruptState);
 351:.\Generated_Source\PSoC4/CyLib.c **** }
 131              		.loc 1 351 0
 132              		@ sp needed
 347:.\Generated_Source\PSoC4/CyLib.c ****                         (( uint32 ) (clkSelect & ( uint32 )CY_SYS_CLK_SELECT_DIRECT_SEL_PARAM_MASK)
 133              		.loc 1 347 0
 134 0010 0A68     		ldr	r2, [r1]
 135 0012 A243     		bic	r2, r4
 136 0014 1343     		orr	r3, r2
 137 0016 0B60     		str	r3, [r1]
 350:.\Generated_Source\PSoC4/CyLib.c **** }
 138              		.loc 1 350 0
 139 0018 FFF7FEFF 		bl	CyExitCriticalSection
 140              	.LVL3:
 141              		.loc 1 351 0
 142 001c 10BD     		pop	{r4, pc}
 143              	.L12:
 144 001e C046     		.align	2
 145              	.L11:
 146 0020 00010B40 		.word	1074462976
 147              		.cfi_endproc
 148              	.LFE5:
 149              		.size	CySysClkWriteHfclkDirect, .-CySysClkWriteHfclkDirect
 150              		.section	.text.CySysClkWriteSysclkDiv,"ax",%progbits
 151              		.align	1
 152              		.global	CySysClkWriteSysclkDiv
 153              		.code	16
 154              		.thumb_func
 155              		.type	CySysClkWriteSysclkDiv, %function
 156              	CySysClkWriteSysclkDiv:
ARM GAS  C:\Users\syhaines\AppData\Local\Temp\ccXhcYqL.s 			page 10


 157              	.LFB6:
 352:.\Generated_Source\PSoC4/CyLib.c **** 
 353:.\Generated_Source\PSoC4/CyLib.c **** 
 354:.\Generated_Source\PSoC4/CyLib.c **** /*******************************************************************************
 355:.\Generated_Source\PSoC4/CyLib.c **** * Function Name: CySysClkWriteSysclkDiv
 356:.\Generated_Source\PSoC4/CyLib.c **** ********************************************************************************
 357:.\Generated_Source\PSoC4/CyLib.c **** *
 358:.\Generated_Source\PSoC4/CyLib.c **** * Summary:
 359:.\Generated_Source\PSoC4/CyLib.c **** *  Selects the prescaler divide amount for SYSCLK from HFCLK.
 360:.\Generated_Source\PSoC4/CyLib.c **** *
 361:.\Generated_Source\PSoC4/CyLib.c **** * Parameters:
 362:.\Generated_Source\PSoC4/CyLib.c **** *  divider: Power of 2 prescaler selection
 363:.\Generated_Source\PSoC4/CyLib.c **** *
 364:.\Generated_Source\PSoC4/CyLib.c **** *   Define                        Description
 365:.\Generated_Source\PSoC4/CyLib.c **** *   CY_SYS_CLK_SYSCLK_DIV1        SYSCLK = HFCLK / 1
 366:.\Generated_Source\PSoC4/CyLib.c **** *   CY_SYS_CLK_SYSCLK_DIV2        SYSCLK = HFCLK / 2
 367:.\Generated_Source\PSoC4/CyLib.c **** *   CY_SYS_CLK_SYSCLK_DIV4        SYSCLK = HFCLK / 4
 368:.\Generated_Source\PSoC4/CyLib.c **** *   CY_SYS_CLK_SYSCLK_DIV8        SYSCLK = HFCLK / 8
 369:.\Generated_Source\PSoC4/CyLib.c **** *   CY_SYS_CLK_SYSCLK_DIV16       SYSCLK = HFCLK / 16  (N/A for 4000 Family)
 370:.\Generated_Source\PSoC4/CyLib.c **** *   CY_SYS_CLK_SYSCLK_DIV32       SYSCLK = HFCLK / 32  (N/A for 4000 Family)
 371:.\Generated_Source\PSoC4/CyLib.c **** *   CY_SYS_CLK_SYSCLK_DIV64       SYSCLK = HFCLK / 64  (N/A for 4000 Family)
 372:.\Generated_Source\PSoC4/CyLib.c **** *   CY_SYS_CLK_SYSCLK_DIV128      SYSCLK = HFCLK / 128 (N/A for 4000 Family)
 373:.\Generated_Source\PSoC4/CyLib.c **** *
 374:.\Generated_Source\PSoC4/CyLib.c **** * Return:
 375:.\Generated_Source\PSoC4/CyLib.c **** *  None
 376:.\Generated_Source\PSoC4/CyLib.c **** *
 377:.\Generated_Source\PSoC4/CyLib.c **** * Side Effects:
 378:.\Generated_Source\PSoC4/CyLib.c **** *  4000 Family:
 379:.\Generated_Source\PSoC4/CyLib.c **** *  The SYS_CLK has the speed of 16 MHz, so dividers HF_CLK and SYS_CLK
 380:.\Generated_Source\PSoC4/CyLib.c **** *  dividers should be selected in a way, not to exceed 16 MHz for SYS_CLK.
 381:.\Generated_Source\PSoC4/CyLib.c **** *
 382:.\Generated_Source\PSoC4/CyLib.c **** *  If the SYSCLK clock frequency increases during the device operation, call
 383:.\Generated_Source\PSoC4/CyLib.c **** *  CySysFlashSetWaitCycles() with the appropriate parameter to adjust the number
 384:.\Generated_Source\PSoC4/CyLib.c **** *  of clock cycles the cache will wait before sampling data comes back from Flash.
 385:.\Generated_Source\PSoC4/CyLib.c **** *  If the SYSCLK clock frequency decreases, you can call
 386:.\Generated_Source\PSoC4/CyLib.c **** *  CySysFlashSetWaitCycles() to improve the CPU performance. See
 387:.\Generated_Source\PSoC4/CyLib.c **** *  CySysFlashSetWaitCycles() description for more information.
 388:.\Generated_Source\PSoC4/CyLib.c **** *
 389:.\Generated_Source\PSoC4/CyLib.c **** *******************************************************************************/
 390:.\Generated_Source\PSoC4/CyLib.c **** void CySysClkWriteSysclkDiv(uint32 divider)
 391:.\Generated_Source\PSoC4/CyLib.c **** {
 158              		.loc 1 391 0
 159              		.cfi_startproc
 160              	.LVL4:
 161 0000 38B5     		push	{r3, r4, r5, lr}
 162              		.cfi_def_cfa_offset 16
 163              		.cfi_offset 3, -16
 164              		.cfi_offset 4, -12
 165              		.cfi_offset 5, -8
 166              		.cfi_offset 14, -4
 167              		.loc 1 391 0
 168 0002 051C     		mov	r5, r0
 392:.\Generated_Source\PSoC4/CyLib.c ****     uint8  interruptState;
 393:.\Generated_Source\PSoC4/CyLib.c **** 
 394:.\Generated_Source\PSoC4/CyLib.c ****     interruptState = CyEnterCriticalSection();
 169              		.loc 1 394 0
 170 0004 FFF7FEFF 		bl	CyEnterCriticalSection
ARM GAS  C:\Users\syhaines\AppData\Local\Temp\ccXhcYqL.s 			page 11


 171              	.LVL5:
 395:.\Generated_Source\PSoC4/CyLib.c **** 
 396:.\Generated_Source\PSoC4/CyLib.c ****     CY_SYS_CLK_SELECT_REG = ((uint32)(((uint32)divider & CY_SYS_CLK_SELECT_SYSCLK_DIV_MASK) <<
 172              		.loc 1 396 0
 173 0008 0721     		mov	r1, #7
 397:.\Generated_Source\PSoC4/CyLib.c ****                                     CY_SYS_CLK_SELECT_SYSCLK_DIV_SHIFT)) |
 398:.\Generated_Source\PSoC4/CyLib.c ****                             (CY_SYS_CLK_SELECT_REG & ((uint32)(~(uint32)(CY_SYS_CLK_SELECT_SYSCLK_D
 174              		.loc 1 398 0
 175 000a 054C     		ldr	r4, .L14
 176 000c 054A     		ldr	r2, .L14+4
 177 000e 2368     		ldr	r3, [r4]
 396:.\Generated_Source\PSoC4/CyLib.c ****                                     CY_SYS_CLK_SELECT_SYSCLK_DIV_SHIFT)) |
 178              		.loc 1 396 0
 179 0010 2940     		and	r1, r5
 180 0012 C904     		lsl	r1, r1, #19
 181              		.loc 1 398 0
 182 0014 1340     		and	r3, r2
 397:.\Generated_Source\PSoC4/CyLib.c ****                                     CY_SYS_CLK_SELECT_SYSCLK_DIV_SHIFT)) |
 183              		.loc 1 397 0
 184 0016 0B43     		orr	r3, r1
 396:.\Generated_Source\PSoC4/CyLib.c ****                                     CY_SYS_CLK_SELECT_SYSCLK_DIV_SHIFT)) |
 185              		.loc 1 396 0
 186 0018 2360     		str	r3, [r4]
 399:.\Generated_Source\PSoC4/CyLib.c ****                                     CY_SYS_CLK_SELECT_SYSCLK_DIV_SHIFT))));
 400:.\Generated_Source\PSoC4/CyLib.c **** 
 401:.\Generated_Source\PSoC4/CyLib.c ****     CyExitCriticalSection(interruptState);
 187              		.loc 1 401 0
 188 001a FFF7FEFF 		bl	CyExitCriticalSection
 189              	.LVL6:
 402:.\Generated_Source\PSoC4/CyLib.c **** }
 190              		.loc 1 402 0
 191              		@ sp needed
 192              	.LVL7:
 193 001e 38BD     		pop	{r3, r4, r5, pc}
 194              	.L15:
 195              		.align	2
 196              	.L14:
 197 0020 00010B40 		.word	1074462976
 198 0024 FFFFC7FF 		.word	-3670017
 199              		.cfi_endproc
 200              	.LFE6:
 201              		.size	CySysClkWriteSysclkDiv, .-CySysClkWriteSysclkDiv
 202              		.section	.text.CySysWdtLock,"ax",%progbits
 203              		.align	1
 204              		.global	CySysWdtLock
 205              		.code	16
 206              		.thumb_func
 207              		.type	CySysWdtLock, %function
 208              	CySysWdtLock:
 209              	.LFB8:
 403:.\Generated_Source\PSoC4/CyLib.c **** 
 404:.\Generated_Source\PSoC4/CyLib.c **** 
 405:.\Generated_Source\PSoC4/CyLib.c **** #if(CY_IP_SRSSV2)
 406:.\Generated_Source\PSoC4/CyLib.c **** 
 407:.\Generated_Source\PSoC4/CyLib.c ****     /*******************************************************************************
 408:.\Generated_Source\PSoC4/CyLib.c ****     * Function Name: CySysClkWriteImoFreq
 409:.\Generated_Source\PSoC4/CyLib.c ****     ********************************************************************************
ARM GAS  C:\Users\syhaines\AppData\Local\Temp\ccXhcYqL.s 			page 12


 410:.\Generated_Source\PSoC4/CyLib.c ****     *
 411:.\Generated_Source\PSoC4/CyLib.c ****     * Summary:
 412:.\Generated_Source\PSoC4/CyLib.c ****     *  Sets the frequency of the IMO.
 413:.\Generated_Source\PSoC4/CyLib.c ****     *
 414:.\Generated_Source\PSoC4/CyLib.c ****     * Parameters:
 415:.\Generated_Source\PSoC4/CyLib.c ****     *  freq: Valid range [3-48].  Frequency for operation of the IMO.
 416:.\Generated_Source\PSoC4/CyLib.c ****     *  Note: Invalid frequency will be ignored.
 417:.\Generated_Source\PSoC4/CyLib.c ****     *
 418:.\Generated_Source\PSoC4/CyLib.c ****     * Return:
 419:.\Generated_Source\PSoC4/CyLib.c ****     *  None
 420:.\Generated_Source\PSoC4/CyLib.c ****     *
 421:.\Generated_Source\PSoC4/CyLib.c ****     * Side Effects:
 422:.\Generated_Source\PSoC4/CyLib.c ****     *  If the SYSCLK clock frequency increases during the device operation, call
 423:.\Generated_Source\PSoC4/CyLib.c ****     *  CySysFlashSetWaitCycles() with the appropriate parameter to adjust the number
 424:.\Generated_Source\PSoC4/CyLib.c ****     *  of clock cycles the cache will wait before sampling data comes back from Flash.
 425:.\Generated_Source\PSoC4/CyLib.c ****     *  If the SYSCLK clock frequency decreases, you can call
 426:.\Generated_Source\PSoC4/CyLib.c ****     *  CySysFlashSetWaitCycles() to improve the CPU performance.
 427:.\Generated_Source\PSoC4/CyLib.c ****     *  See CySysFlashSetWaitCycles() description for more information.
 428:.\Generated_Source\PSoC4/CyLib.c ****     *
 429:.\Generated_Source\PSoC4/CyLib.c ****     *******************************************************************************/
 430:.\Generated_Source\PSoC4/CyLib.c ****     void CySysClkWriteImoFreq(uint32 freq)
 431:.\Generated_Source\PSoC4/CyLib.c ****     {
 432:.\Generated_Source\PSoC4/CyLib.c ****         uint8  bgTrim4;
 433:.\Generated_Source\PSoC4/CyLib.c ****         uint8  bgTrim5;
 434:.\Generated_Source\PSoC4/CyLib.c ****         uint8  interruptState;
 435:.\Generated_Source\PSoC4/CyLib.c ****         uint8  newImoTrim2Value;
 436:.\Generated_Source\PSoC4/CyLib.c ****         uint8  currentImoTrim2Value;
 437:.\Generated_Source\PSoC4/CyLib.c **** 
 438:.\Generated_Source\PSoC4/CyLib.c **** 
 439:.\Generated_Source\PSoC4/CyLib.c ****         if ((freq >= CY_SYS_CLK_IMO_MIN_FREQ_MHZ) && (freq <= CY_SYS_CLK_IMO_MAX_FREQ_MHZ))
 440:.\Generated_Source\PSoC4/CyLib.c ****         {
 441:.\Generated_Source\PSoC4/CyLib.c ****             if(freq <= CY_SFLASH_IMO_MAXF0_REG)
 442:.\Generated_Source\PSoC4/CyLib.c ****             {
 443:.\Generated_Source\PSoC4/CyLib.c ****                 bgTrim4 = CY_SFLASH_IMO_ABS0_REG;
 444:.\Generated_Source\PSoC4/CyLib.c ****                 bgTrim5 = CY_SFLASH_IMO_TMPCO0_REG;
 445:.\Generated_Source\PSoC4/CyLib.c ****             }
 446:.\Generated_Source\PSoC4/CyLib.c ****             else if(freq <= CY_SFLASH_IMO_MAXF1_REG)
 447:.\Generated_Source\PSoC4/CyLib.c ****             {
 448:.\Generated_Source\PSoC4/CyLib.c ****                 bgTrim4 = CY_SFLASH_IMO_ABS1_REG;
 449:.\Generated_Source\PSoC4/CyLib.c ****                 bgTrim5 = CY_SFLASH_IMO_TMPCO1_REG;
 450:.\Generated_Source\PSoC4/CyLib.c ****             }
 451:.\Generated_Source\PSoC4/CyLib.c ****             else if(freq <= CY_SFLASH_IMO_MAXF2_REG)
 452:.\Generated_Source\PSoC4/CyLib.c ****             {
 453:.\Generated_Source\PSoC4/CyLib.c ****                 bgTrim4 = CY_SFLASH_IMO_ABS2_REG;
 454:.\Generated_Source\PSoC4/CyLib.c ****                 bgTrim5 = CY_SFLASH_IMO_TMPCO2_REG;
 455:.\Generated_Source\PSoC4/CyLib.c ****             }
 456:.\Generated_Source\PSoC4/CyLib.c ****             else if(freq <= CY_SFLASH_IMO_MAXF3_REG)
 457:.\Generated_Source\PSoC4/CyLib.c ****             {
 458:.\Generated_Source\PSoC4/CyLib.c ****                 bgTrim4 = CY_SFLASH_IMO_ABS3_REG;
 459:.\Generated_Source\PSoC4/CyLib.c ****                 bgTrim5 = CY_SFLASH_IMO_TMPCO3_REG;
 460:.\Generated_Source\PSoC4/CyLib.c ****             }
 461:.\Generated_Source\PSoC4/CyLib.c ****             else
 462:.\Generated_Source\PSoC4/CyLib.c ****             {
 463:.\Generated_Source\PSoC4/CyLib.c ****                 bgTrim4 = CY_SFLASH_IMO_ABS4_REG;
 464:.\Generated_Source\PSoC4/CyLib.c ****                 bgTrim5 = CY_SFLASH_IMO_TMPCO4_REG;
 465:.\Generated_Source\PSoC4/CyLib.c ****             }
 466:.\Generated_Source\PSoC4/CyLib.c **** 
ARM GAS  C:\Users\syhaines\AppData\Local\Temp\ccXhcYqL.s 			page 13


 467:.\Generated_Source\PSoC4/CyLib.c ****             /* Get IMO_TRIM2 value for the new frequency */
 468:.\Generated_Source\PSoC4/CyLib.c ****             newImoTrim2Value = cyImoFreqMhz2Reg[freq - CY_SYS_CLK_IMO_FREQ_TABLE_OFFSET];
 469:.\Generated_Source\PSoC4/CyLib.c **** 
 470:.\Generated_Source\PSoC4/CyLib.c **** 
 471:.\Generated_Source\PSoC4/CyLib.c ****             interruptState = CyEnterCriticalSection();
 472:.\Generated_Source\PSoC4/CyLib.c **** 
 473:.\Generated_Source\PSoC4/CyLib.c ****             /***************************************************************************
 474:.\Generated_Source\PSoC4/CyLib.c ****             * The IMO can have a different trim per frequency. To avoid possible corner
 475:.\Generated_Source\PSoC4/CyLib.c ****             * cases where a trim change can exceed the maximum frequency, the trim must
 476:.\Generated_Source\PSoC4/CyLib.c ****             * be applied at a frequency that is low enough.
 477:.\Generated_Source\PSoC4/CyLib.c ****             *
 478:.\Generated_Source\PSoC4/CyLib.c ****             * Comparing IMO_TRIM2 values for the current and new frequencies, since
 479:.\Generated_Source\PSoC4/CyLib.c ****             * IMO_TRIM2 value as a function of IMO frequency is a strictly increasing
 480:.\Generated_Source\PSoC4/CyLib.c ****             * function and is time-invariant.
 481:.\Generated_Source\PSoC4/CyLib.c ****             ***************************************************************************/
 482:.\Generated_Source\PSoC4/CyLib.c ****             if ((newImoTrim2Value >= CY_SYS_CLK_IMO_BOUNDARY_FREQ_TRIM2) && (freq >= CY_SYS_CLK_IMO
 483:.\Generated_Source\PSoC4/CyLib.c ****             {
 484:.\Generated_Source\PSoC4/CyLib.c ****                 /* Set boundary IMO frequency: safe for IMO above 48 MHZ trimming */
 485:.\Generated_Source\PSoC4/CyLib.c ****                 CY_SYS_CLK_IMO_TRIM2_REG = (uint32) cyImoFreqMhz2Reg[CY_SYS_CLK_IMO_TEMP_FREQ_MHZ -
 486:.\Generated_Source\PSoC4/CyLib.c ****                                                                      CY_SYS_CLK_IMO_FREQ_TABLE_OFFS
 487:.\Generated_Source\PSoC4/CyLib.c **** 
 488:.\Generated_Source\PSoC4/CyLib.c ****                 CyDelayCycles(CY_SYS_CLK_IMO_FREQ_TIMEOUT_CYCLES);
 489:.\Generated_Source\PSoC4/CyLib.c **** 
 490:.\Generated_Source\PSoC4/CyLib.c ****                 currentImoTrim2Value = CY_SYS_CLK_IMO_TEMP_FREQ_TRIM2;
 491:.\Generated_Source\PSoC4/CyLib.c ****             }
 492:.\Generated_Source\PSoC4/CyLib.c ****             else
 493:.\Generated_Source\PSoC4/CyLib.c ****             {
 494:.\Generated_Source\PSoC4/CyLib.c ****                 currentImoTrim2Value = (uint8) (CY_SYS_CLK_IMO_TRIM2_REG & CY_SYS_CLK_IMO_FREQ_BITS
 495:.\Generated_Source\PSoC4/CyLib.c ****             }
 496:.\Generated_Source\PSoC4/CyLib.c **** 
 497:.\Generated_Source\PSoC4/CyLib.c **** 
 498:.\Generated_Source\PSoC4/CyLib.c ****             /***************************************************************************
 499:.\Generated_Source\PSoC4/CyLib.c ****             * A trim change needs to be allowed to settle (within 5us) before the Freq
 500:.\Generated_Source\PSoC4/CyLib.c ****             * can be changed to a new frequency.
 501:.\Generated_Source\PSoC4/CyLib.c ****             *
 502:.\Generated_Source\PSoC4/CyLib.c ****             * Comparing IMO_TRIM2 values for the current and new frequencies, since
 503:.\Generated_Source\PSoC4/CyLib.c ****             * IMO_TRIM2 value as a function of IMO frequency is a strictly increasing
 504:.\Generated_Source\PSoC4/CyLib.c ****             * function and is time-invariant.
 505:.\Generated_Source\PSoC4/CyLib.c ****             ***************************************************************************/
 506:.\Generated_Source\PSoC4/CyLib.c ****             if (newImoTrim2Value < currentImoTrim2Value)
 507:.\Generated_Source\PSoC4/CyLib.c ****             {
 508:.\Generated_Source\PSoC4/CyLib.c ****                 /* Set new IMO frequency */
 509:.\Generated_Source\PSoC4/CyLib.c ****                 CY_SYS_CLK_IMO_TRIM2_REG = cyImoFreqMhz2Reg[freq - CY_SYS_CLK_IMO_FREQ_TABLE_OFFSET
 510:.\Generated_Source\PSoC4/CyLib.c ****                 CyDelayCycles(CY_SYS_CLK_IMO_FREQ_TIMEOUT_CYCLES);
 511:.\Generated_Source\PSoC4/CyLib.c ****             }
 512:.\Generated_Source\PSoC4/CyLib.c **** 
 513:.\Generated_Source\PSoC4/CyLib.c ****             /* Set trims for the new IMO frequency */
 514:.\Generated_Source\PSoC4/CyLib.c ****             CY_SYS_CLK_IMO_TRIM1_REG = (uint32) CY_SFLASH_IMO_TRIM_REG(freq - CY_SYS_CLK_IMO_FREQ_T
 515:.\Generated_Source\PSoC4/CyLib.c ****             CY_PWR_BG_TRIM4_REG  = bgTrim4;
 516:.\Generated_Source\PSoC4/CyLib.c ****             CY_PWR_BG_TRIM5_REG  = bgTrim5;
 517:.\Generated_Source\PSoC4/CyLib.c ****             CyDelayUs(CY_SYS_CLK_IMO_TRIM_TIMEOUT_US);
 518:.\Generated_Source\PSoC4/CyLib.c **** 
 519:.\Generated_Source\PSoC4/CyLib.c ****             if (newImoTrim2Value > currentImoTrim2Value)
 520:.\Generated_Source\PSoC4/CyLib.c ****             {
 521:.\Generated_Source\PSoC4/CyLib.c ****                 /* Set new IMO frequency */
 522:.\Generated_Source\PSoC4/CyLib.c ****                 CY_SYS_CLK_IMO_TRIM2_REG = cyImoFreqMhz2Reg[freq - CY_SYS_CLK_IMO_FREQ_TABLE_OFFSET
 523:.\Generated_Source\PSoC4/CyLib.c ****                 CyDelayCycles(CY_SYS_CLK_IMO_FREQ_TIMEOUT_CYCLES);
ARM GAS  C:\Users\syhaines\AppData\Local\Temp\ccXhcYqL.s 			page 14


 524:.\Generated_Source\PSoC4/CyLib.c ****             }
 525:.\Generated_Source\PSoC4/CyLib.c **** 
 526:.\Generated_Source\PSoC4/CyLib.c ****             CyExitCriticalSection(interruptState);
 527:.\Generated_Source\PSoC4/CyLib.c ****         }
 528:.\Generated_Source\PSoC4/CyLib.c ****         else
 529:.\Generated_Source\PSoC4/CyLib.c ****         {
 530:.\Generated_Source\PSoC4/CyLib.c ****             /* Halt CPU in debug mode if new frequency is invalid */
 531:.\Generated_Source\PSoC4/CyLib.c ****             CYASSERT(0u != 0u);
 532:.\Generated_Source\PSoC4/CyLib.c ****         }
 533:.\Generated_Source\PSoC4/CyLib.c ****     }
 534:.\Generated_Source\PSoC4/CyLib.c **** 
 535:.\Generated_Source\PSoC4/CyLib.c **** 
 536:.\Generated_Source\PSoC4/CyLib.c **** #else
 537:.\Generated_Source\PSoC4/CyLib.c **** 
 538:.\Generated_Source\PSoC4/CyLib.c **** 
 539:.\Generated_Source\PSoC4/CyLib.c ****     /*******************************************************************************
 540:.\Generated_Source\PSoC4/CyLib.c ****     * Function Name: CySysClkWriteHfclkDiv
 541:.\Generated_Source\PSoC4/CyLib.c ****     ********************************************************************************
 542:.\Generated_Source\PSoC4/CyLib.c ****     *
 543:.\Generated_Source\PSoC4/CyLib.c ****     * Summary:
 544:.\Generated_Source\PSoC4/CyLib.c ****     *  Selects HF clk predivider value.
 545:.\Generated_Source\PSoC4/CyLib.c ****     *
 546:.\Generated_Source\PSoC4/CyLib.c ****     * Parameters:
 547:.\Generated_Source\PSoC4/CyLib.c ****     *  divider: HF clock divider value
 548:.\Generated_Source\PSoC4/CyLib.c ****     *   Define                        Description
 549:.\Generated_Source\PSoC4/CyLib.c ****     *   CY_SYS_CLK_HFCLK_DIV_NODIV    Transparent mode (w/o dividing)
 550:.\Generated_Source\PSoC4/CyLib.c ****     *   CY_SYS_CLK_HFCLK_DIV_2        Divide selected clock source by 2
 551:.\Generated_Source\PSoC4/CyLib.c ****     *   CY_SYS_CLK_HFCLK_DIV_4        Divide selected clock source by 4
 552:.\Generated_Source\PSoC4/CyLib.c ****     *   CY_SYS_CLK_HFCLK_DIV_8        Divide selected clock source by 8
 553:.\Generated_Source\PSoC4/CyLib.c ****     *
 554:.\Generated_Source\PSoC4/CyLib.c ****     * Return:
 555:.\Generated_Source\PSoC4/CyLib.c ****     *  None
 556:.\Generated_Source\PSoC4/CyLib.c ****     *
 557:.\Generated_Source\PSoC4/CyLib.c ****     * Side Effects:
 558:.\Generated_Source\PSoC4/CyLib.c ****     *  If the SYSCLK clock frequency increases during the device operation, call
 559:.\Generated_Source\PSoC4/CyLib.c ****     *  CySysFlashSetWaitCycles() with the appropriate parameter to adjust the number
 560:.\Generated_Source\PSoC4/CyLib.c ****     *  of clock cycles the cache will wait before sampling data comes back from Flash.
 561:.\Generated_Source\PSoC4/CyLib.c ****     *  If the SYSCLK clock frequency decreases, you can call
 562:.\Generated_Source\PSoC4/CyLib.c ****     *  CySysFlashSetWaitCycles() to improve the CPU performance. See
 563:.\Generated_Source\PSoC4/CyLib.c ****     *  CySysFlashSetWaitCycles() description for more information.
 564:.\Generated_Source\PSoC4/CyLib.c ****     *
 565:.\Generated_Source\PSoC4/CyLib.c **** 
 566:.\Generated_Source\PSoC4/CyLib.c ****     *
 567:.\Generated_Source\PSoC4/CyLib.c ****     *******************************************************************************/
 568:.\Generated_Source\PSoC4/CyLib.c ****     void CySysClkWriteHfclkDiv(uint32 divider)
 569:.\Generated_Source\PSoC4/CyLib.c ****     {
 570:.\Generated_Source\PSoC4/CyLib.c ****         uint8  interruptState;
 571:.\Generated_Source\PSoC4/CyLib.c **** 
 572:.\Generated_Source\PSoC4/CyLib.c ****         interruptState = CyEnterCriticalSection();
 573:.\Generated_Source\PSoC4/CyLib.c **** 
 574:.\Generated_Source\PSoC4/CyLib.c ****         CY_SYS_CLK_SELECT_REG = ((CY_SYS_CLK_SELECT_REG & ((uint32) (~(CY_SYS_CLK_SELECT_HFCLK_DIV_
 575:.\Generated_Source\PSoC4/CyLib.c ****                                         CY_SYS_CLK_SELECT_HFCLK_DIV_SHIFT)))) |
 576:.\Generated_Source\PSoC4/CyLib.c ****                     ((uint32)((divider & CY_SYS_CLK_SELECT_HFCLK_DIV_MASK) << CY_SYS_CLK_SELECT_HFC
 577:.\Generated_Source\PSoC4/CyLib.c **** 
 578:.\Generated_Source\PSoC4/CyLib.c ****         CyExitCriticalSection(interruptState);
 579:.\Generated_Source\PSoC4/CyLib.c ****     }
 580:.\Generated_Source\PSoC4/CyLib.c **** 
ARM GAS  C:\Users\syhaines\AppData\Local\Temp\ccXhcYqL.s 			page 15


 581:.\Generated_Source\PSoC4/CyLib.c **** 
 582:.\Generated_Source\PSoC4/CyLib.c ****     /*******************************************************************************
 583:.\Generated_Source\PSoC4/CyLib.c ****     * Function Name: CySysClkWriteImoFreq
 584:.\Generated_Source\PSoC4/CyLib.c ****     ********************************************************************************
 585:.\Generated_Source\PSoC4/CyLib.c ****     *
 586:.\Generated_Source\PSoC4/CyLib.c ****     * Summary:
 587:.\Generated_Source\PSoC4/CyLib.c ****     *  Sets the frequency of the IMO.
 588:.\Generated_Source\PSoC4/CyLib.c ****     *
 589:.\Generated_Source\PSoC4/CyLib.c ****     * Parameters:
 590:.\Generated_Source\PSoC4/CyLib.c ****     *  freq: Valid values are 24, 32 and 48 MHz.
 591:.\Generated_Source\PSoC4/CyLib.c ****     *
 592:.\Generated_Source\PSoC4/CyLib.c ****     *  Note: The CPU is halted if new frequency is invalid and project is
 593:.\Generated_Source\PSoC4/CyLib.c ****     *  compiled in debug mode.
 594:.\Generated_Source\PSoC4/CyLib.c ****     *
 595:.\Generated_Source\PSoC4/CyLib.c ****     * Return:
 596:.\Generated_Source\PSoC4/CyLib.c ****     *  None
 597:.\Generated_Source\PSoC4/CyLib.c ****     *
 598:.\Generated_Source\PSoC4/CyLib.c ****     * Side Effects:
 599:.\Generated_Source\PSoC4/CyLib.c ****     *  If the SYSCLK clock frequency increases during the device operation, call
 600:.\Generated_Source\PSoC4/CyLib.c ****     *  CySysFlashSetWaitCycles() with the appropriate parameter to adjust the number
 601:.\Generated_Source\PSoC4/CyLib.c ****     *  of clock cycles the cache will wait before sampling data comes back from Flash.
 602:.\Generated_Source\PSoC4/CyLib.c ****     *  If the SYSCLK clock frequency decreases, you can call
 603:.\Generated_Source\PSoC4/CyLib.c ****     *  CySysFlashSetWaitCycles() to improve the CPU performance. See
 604:.\Generated_Source\PSoC4/CyLib.c ****     *  CySysFlashSetWaitCycles() description for more information.
 605:.\Generated_Source\PSoC4/CyLib.c ****     *
 606:.\Generated_Source\PSoC4/CyLib.c ****     *  The System Clock (SYSCLK) has maximum speed of 16 MHz, so HFCLK and SYSCLK
 607:.\Generated_Source\PSoC4/CyLib.c ****     *  dividers should be selected in a way, to not to exceed 16 MHz for the System
 608:.\Generated_Source\PSoC4/CyLib.c ****     *  clock.
 609:.\Generated_Source\PSoC4/CyLib.c ****     *
 610:.\Generated_Source\PSoC4/CyLib.c ****     *******************************************************************************/
 611:.\Generated_Source\PSoC4/CyLib.c ****     void CySysClkWriteImoFreq(uint32 freq)
 612:.\Generated_Source\PSoC4/CyLib.c ****     {
 613:.\Generated_Source\PSoC4/CyLib.c ****         uint8  interruptState;
 614:.\Generated_Source\PSoC4/CyLib.c **** 
 615:.\Generated_Source\PSoC4/CyLib.c ****         if ((freq == 24u) || (freq == 32u) || (freq == 48u))
 616:.\Generated_Source\PSoC4/CyLib.c ****         {
 617:.\Generated_Source\PSoC4/CyLib.c ****             interruptState = CyEnterCriticalSection();
 618:.\Generated_Source\PSoC4/CyLib.c **** 
 619:.\Generated_Source\PSoC4/CyLib.c ****             /* Set IMO to 24 MHz - CLK_IMO_SELECT.FREQ = 0 */
 620:.\Generated_Source\PSoC4/CyLib.c ****             CY_SYS_CLK_IMO_SELECT_REG &= ((uint32) ~CY_SYS_CLK_IMO_SELECT_FREQ_MASK);
 621:.\Generated_Source\PSoC4/CyLib.c **** 
 622:.\Generated_Source\PSoC4/CyLib.c ****             /* Apply coarse trim */
 623:.\Generated_Source\PSoC4/CyLib.c ****             CY_SYS_CLK_IMO_TRIM1_REG = (CY_SYS_CLK_IMO_TRIM1_REG & ((uint32) ~CY_SYS_CLK_IMO_TRIM1_
 624:.\Generated_Source\PSoC4/CyLib.c ****                 (CY_SFLASH_IMO_TRIM_REG(freq - CY_SYS_CLK_IMO_MIN_FREQ_MHZ) & CY_SYS_CLK_IMO_TRIM1_
 625:.\Generated_Source\PSoC4/CyLib.c **** 
 626:.\Generated_Source\PSoC4/CyLib.c ****             /* Zero out fine trim */
 627:.\Generated_Source\PSoC4/CyLib.c ****             CY_SYS_CLK_IMO_TRIM2_REG = CY_SYS_CLK_IMO_TRIM2_REG & ((uint32) ~CY_SYS_CLK_IMO_TRIM2_F
 628:.\Generated_Source\PSoC4/CyLib.c **** 
 629:.\Generated_Source\PSoC4/CyLib.c ****             /* Apply TC trim */
 630:.\Generated_Source\PSoC4/CyLib.c ****             CY_SYS_CLK_IMO_TRIM3_REG = (CY_SYS_CLK_IMO_TRIM3_REG & ((uint32) ~CY_SYS_CLK_IMO_TRIM3_
 631:.\Generated_Source\PSoC4/CyLib.c ****                 (CY_SFLASH_IMO_TCTRIM_REG(freq - CY_SYS_CLK_IMO_MIN_FREQ_MHZ) & CY_SYS_CLK_IMO_TRIM
 632:.\Generated_Source\PSoC4/CyLib.c **** 
 633:.\Generated_Source\PSoC4/CyLib.c ****             CyDelayCycles(CY_SYS_CLK_IMO_TRIM_DELAY_US);
 634:.\Generated_Source\PSoC4/CyLib.c **** 
 635:.\Generated_Source\PSoC4/CyLib.c ****             if (freq > CY_SYS_CLK_IMO_MIN_FREQ_MHZ)
 636:.\Generated_Source\PSoC4/CyLib.c ****             {
 637:.\Generated_Source\PSoC4/CyLib.c ****                 /* Select nearby intermediate frequency */
ARM GAS  C:\Users\syhaines\AppData\Local\Temp\ccXhcYqL.s 			page 16


 638:.\Generated_Source\PSoC4/CyLib.c ****                 CY_SYS_CLK_IMO_SELECT_REG = (CY_SYS_CLK_IMO_SELECT_REG & ((uint32) ~CY_SYS_CLK_IMO_
 639:.\Generated_Source\PSoC4/CyLib.c ****                     (((freq - 4u - CY_SYS_CLK_IMO_MIN_FREQ_MHZ) >> 2u) & CY_SYS_CLK_IMO_SELECT_FREQ
 640:.\Generated_Source\PSoC4/CyLib.c **** 
 641:.\Generated_Source\PSoC4/CyLib.c ****                 CyDelayCycles(CY_SYS_CLK_IMO_TRIM_DELAY_US);
 642:.\Generated_Source\PSoC4/CyLib.c **** 
 643:.\Generated_Source\PSoC4/CyLib.c ****                 /* Make small step to final frequency */
 644:.\Generated_Source\PSoC4/CyLib.c ****                 /* Select nearby intermediate frequency */
 645:.\Generated_Source\PSoC4/CyLib.c ****                 CY_SYS_CLK_IMO_SELECT_REG = (CY_SYS_CLK_IMO_SELECT_REG & ((uint32) ~CY_SYS_CLK_IMO_
 646:.\Generated_Source\PSoC4/CyLib.c ****                     (((freq - CY_SYS_CLK_IMO_MIN_FREQ_MHZ) >> 2u) & CY_SYS_CLK_IMO_SELECT_FREQ_MASK
 647:.\Generated_Source\PSoC4/CyLib.c ****             }
 648:.\Generated_Source\PSoC4/CyLib.c **** 
 649:.\Generated_Source\PSoC4/CyLib.c ****             CyExitCriticalSection(interruptState);
 650:.\Generated_Source\PSoC4/CyLib.c ****         }
 651:.\Generated_Source\PSoC4/CyLib.c ****         else
 652:.\Generated_Source\PSoC4/CyLib.c ****         {
 653:.\Generated_Source\PSoC4/CyLib.c ****             /* Halt CPU in debug mode if new frequency is invalid */
 654:.\Generated_Source\PSoC4/CyLib.c ****             CYASSERT(0u != 0u);
 655:.\Generated_Source\PSoC4/CyLib.c ****         }
 656:.\Generated_Source\PSoC4/CyLib.c ****     }
 657:.\Generated_Source\PSoC4/CyLib.c **** 
 658:.\Generated_Source\PSoC4/CyLib.c **** #endif /* (CY_IP_SRSSV2) */
 659:.\Generated_Source\PSoC4/CyLib.c **** 
 660:.\Generated_Source\PSoC4/CyLib.c **** 
 661:.\Generated_Source\PSoC4/CyLib.c **** #if (CY_PSOC4_4100BL || CY_PSOC4_4200BL)
 662:.\Generated_Source\PSoC4/CyLib.c **** 
 663:.\Generated_Source\PSoC4/CyLib.c ****     /*******************************************************************************
 664:.\Generated_Source\PSoC4/CyLib.c ****     * Function Name: CySysClkEcoStart
 665:.\Generated_Source\PSoC4/CyLib.c ****     ********************************************************************************
 666:.\Generated_Source\PSoC4/CyLib.c ****     *
 667:.\Generated_Source\PSoC4/CyLib.c ****     * Summary:
 668:.\Generated_Source\PSoC4/CyLib.c ****     *  Starts the External Crystal Oscillator (ECO). Refer to the device datasheet
 669:.\Generated_Source\PSoC4/CyLib.c ****     *  for the ECO startup time.
 670:.\Generated_Source\PSoC4/CyLib.c ****     *
 671:.\Generated_Source\PSoC4/CyLib.c ****     *  The timeout interval is measured based on the system frequency defined by
 672:.\Generated_Source\PSoC4/CyLib.c ****     *  PSoC Creator at build time. If System clock frequency is changed in
 673:.\Generated_Source\PSoC4/CyLib.c ****     *  runtime, the CyDelayFreq() with the appropriate parameter should be called.
 674:.\Generated_Source\PSoC4/CyLib.c ****     *
 675:.\Generated_Source\PSoC4/CyLib.c ****     * Parameters:
 676:.\Generated_Source\PSoC4/CyLib.c ****     *  timeoutUs: Timeout in microseconds. If zero is specified, the function
 677:.\Generated_Source\PSoC4/CyLib.c ****     *             starts the crystal and returns CYRET_SUCCESS. If non-zero
 678:.\Generated_Source\PSoC4/CyLib.c ****     *             value is passed, the CYRET_SUCCESS is returned once crystal
 679:.\Generated_Source\PSoC4/CyLib.c ****     *             is oscillating and amplitude reached 60% and it does not mean
 680:.\Generated_Source\PSoC4/CyLib.c ****     *             24 MHz crystal is within 50 ppm. If it is not oscillating or
 681:.\Generated_Source\PSoC4/CyLib.c ****     *             amplitude didn't reach 60% after specified amount of time, the
 682:.\Generated_Source\PSoC4/CyLib.c ****     *             CYRET_TIMEOUT is returned.
 683:.\Generated_Source\PSoC4/CyLib.c ****     *
 684:.\Generated_Source\PSoC4/CyLib.c ****     * Return:
 685:.\Generated_Source\PSoC4/CyLib.c ****     *   CYRET_SUCCESS - Completed successfully. The ECO is oscillating and amplitude
 686:.\Generated_Source\PSoC4/CyLib.c ****     *                   reached 60% and it does not mean 24 MHz crystal is within
 687:.\Generated_Source\PSoC4/CyLib.c ****     *                   50 ppm.
 688:.\Generated_Source\PSoC4/CyLib.c ****     *   CYRET_TIMEOUT - Timeout occurred.
 689:.\Generated_Source\PSoC4/CyLib.c ****     *
 690:.\Generated_Source\PSoC4/CyLib.c ****     *******************************************************************************/
 691:.\Generated_Source\PSoC4/CyLib.c ****     cystatus CySysClkEcoStart(uint32 timeoutUs)
 692:.\Generated_Source\PSoC4/CyLib.c ****     {
 693:.\Generated_Source\PSoC4/CyLib.c ****         cystatus status = CYRET_SUCCESS;
 694:.\Generated_Source\PSoC4/CyLib.c **** 
ARM GAS  C:\Users\syhaines\AppData\Local\Temp\ccXhcYqL.s 			page 17


 695:.\Generated_Source\PSoC4/CyLib.c ****         /* Enable the RF oscillator band gap */
 696:.\Generated_Source\PSoC4/CyLib.c ****         CY_SYS_XTAL_BLESS_RF_CONFIG_REG |= CY_SYS_XTAL_BLESS_RF_CONFIG_RF_ENABLE;
 697:.\Generated_Source\PSoC4/CyLib.c **** 
 698:.\Generated_Source\PSoC4/CyLib.c ****         /* Update trimming register */
 699:.\Generated_Source\PSoC4/CyLib.c ****         CY_SYS_XTAL_BLERD_BB_XO_REG = CY_SYS_XTAL_BLERD_BB_XO_TRIM;
 700:.\Generated_Source\PSoC4/CyLib.c **** 
 701:.\Generated_Source\PSoC4/CyLib.c ****         /* Enable the Crystal */
 702:.\Generated_Source\PSoC4/CyLib.c ****         CY_SYS_XTAL_BLERD_DBUS_REG |= CY_SYS_XTAL_BLERD_DBUS_XTAL_ENABLE;
 703:.\Generated_Source\PSoC4/CyLib.c **** 
 704:.\Generated_Source\PSoC4/CyLib.c ****         if(timeoutUs > 0u)
 705:.\Generated_Source\PSoC4/CyLib.c ****         {
 706:.\Generated_Source\PSoC4/CyLib.c ****             status = CYRET_TIMEOUT;
 707:.\Generated_Source\PSoC4/CyLib.c **** 
 708:.\Generated_Source\PSoC4/CyLib.c ****             for( ; timeoutUs > 0u; timeoutUs--)
 709:.\Generated_Source\PSoC4/CyLib.c ****             {
 710:.\Generated_Source\PSoC4/CyLib.c ****                 CyDelayUs(1u);
 711:.\Generated_Source\PSoC4/CyLib.c **** 
 712:.\Generated_Source\PSoC4/CyLib.c ****                 if(0u != CySysClkEcoReadStatus())
 713:.\Generated_Source\PSoC4/CyLib.c ****                 {
 714:.\Generated_Source\PSoC4/CyLib.c ****                     status = CYRET_SUCCESS;
 715:.\Generated_Source\PSoC4/CyLib.c ****                     break;
 716:.\Generated_Source\PSoC4/CyLib.c ****                 }
 717:.\Generated_Source\PSoC4/CyLib.c ****             }
 718:.\Generated_Source\PSoC4/CyLib.c **** 
 719:.\Generated_Source\PSoC4/CyLib.c ****         }
 720:.\Generated_Source\PSoC4/CyLib.c **** 
 721:.\Generated_Source\PSoC4/CyLib.c ****         return(status);
 722:.\Generated_Source\PSoC4/CyLib.c ****     }
 723:.\Generated_Source\PSoC4/CyLib.c **** 
 724:.\Generated_Source\PSoC4/CyLib.c **** 
 725:.\Generated_Source\PSoC4/CyLib.c ****     /*******************************************************************************
 726:.\Generated_Source\PSoC4/CyLib.c ****     * Function Name: CySysClkEcoStop
 727:.\Generated_Source\PSoC4/CyLib.c ****     ********************************************************************************
 728:.\Generated_Source\PSoC4/CyLib.c ****     *
 729:.\Generated_Source\PSoC4/CyLib.c ****     * Summary:
 730:.\Generated_Source\PSoC4/CyLib.c ****     *  Stops the megahertz crystal.
 731:.\Generated_Source\PSoC4/CyLib.c ****     *
 732:.\Generated_Source\PSoC4/CyLib.c ****     * Parameters:
 733:.\Generated_Source\PSoC4/CyLib.c ****     *  None
 734:.\Generated_Source\PSoC4/CyLib.c ****     *
 735:.\Generated_Source\PSoC4/CyLib.c ****     * Return:
 736:.\Generated_Source\PSoC4/CyLib.c ****     *  None
 737:.\Generated_Source\PSoC4/CyLib.c ****     *
 738:.\Generated_Source\PSoC4/CyLib.c ****     *******************************************************************************/
 739:.\Generated_Source\PSoC4/CyLib.c ****     void CySysClkEcoStop(void)
 740:.\Generated_Source\PSoC4/CyLib.c ****     {
 741:.\Generated_Source\PSoC4/CyLib.c ****         /* Disable the RF oscillator band gap */
 742:.\Generated_Source\PSoC4/CyLib.c ****         CY_SYS_XTAL_BLESS_RF_CONFIG_REG &= (uint32) ~CY_SYS_XTAL_BLESS_RF_CONFIG_RF_ENABLE;
 743:.\Generated_Source\PSoC4/CyLib.c **** 
 744:.\Generated_Source\PSoC4/CyLib.c ****         /* Disable the Crystal */
 745:.\Generated_Source\PSoC4/CyLib.c ****         CY_SYS_XTAL_BLERD_DBUS_REG &= (uint32) ~CY_SYS_XTAL_BLERD_DBUS_XTAL_ENABLE;
 746:.\Generated_Source\PSoC4/CyLib.c ****     }
 747:.\Generated_Source\PSoC4/CyLib.c **** 
 748:.\Generated_Source\PSoC4/CyLib.c **** 
 749:.\Generated_Source\PSoC4/CyLib.c ****     /*******************************************************************************
 750:.\Generated_Source\PSoC4/CyLib.c ****     * Function Name: CySysClkEcoReadStatus
 751:.\Generated_Source\PSoC4/CyLib.c ****     ********************************************************************************
ARM GAS  C:\Users\syhaines\AppData\Local\Temp\ccXhcYqL.s 			page 18


 752:.\Generated_Source\PSoC4/CyLib.c ****     *
 753:.\Generated_Source\PSoC4/CyLib.c ****     * Summary:
 754:.\Generated_Source\PSoC4/CyLib.c ****     *  Read status bit (50 ppm reached) for the megahertz crystal.
 755:.\Generated_Source\PSoC4/CyLib.c ****     *
 756:.\Generated_Source\PSoC4/CyLib.c ****     * Parameters:
 757:.\Generated_Source\PSoC4/CyLib.c ****     *  None
 758:.\Generated_Source\PSoC4/CyLib.c ****     *
 759:.\Generated_Source\PSoC4/CyLib.c ****     * Return:
 760:.\Generated_Source\PSoC4/CyLib.c ****     *  Non-zero indicates that XTAL output reached 50 ppm.
 761:.\Generated_Source\PSoC4/CyLib.c ****     *
 762:.\Generated_Source\PSoC4/CyLib.c ****     *******************************************************************************/
 763:.\Generated_Source\PSoC4/CyLib.c ****     uint32 CySysClkEcoReadStatus(void)
 764:.\Generated_Source\PSoC4/CyLib.c ****     {
 765:.\Generated_Source\PSoC4/CyLib.c ****         return (CY_SYS_XTAL_BLERD_FSM_REG & CY_SYS_XTAL_BLERD_FSM_XO_AMP_DETECT);
 766:.\Generated_Source\PSoC4/CyLib.c ****     }
 767:.\Generated_Source\PSoC4/CyLib.c **** 
 768:.\Generated_Source\PSoC4/CyLib.c **** 
 769:.\Generated_Source\PSoC4/CyLib.c ****     /*******************************************************************************
 770:.\Generated_Source\PSoC4/CyLib.c ****     * Function Name: CySysClkWriteEcoDiv
 771:.\Generated_Source\PSoC4/CyLib.c ****     ********************************************************************************
 772:.\Generated_Source\PSoC4/CyLib.c ****     *
 773:.\Generated_Source\PSoC4/CyLib.c ****     * Summary:
 774:.\Generated_Source\PSoC4/CyLib.c ****     *  Selects value for the ECO divider.
 775:.\Generated_Source\PSoC4/CyLib.c ****     *
 776:.\Generated_Source\PSoC4/CyLib.c ****     * Parameters:
 777:.\Generated_Source\PSoC4/CyLib.c ****     *  divider: Power of 2 divider selection.
 778:.\Generated_Source\PSoC4/CyLib.c ****     *
 779:.\Generated_Source\PSoC4/CyLib.c ****     *   Define                        Description
 780:.\Generated_Source\PSoC4/CyLib.c ****     *   CY_SYS_CLK_ECO_DIV1             HFCLK = ECO / 1
 781:.\Generated_Source\PSoC4/CyLib.c ****     *   CY_SYS_CLK_ECO_DIV2             HFCLK = ECO / 2
 782:.\Generated_Source\PSoC4/CyLib.c ****     *   CY_SYS_CLK_ECO_DIV4             HFCLK = ECO / 4
 783:.\Generated_Source\PSoC4/CyLib.c ****     *   CY_SYS_CLK_ECO_DIV8             HFCLK = ECO / 8
 784:.\Generated_Source\PSoC4/CyLib.c ****     *
 785:.\Generated_Source\PSoC4/CyLib.c ****     * Return:
 786:.\Generated_Source\PSoC4/CyLib.c ****     *  None
 787:.\Generated_Source\PSoC4/CyLib.c ****     *
 788:.\Generated_Source\PSoC4/CyLib.c ****     * Side Effects:
 789:.\Generated_Source\PSoC4/CyLib.c ****     *  If the SYSCLK clock frequency increases during the device operation, call
 790:.\Generated_Source\PSoC4/CyLib.c ****     *  CySysFlashSetWaitCycles() with the appropriate parameter to adjust the number
 791:.\Generated_Source\PSoC4/CyLib.c ****     *  of clock cycles the cache will wait before sampling data comes back from Flash.
 792:.\Generated_Source\PSoC4/CyLib.c ****     *  If the SYSCLK clock frequency decreases, you can call
 793:.\Generated_Source\PSoC4/CyLib.c ****     *  CySysFlashSetWaitCycles() to improve the CPU performance. See
 794:.\Generated_Source\PSoC4/CyLib.c ****     *  CySysFlashSetWaitCycles() description for more information.
 795:.\Generated_Source\PSoC4/CyLib.c ****     *
 796:.\Generated_Source\PSoC4/CyLib.c ****     *******************************************************************************/
 797:.\Generated_Source\PSoC4/CyLib.c ****     void CySysClkWriteEcoDiv(uint32 divider)
 798:.\Generated_Source\PSoC4/CyLib.c ****     {
 799:.\Generated_Source\PSoC4/CyLib.c ****         uint8  interruptState;
 800:.\Generated_Source\PSoC4/CyLib.c **** 
 801:.\Generated_Source\PSoC4/CyLib.c ****         interruptState = CyEnterCriticalSection();
 802:.\Generated_Source\PSoC4/CyLib.c **** 
 803:.\Generated_Source\PSoC4/CyLib.c ****         CY_SYS_CLK_XTAL_CLK_DIV_CONFIG_REG =  (divider & CY_SYS_CLK_XTAL_CLK_DIV_MASK) |
 804:.\Generated_Source\PSoC4/CyLib.c ****                                               (CY_SYS_CLK_XTAL_CLK_DIV_CONFIG_REG & ((uint32) ~CY_S
 805:.\Generated_Source\PSoC4/CyLib.c **** 
 806:.\Generated_Source\PSoC4/CyLib.c ****         CyExitCriticalSection(interruptState);
 807:.\Generated_Source\PSoC4/CyLib.c ****     }
 808:.\Generated_Source\PSoC4/CyLib.c **** #endif /* (CY_PSOC4_4100BL || CY_PSOC4_4200BL) */
ARM GAS  C:\Users\syhaines\AppData\Local\Temp\ccXhcYqL.s 			page 19


 809:.\Generated_Source\PSoC4/CyLib.c **** 
 810:.\Generated_Source\PSoC4/CyLib.c **** 
 811:.\Generated_Source\PSoC4/CyLib.c **** #if (CY_IP_WCO)
 812:.\Generated_Source\PSoC4/CyLib.c ****     /*******************************************************************************
 813:.\Generated_Source\PSoC4/CyLib.c ****     * Function Name: CySysClkWcoStart
 814:.\Generated_Source\PSoC4/CyLib.c ****     ********************************************************************************
 815:.\Generated_Source\PSoC4/CyLib.c ****     *
 816:.\Generated_Source\PSoC4/CyLib.c ****     * Summary:
 817:.\Generated_Source\PSoC4/CyLib.c ****     *  Enables the Watch Crystal Oscillator (WCO). The WCO is used as a source for
 818:.\Generated_Source\PSoC4/CyLib.c ****     *  LFCLK.  Similar to ILO, WCO is also available in all modes except Hibernate
 819:.\Generated_Source\PSoC4/CyLib.c ****     *  and Stop modes.
 820:.\Generated_Source\PSoC4/CyLib.c ****     *
 821:.\Generated_Source\PSoC4/CyLib.c ****     *  The WCO is always enabled in High Power Mode (HPM). Refer to the device
 822:.\Generated_Source\PSoC4/CyLib.c ****     *  datasheet for the  WCO startup time. Once WCO becomes stable it can be
 823:.\Generated_Source\PSoC4/CyLib.c ****     *  switched to the Low Power Mode (LPM). Note that oscillator can be unstable
 824:.\Generated_Source\PSoC4/CyLib.c ****     *  during switch and hence its output should not be used at the moment.
 825:.\Generated_Source\PSoC4/CyLib.c ****     *
 826:.\Generated_Source\PSoC4/CyLib.c ****     *  The CySysClkWcoSetPowerMode() function configures WCO power mode.
 827:.\Generated_Source\PSoC4/CyLib.c ****     *
 828:.\Generated_Source\PSoC4/CyLib.c ****     * Parameters:
 829:.\Generated_Source\PSoC4/CyLib.c ****     *  None
 830:.\Generated_Source\PSoC4/CyLib.c ****     *
 831:.\Generated_Source\PSoC4/CyLib.c ****     * Return:
 832:.\Generated_Source\PSoC4/CyLib.c ****     *  None
 833:.\Generated_Source\PSoC4/CyLib.c ****     *
 834:.\Generated_Source\PSoC4/CyLib.c ****     *******************************************************************************/
 835:.\Generated_Source\PSoC4/CyLib.c ****     void CySysClkWcoStart(void)
 836:.\Generated_Source\PSoC4/CyLib.c ****     {
 837:.\Generated_Source\PSoC4/CyLib.c ****         CySysClkWcoSetHighPowerMode();
 838:.\Generated_Source\PSoC4/CyLib.c ****         CY_SYS_CLK_WCO_CONFIG_REG |= CY_SYS_CLK_WCO_CONFIG_LPM_ENABLE;
 839:.\Generated_Source\PSoC4/CyLib.c ****     }
 840:.\Generated_Source\PSoC4/CyLib.c **** 
 841:.\Generated_Source\PSoC4/CyLib.c **** 
 842:.\Generated_Source\PSoC4/CyLib.c ****     /*******************************************************************************
 843:.\Generated_Source\PSoC4/CyLib.c ****     * Function Name: CySysClkWcoStop
 844:.\Generated_Source\PSoC4/CyLib.c ****     ********************************************************************************
 845:.\Generated_Source\PSoC4/CyLib.c ****     *
 846:.\Generated_Source\PSoC4/CyLib.c ****     * Summary:
 847:.\Generated_Source\PSoC4/CyLib.c ****     *  Disables the 32KHz Crystal Oscillator.
 848:.\Generated_Source\PSoC4/CyLib.c ****     *
 849:.\Generated_Source\PSoC4/CyLib.c ****     * Parameters:
 850:.\Generated_Source\PSoC4/CyLib.c ****     *  None
 851:.\Generated_Source\PSoC4/CyLib.c ****     *
 852:.\Generated_Source\PSoC4/CyLib.c ****     * Return:
 853:.\Generated_Source\PSoC4/CyLib.c ****     *  None
 854:.\Generated_Source\PSoC4/CyLib.c ****     *
 855:.\Generated_Source\PSoC4/CyLib.c ****     *******************************************************************************/
 856:.\Generated_Source\PSoC4/CyLib.c ****     void  CySysClkWcoStop(void)
 857:.\Generated_Source\PSoC4/CyLib.c ****     {
 858:.\Generated_Source\PSoC4/CyLib.c ****         uint8  interruptState;
 859:.\Generated_Source\PSoC4/CyLib.c **** 
 860:.\Generated_Source\PSoC4/CyLib.c ****         if (0u != CySysClkWcoEnabled())
 861:.\Generated_Source\PSoC4/CyLib.c ****         {
 862:.\Generated_Source\PSoC4/CyLib.c **** 
 863:.\Generated_Source\PSoC4/CyLib.c ****             if (CY_SYS_CLK_LFCLK_SRC_WCO == CySysClkGetLfclkSource())
 864:.\Generated_Source\PSoC4/CyLib.c ****             {
 865:.\Generated_Source\PSoC4/CyLib.c ****                 interruptState = CyEnterCriticalSection();
ARM GAS  C:\Users\syhaines\AppData\Local\Temp\ccXhcYqL.s 			page 20


 866:.\Generated_Source\PSoC4/CyLib.c ****                 CySysClkLfclkPosedgeCatch();
 867:.\Generated_Source\PSoC4/CyLib.c ****                 CY_SYS_CLK_WCO_CONFIG_REG &= (uint32) ~CY_SYS_CLK_WCO_CONFIG_LPM_ENABLE;
 868:.\Generated_Source\PSoC4/CyLib.c ****                 CySysClkLfclkPosedgeRestore();
 869:.\Generated_Source\PSoC4/CyLib.c ****                 CyExitCriticalSection(interruptState);
 870:.\Generated_Source\PSoC4/CyLib.c ****             }
 871:.\Generated_Source\PSoC4/CyLib.c ****             else /* Safe to disable - shortened pulse does not impact peripheral */
 872:.\Generated_Source\PSoC4/CyLib.c ****             {
 873:.\Generated_Source\PSoC4/CyLib.c ****                 CY_SYS_CLK_WCO_CONFIG_REG &= (uint32) ~CY_SYS_CLK_WCO_CONFIG_LPM_ENABLE;
 874:.\Generated_Source\PSoC4/CyLib.c ****             }
 875:.\Generated_Source\PSoC4/CyLib.c ****         } /* Otherwise do nothing. WCO configuration cannot be changed. */
 876:.\Generated_Source\PSoC4/CyLib.c ****     }
 877:.\Generated_Source\PSoC4/CyLib.c **** 
 878:.\Generated_Source\PSoC4/CyLib.c **** 
 879:.\Generated_Source\PSoC4/CyLib.c ****     /*******************************************************************************
 880:.\Generated_Source\PSoC4/CyLib.c ****     * Function Name: CySysClkWcoEnabled
 881:.\Generated_Source\PSoC4/CyLib.c ****     ********************************************************************************
 882:.\Generated_Source\PSoC4/CyLib.c ****     *
 883:.\Generated_Source\PSoC4/CyLib.c ****     * Summary:
 884:.\Generated_Source\PSoC4/CyLib.c ****     *  Reports WCO enable state.
 885:.\Generated_Source\PSoC4/CyLib.c ****     *
 886:.\Generated_Source\PSoC4/CyLib.c ****     * Parameters:
 887:.\Generated_Source\PSoC4/CyLib.c ****     *  None
 888:.\Generated_Source\PSoC4/CyLib.c ****     *
 889:.\Generated_Source\PSoC4/CyLib.c ****     * Return:
 890:.\Generated_Source\PSoC4/CyLib.c ****     *  1 if WCO is enabled, and 0 if WCO is disabled.
 891:.\Generated_Source\PSoC4/CyLib.c ****     *
 892:.\Generated_Source\PSoC4/CyLib.c ****     *******************************************************************************/
 893:.\Generated_Source\PSoC4/CyLib.c ****     static uint32 CySysClkWcoEnabled(void)
 894:.\Generated_Source\PSoC4/CyLib.c ****     {
 895:.\Generated_Source\PSoC4/CyLib.c ****         return ((0u != (CY_SYS_CLK_WCO_CONFIG_REG & (uint32)(CY_SYS_CLK_WCO_CONFIG_LPM_ENABLE))) ?
 896:.\Generated_Source\PSoC4/CyLib.c ****                 (uint32) 1u :
 897:.\Generated_Source\PSoC4/CyLib.c ****                 (uint32) 0u);
 898:.\Generated_Source\PSoC4/CyLib.c ****     }
 899:.\Generated_Source\PSoC4/CyLib.c **** 
 900:.\Generated_Source\PSoC4/CyLib.c **** 
 901:.\Generated_Source\PSoC4/CyLib.c ****     /*******************************************************************************
 902:.\Generated_Source\PSoC4/CyLib.c ****     * Function Name: CySysClkWcoSetPowerMode
 903:.\Generated_Source\PSoC4/CyLib.c ****     ********************************************************************************
 904:.\Generated_Source\PSoC4/CyLib.c ****     *
 905:.\Generated_Source\PSoC4/CyLib.c ****     * Summary:
 906:.\Generated_Source\PSoC4/CyLib.c ****     *  Sets the power mode for the 32 KHz WCO.
 907:.\Generated_Source\PSoC4/CyLib.c ****     *
 908:.\Generated_Source\PSoC4/CyLib.c ****     * Parameters:
 909:.\Generated_Source\PSoC4/CyLib.c ****     *  uint32 mode:
 910:.\Generated_Source\PSoC4/CyLib.c ****     *   CY_SYS_CLK_WCO_HPM  - High power mode
 911:.\Generated_Source\PSoC4/CyLib.c ****     *   CY_SYS_CLK_WCO_LPM  - Low power mode
 912:.\Generated_Source\PSoC4/CyLib.c ****     *
 913:.\Generated_Source\PSoC4/CyLib.c ****     * Return:
 914:.\Generated_Source\PSoC4/CyLib.c ****     *  Previous power mode. The same as parameters.
 915:.\Generated_Source\PSoC4/CyLib.c ****     *
 916:.\Generated_Source\PSoC4/CyLib.c ****     *******************************************************************************/
 917:.\Generated_Source\PSoC4/CyLib.c ****     uint32 CySysClkWcoSetPowerMode(uint32 mode)
 918:.\Generated_Source\PSoC4/CyLib.c ****     {
 919:.\Generated_Source\PSoC4/CyLib.c ****         uint32 status;
 920:.\Generated_Source\PSoC4/CyLib.c **** 
 921:.\Generated_Source\PSoC4/CyLib.c ****         status = CY_SYS_CLK_WCO_CONFIG_REG & CY_SYS_CLK_WCO_LPM;
 922:.\Generated_Source\PSoC4/CyLib.c **** 
ARM GAS  C:\Users\syhaines\AppData\Local\Temp\ccXhcYqL.s 			page 21


 923:.\Generated_Source\PSoC4/CyLib.c ****         switch(mode)
 924:.\Generated_Source\PSoC4/CyLib.c ****         {
 925:.\Generated_Source\PSoC4/CyLib.c ****         case CY_SYS_CLK_WCO_HPM:
 926:.\Generated_Source\PSoC4/CyLib.c ****                 CySysClkWcoSetHighPowerMode();
 927:.\Generated_Source\PSoC4/CyLib.c ****             break;
 928:.\Generated_Source\PSoC4/CyLib.c **** 
 929:.\Generated_Source\PSoC4/CyLib.c ****         case CY_SYS_CLK_WCO_LPM:
 930:.\Generated_Source\PSoC4/CyLib.c ****                 CySysClkWcoSetLowPowerMode();
 931:.\Generated_Source\PSoC4/CyLib.c ****             break;
 932:.\Generated_Source\PSoC4/CyLib.c **** 
 933:.\Generated_Source\PSoC4/CyLib.c ****         default:
 934:.\Generated_Source\PSoC4/CyLib.c ****             CYASSERT(0u != 0u);
 935:.\Generated_Source\PSoC4/CyLib.c ****             break;
 936:.\Generated_Source\PSoC4/CyLib.c ****         }
 937:.\Generated_Source\PSoC4/CyLib.c **** 
 938:.\Generated_Source\PSoC4/CyLib.c ****         return (status);
 939:.\Generated_Source\PSoC4/CyLib.c ****     }
 940:.\Generated_Source\PSoC4/CyLib.c **** 
 941:.\Generated_Source\PSoC4/CyLib.c **** #endif  /* (CY_IP_WCO) */
 942:.\Generated_Source\PSoC4/CyLib.c **** 
 943:.\Generated_Source\PSoC4/CyLib.c **** 
 944:.\Generated_Source\PSoC4/CyLib.c **** #if(CY_IP_SRSSV2)
 945:.\Generated_Source\PSoC4/CyLib.c **** 
 946:.\Generated_Source\PSoC4/CyLib.c **** 
 947:.\Generated_Source\PSoC4/CyLib.c ****     /*******************************************************************************
 948:.\Generated_Source\PSoC4/CyLib.c ****     * Function Name: CySysWdtLock
 949:.\Generated_Source\PSoC4/CyLib.c ****     ********************************************************************************
 950:.\Generated_Source\PSoC4/CyLib.c ****     *
 951:.\Generated_Source\PSoC4/CyLib.c ****     * Summary:
 952:.\Generated_Source\PSoC4/CyLib.c ****     *  Locks out configuration changes to the Watchdog timer registers and ILO
 953:.\Generated_Source\PSoC4/CyLib.c ****     *  configuration register.
 954:.\Generated_Source\PSoC4/CyLib.c ****     *
 955:.\Generated_Source\PSoC4/CyLib.c ****     * Parameters:
 956:.\Generated_Source\PSoC4/CyLib.c ****     *  None
 957:.\Generated_Source\PSoC4/CyLib.c ****     *
 958:.\Generated_Source\PSoC4/CyLib.c ****     * Return:
 959:.\Generated_Source\PSoC4/CyLib.c ****     *  None
 960:.\Generated_Source\PSoC4/CyLib.c ****     *
 961:.\Generated_Source\PSoC4/CyLib.c ****     * Side effects:
 962:.\Generated_Source\PSoC4/CyLib.c ****     *  After this function was called, ILO clock can't be disabled until
 963:.\Generated_Source\PSoC4/CyLib.c ****     *  CySysWdtUnlock() is called.
 964:.\Generated_Source\PSoC4/CyLib.c ****     *
 965:.\Generated_Source\PSoC4/CyLib.c ****     *******************************************************************************/
 966:.\Generated_Source\PSoC4/CyLib.c ****     void CySysWdtLock(void)
 967:.\Generated_Source\PSoC4/CyLib.c ****     {
 210              		.loc 1 967 0
 211              		.cfi_startproc
 212 0000 08B5     		push	{r3, lr}
 213              		.cfi_def_cfa_offset 8
 214              		.cfi_offset 3, -8
 215              		.cfi_offset 14, -4
 968:.\Generated_Source\PSoC4/CyLib.c ****         uint8 interruptState;
 969:.\Generated_Source\PSoC4/CyLib.c ****         interruptState = CyEnterCriticalSection();
 216              		.loc 1 969 0
 217 0002 FFF7FEFF 		bl	CyEnterCriticalSection
 218              	.LVL8:
 970:.\Generated_Source\PSoC4/CyLib.c **** 
ARM GAS  C:\Users\syhaines\AppData\Local\Temp\ccXhcYqL.s 			page 22


 971:.\Generated_Source\PSoC4/CyLib.c ****         CY_SYS_CLK_SELECT_REG = (CY_SYS_CLK_SELECT_REG & (uint32)(~CY_SYS_WDT_CLK_LOCK_BITS_MASK)) 
 219              		.loc 1 971 0
 220 0006 C021     		mov	r1, #192
 221 0008 034A     		ldr	r2, .L17
 222 000a 0902     		lsl	r1, r1, #8
 223 000c 1368     		ldr	r3, [r2]
 972:.\Generated_Source\PSoC4/CyLib.c ****                  CY_SYS_WDT_CLK_LOCK_BITS_MASK;
 973:.\Generated_Source\PSoC4/CyLib.c **** 
 974:.\Generated_Source\PSoC4/CyLib.c ****         CyExitCriticalSection(interruptState);
 975:.\Generated_Source\PSoC4/CyLib.c ****     }
 224              		.loc 1 975 0
 225              		@ sp needed
 971:.\Generated_Source\PSoC4/CyLib.c ****                  CY_SYS_WDT_CLK_LOCK_BITS_MASK;
 226              		.loc 1 971 0
 227 000e 0B43     		orr	r3, r1
 228 0010 1360     		str	r3, [r2]
 974:.\Generated_Source\PSoC4/CyLib.c ****     }
 229              		.loc 1 974 0
 230 0012 FFF7FEFF 		bl	CyExitCriticalSection
 231              	.LVL9:
 232              		.loc 1 975 0
 233 0016 08BD     		pop	{r3, pc}
 234              	.L18:
 235              		.align	2
 236              	.L17:
 237 0018 00010B40 		.word	1074462976
 238              		.cfi_endproc
 239              	.LFE8:
 240              		.size	CySysWdtLock, .-CySysWdtLock
 241              		.section	.text.CySysWdtUnlock,"ax",%progbits
 242              		.align	1
 243              		.global	CySysWdtUnlock
 244              		.code	16
 245              		.thumb_func
 246              		.type	CySysWdtUnlock, %function
 247              	CySysWdtUnlock:
 248              	.LFB10:
 976:.\Generated_Source\PSoC4/CyLib.c **** 
 977:.\Generated_Source\PSoC4/CyLib.c **** 
 978:.\Generated_Source\PSoC4/CyLib.c ****     /*******************************************************************************
 979:.\Generated_Source\PSoC4/CyLib.c ****     * Function Name: CySysWdtLocked
 980:.\Generated_Source\PSoC4/CyLib.c ****     ********************************************************************************
 981:.\Generated_Source\PSoC4/CyLib.c ****     *
 982:.\Generated_Source\PSoC4/CyLib.c ****     * Summary:
 983:.\Generated_Source\PSoC4/CyLib.c ****     *  Reports WDT lock state.
 984:.\Generated_Source\PSoC4/CyLib.c ****     *
 985:.\Generated_Source\PSoC4/CyLib.c ****     * Parameters:
 986:.\Generated_Source\PSoC4/CyLib.c ****     *  None
 987:.\Generated_Source\PSoC4/CyLib.c ****     *
 988:.\Generated_Source\PSoC4/CyLib.c ****     * Return:
 989:.\Generated_Source\PSoC4/CyLib.c ****     *  1 - WDT is locked, and 0 - WDT is unlocked.
 990:.\Generated_Source\PSoC4/CyLib.c ****     *
 991:.\Generated_Source\PSoC4/CyLib.c ****     *******************************************************************************/
 992:.\Generated_Source\PSoC4/CyLib.c ****     static uint32 CySysWdtLocked(void)
 993:.\Generated_Source\PSoC4/CyLib.c ****     {
 994:.\Generated_Source\PSoC4/CyLib.c ****         /* Prohibits writing to WDT registers and ILO/WCO registers when not equal 0 */
 995:.\Generated_Source\PSoC4/CyLib.c ****         return ((0u != (CY_SYS_CLK_SELECT_REG & (uint32)(CY_SYS_WDT_CLK_LOCK_BITS_MASK))) ? (uint32
ARM GAS  C:\Users\syhaines\AppData\Local\Temp\ccXhcYqL.s 			page 23


 996:.\Generated_Source\PSoC4/CyLib.c ****     }
 997:.\Generated_Source\PSoC4/CyLib.c **** 
 998:.\Generated_Source\PSoC4/CyLib.c **** 
 999:.\Generated_Source\PSoC4/CyLib.c ****     /*******************************************************************************
1000:.\Generated_Source\PSoC4/CyLib.c ****     * Function Name: CySysWdtUnlock
1001:.\Generated_Source\PSoC4/CyLib.c ****     ********************************************************************************
1002:.\Generated_Source\PSoC4/CyLib.c ****     *
1003:.\Generated_Source\PSoC4/CyLib.c ****     * Summary:
1004:.\Generated_Source\PSoC4/CyLib.c ****     *  Unlocks the Watchdog Timer configuration register.
1005:.\Generated_Source\PSoC4/CyLib.c ****     *
1006:.\Generated_Source\PSoC4/CyLib.c ****     * Parameters:
1007:.\Generated_Source\PSoC4/CyLib.c ****     *  None
1008:.\Generated_Source\PSoC4/CyLib.c ****     *
1009:.\Generated_Source\PSoC4/CyLib.c ****     * Return:
1010:.\Generated_Source\PSoC4/CyLib.c ****     *  None
1011:.\Generated_Source\PSoC4/CyLib.c ****     *
1012:.\Generated_Source\PSoC4/CyLib.c ****     *******************************************************************************/
1013:.\Generated_Source\PSoC4/CyLib.c ****     void CySysWdtUnlock(void)
1014:.\Generated_Source\PSoC4/CyLib.c ****     {
 249              		.loc 1 1014 0
 250              		.cfi_startproc
 251 0000 10B5     		push	{r4, lr}
 252              		.cfi_def_cfa_offset 8
 253              		.cfi_offset 4, -8
 254              		.cfi_offset 14, -4
1015:.\Generated_Source\PSoC4/CyLib.c ****         uint8 interruptState;
1016:.\Generated_Source\PSoC4/CyLib.c ****         interruptState = CyEnterCriticalSection();
1017:.\Generated_Source\PSoC4/CyLib.c **** 
1018:.\Generated_Source\PSoC4/CyLib.c ****         /* Removing WDT lock requires two writes */
1019:.\Generated_Source\PSoC4/CyLib.c ****         CY_SYS_CLK_SELECT_REG = ((CY_SYS_CLK_SELECT_REG & (uint32)(~CY_SYS_WDT_CLK_LOCK_BITS_MASK))
 255              		.loc 1 1019 0
 256 0002 8024     		mov	r4, #128
1016:.\Generated_Source\PSoC4/CyLib.c **** 
 257              		.loc 1 1016 0
 258 0004 FFF7FEFF 		bl	CyEnterCriticalSection
 259              	.LVL10:
 260              		.loc 1 1019 0
 261 0008 0749     		ldr	r1, .L20
 262 000a 084B     		ldr	r3, .L20+4
 263 000c 0A68     		ldr	r2, [r1]
 264 000e E401     		lsl	r4, r4, #7
 265 0010 1A40     		and	r2, r3
 266 0012 2243     		orr	r2, r4
 267 0014 0A60     		str	r2, [r1]
1020:.\Generated_Source\PSoC4/CyLib.c ****                 CY_SYS_WDT_CLK_LOCK_BIT0);
1021:.\Generated_Source\PSoC4/CyLib.c **** 
1022:.\Generated_Source\PSoC4/CyLib.c ****         CY_SYS_CLK_SELECT_REG = ((CY_SYS_CLK_SELECT_REG & (uint32)(~CY_SYS_WDT_CLK_LOCK_BITS_MASK))
 268              		.loc 1 1022 0
 269 0016 0A68     		ldr	r2, [r1]
1023:.\Generated_Source\PSoC4/CyLib.c ****                 CY_SYS_WDT_CLK_LOCK_BIT1);
1024:.\Generated_Source\PSoC4/CyLib.c **** 
1025:.\Generated_Source\PSoC4/CyLib.c ****         CyExitCriticalSection(interruptState);
1026:.\Generated_Source\PSoC4/CyLib.c ****     }
 270              		.loc 1 1026 0
 271              		@ sp needed
1022:.\Generated_Source\PSoC4/CyLib.c ****                 CY_SYS_WDT_CLK_LOCK_BIT1);
 272              		.loc 1 1022 0
ARM GAS  C:\Users\syhaines\AppData\Local\Temp\ccXhcYqL.s 			page 24


 273 0018 1340     		and	r3, r2
 274 001a 8022     		mov	r2, #128
 275 001c 1202     		lsl	r2, r2, #8
 276 001e 1343     		orr	r3, r2
 277 0020 0B60     		str	r3, [r1]
1025:.\Generated_Source\PSoC4/CyLib.c ****     }
 278              		.loc 1 1025 0
 279 0022 FFF7FEFF 		bl	CyExitCriticalSection
 280              	.LVL11:
 281              		.loc 1 1026 0
 282 0026 10BD     		pop	{r4, pc}
 283              	.L21:
 284              		.align	2
 285              	.L20:
 286 0028 00010B40 		.word	1074462976
 287 002c FF3FFFFF 		.word	-49153
 288              		.cfi_endproc
 289              	.LFE10:
 290              		.size	CySysWdtUnlock, .-CySysWdtUnlock
 291              		.section	.text.CySysWdtReadEnabledStatus,"ax",%progbits
 292              		.align	1
 293              		.global	CySysWdtReadEnabledStatus
 294              		.code	16
 295              		.thumb_func
 296              		.type	CySysWdtReadEnabledStatus, %function
 297              	CySysWdtReadEnabledStatus:
 298              	.LFB11:
1027:.\Generated_Source\PSoC4/CyLib.c **** 
1028:.\Generated_Source\PSoC4/CyLib.c **** 
1029:.\Generated_Source\PSoC4/CyLib.c ****     /*******************************************************************************
1030:.\Generated_Source\PSoC4/CyLib.c ****     * Function Name: CySysWdtReadEnabledStatus
1031:.\Generated_Source\PSoC4/CyLib.c ****     ********************************************************************************
1032:.\Generated_Source\PSoC4/CyLib.c ****     *
1033:.\Generated_Source\PSoC4/CyLib.c ****     * Summary:
1034:.\Generated_Source\PSoC4/CyLib.c ****     *  Reads the enabled status of one of the three WDT counters.
1035:.\Generated_Source\PSoC4/CyLib.c ****     *
1036:.\Generated_Source\PSoC4/CyLib.c ****     * Parameters:
1037:.\Generated_Source\PSoC4/CyLib.c ****     *  counterNum: Valid range [0-2].  Number of the WDT counter.
1038:.\Generated_Source\PSoC4/CyLib.c ****     *
1039:.\Generated_Source\PSoC4/CyLib.c ****     * Return:
1040:.\Generated_Source\PSoC4/CyLib.c ****     *  Status of WDT counter:
1041:.\Generated_Source\PSoC4/CyLib.c ****     *   0 - counter is disabled
1042:.\Generated_Source\PSoC4/CyLib.c ****     *   1 - counter is enabled
1043:.\Generated_Source\PSoC4/CyLib.c ****     *
1044:.\Generated_Source\PSoC4/CyLib.c ****     * Side Effects:
1045:.\Generated_Source\PSoC4/CyLib.c ****     *  This function returns actual WDT counter status from status register. It may
1046:.\Generated_Source\PSoC4/CyLib.c ****     *  take up to 3 LFCLK cycles since WDT counter was enabled for WDT status
1047:.\Generated_Source\PSoC4/CyLib.c ****     *  register to contain actual data.
1048:.\Generated_Source\PSoC4/CyLib.c ****     *
1049:.\Generated_Source\PSoC4/CyLib.c ****     *******************************************************************************/
1050:.\Generated_Source\PSoC4/CyLib.c ****     uint32 CySysWdtReadEnabledStatus(uint32 counterNum)
1051:.\Generated_Source\PSoC4/CyLib.c ****     {
 299              		.loc 1 1051 0
 300              		.cfi_startproc
 301              	.LVL12:
1052:.\Generated_Source\PSoC4/CyLib.c ****         CYASSERT(counterNum < CY_SYS_WDT_COUNTERS_MAX);
 302              		.loc 1 1052 0
ARM GAS  C:\Users\syhaines\AppData\Local\Temp\ccXhcYqL.s 			page 25


 303 0000 0228     		cmp	r0, #2
 304 0002 00D9     		bls	.L23
 305              	.LVL13:
 306              	.LBB40:
 307              	.LBB41:
1053:.\Generated_Source\PSoC4/CyLib.c ****         return ((CY_SYS_WDT_CONTROL_REG >> ((CY_SYS_WDT_CNT_SHIFT * counterNum) + CY_SYS_WDT_CNT_ST
1054:.\Generated_Source\PSoC4/CyLib.c ****     }
1055:.\Generated_Source\PSoC4/CyLib.c **** 
1056:.\Generated_Source\PSoC4/CyLib.c **** 
1057:.\Generated_Source\PSoC4/CyLib.c ****     /*******************************************************************************
1058:.\Generated_Source\PSoC4/CyLib.c ****     * Function Name: CySysWdtWriteMode
1059:.\Generated_Source\PSoC4/CyLib.c ****     ********************************************************************************
1060:.\Generated_Source\PSoC4/CyLib.c ****     *
1061:.\Generated_Source\PSoC4/CyLib.c ****     * Summary:
1062:.\Generated_Source\PSoC4/CyLib.c ****     *   Writes the mode of one of the three WDT counters.
1063:.\Generated_Source\PSoC4/CyLib.c ****     *
1064:.\Generated_Source\PSoC4/CyLib.c ****     * Parameters:
1065:.\Generated_Source\PSoC4/CyLib.c ****     *   counterNum: Valid range [0-2].  Number of the WDT counter.
1066:.\Generated_Source\PSoC4/CyLib.c ****     *   mode:       Mode of operation for the counter
1067:.\Generated_Source\PSoC4/CyLib.c ****     *       Define                   Mode
1068:.\Generated_Source\PSoC4/CyLib.c ****     *    CY_SYS_WDT_MODE_NONE       Free running
1069:.\Generated_Source\PSoC4/CyLib.c ****     *    CY_SYS_WDT_MODE_INT        Interrupt generated on match for counter 0
1070:.\Generated_Source\PSoC4/CyLib.c ****     *                               and 1, and on bit toggle for counter 2.
1071:.\Generated_Source\PSoC4/CyLib.c ****     *    CY_SYS_WDT_MODE_RESET      Reset on match (valid for counter 0 and 1
1072:.\Generated_Source\PSoC4/CyLib.c ****     *                               only)
1073:.\Generated_Source\PSoC4/CyLib.c ****     *    CY_SYS_WDT_MODE_INT_RESET  Generate an interrupt.  Generate a reset on
1074:.\Generated_Source\PSoC4/CyLib.c ****     *                                    the 3rd unhandled interrupt.
1075:.\Generated_Source\PSoC4/CyLib.c ****     *                                    (valid for counter 0 and 1 only)
1076:.\Generated_Source\PSoC4/CyLib.c ****     * Return:
1077:.\Generated_Source\PSoC4/CyLib.c ****     *   None
1078:.\Generated_Source\PSoC4/CyLib.c ****     *
1079:.\Generated_Source\PSoC4/CyLib.c ****     * Side Effects:
1080:.\Generated_Source\PSoC4/CyLib.c ****     *   WDT counter counterNum should be disabled to set mode. Otherwise this
1081:.\Generated_Source\PSoC4/CyLib.c ****     *   function call will have no effect. If the specified counter is enabled,
1082:.\Generated_Source\PSoC4/CyLib.c ****     *   call CySysWdtDisable() function with the corresponding parameter to
1083:.\Generated_Source\PSoC4/CyLib.c ****     *   disable specified counter and wait for it to stop.
1084:.\Generated_Source\PSoC4/CyLib.c ****     *
1085:.\Generated_Source\PSoC4/CyLib.c ****     *******************************************************************************/
1086:.\Generated_Source\PSoC4/CyLib.c ****     void CySysWdtWriteMode(uint32 counterNum, uint32 mode)
1087:.\Generated_Source\PSoC4/CyLib.c ****     {
1088:.\Generated_Source\PSoC4/CyLib.c ****         uint32 configRegValue;
1089:.\Generated_Source\PSoC4/CyLib.c **** 
1090:.\Generated_Source\PSoC4/CyLib.c ****         CYASSERT(counterNum < CY_SYS_WDT_COUNTERS_MAX);
1091:.\Generated_Source\PSoC4/CyLib.c **** 
1092:.\Generated_Source\PSoC4/CyLib.c ****         if(0u == CySysWdtReadEnabledStatus(counterNum))
1093:.\Generated_Source\PSoC4/CyLib.c ****         {
1094:.\Generated_Source\PSoC4/CyLib.c ****             configRegValue = CY_SYS_WDT_CONFIG_REG &
1095:.\Generated_Source\PSoC4/CyLib.c ****                                 (uint32)~((uint32)(CY_SYS_WDT_MODE_MASK << (counterNum * CY_SYS_WDT
1096:.\Generated_Source\PSoC4/CyLib.c ****             configRegValue |= (uint32)((mode & CY_SYS_WDT_MODE_MASK) << (counterNum * CY_SYS_WDT_CN
1097:.\Generated_Source\PSoC4/CyLib.c ****             CY_SYS_WDT_CONFIG_REG = configRegValue;
1098:.\Generated_Source\PSoC4/CyLib.c ****         }
1099:.\Generated_Source\PSoC4/CyLib.c ****     }
1100:.\Generated_Source\PSoC4/CyLib.c **** 
1101:.\Generated_Source\PSoC4/CyLib.c **** 
1102:.\Generated_Source\PSoC4/CyLib.c ****     /*******************************************************************************
1103:.\Generated_Source\PSoC4/CyLib.c ****     * Function Name: CySysWdtReadMode
1104:.\Generated_Source\PSoC4/CyLib.c ****     ********************************************************************************
ARM GAS  C:\Users\syhaines\AppData\Local\Temp\ccXhcYqL.s 			page 26


1105:.\Generated_Source\PSoC4/CyLib.c ****     *
1106:.\Generated_Source\PSoC4/CyLib.c ****     * Summary:
1107:.\Generated_Source\PSoC4/CyLib.c ****     *  Reads the mode of one of the three WDT counters.
1108:.\Generated_Source\PSoC4/CyLib.c ****     *
1109:.\Generated_Source\PSoC4/CyLib.c ****     * Parameters:
1110:.\Generated_Source\PSoC4/CyLib.c ****     *  counterNum: Valid range [0-2].  Number of the WDT counter.
1111:.\Generated_Source\PSoC4/CyLib.c ****     *
1112:.\Generated_Source\PSoC4/CyLib.c ****     * Return:
1113:.\Generated_Source\PSoC4/CyLib.c ****     *  Mode of the counter.  Same enumerated values as mode parameter used in
1114:.\Generated_Source\PSoC4/CyLib.c ****     *  CySysWdtWriteMode().
1115:.\Generated_Source\PSoC4/CyLib.c ****     *
1116:.\Generated_Source\PSoC4/CyLib.c ****     *******************************************************************************/
1117:.\Generated_Source\PSoC4/CyLib.c ****     uint32 CySysWdtReadMode(uint32 counterNum)
1118:.\Generated_Source\PSoC4/CyLib.c ****     {
1119:.\Generated_Source\PSoC4/CyLib.c ****         return ((CY_SYS_WDT_CONFIG_REG >> (counterNum * CY_SYS_WDT_CNT_SHIFT)) & CY_SYS_WDT_MODE_MA
1120:.\Generated_Source\PSoC4/CyLib.c ****     }
1121:.\Generated_Source\PSoC4/CyLib.c **** 
1122:.\Generated_Source\PSoC4/CyLib.c **** 
1123:.\Generated_Source\PSoC4/CyLib.c ****     /*******************************************************************************
1124:.\Generated_Source\PSoC4/CyLib.c ****     * Function Name: CySysWdtWriteClearOnMatch
1125:.\Generated_Source\PSoC4/CyLib.c ****     ********************************************************************************
1126:.\Generated_Source\PSoC4/CyLib.c ****     *
1127:.\Generated_Source\PSoC4/CyLib.c ****     * Summary:
1128:.\Generated_Source\PSoC4/CyLib.c ****     *  Configures the WDT counter clear on a match setting.  If configured to clear
1129:.\Generated_Source\PSoC4/CyLib.c ****     *  on match, the counter will count from 0 to the MatchValue giving it a
1130:.\Generated_Source\PSoC4/CyLib.c ****     *  period of (MatchValue + 1).
1131:.\Generated_Source\PSoC4/CyLib.c ****     *
1132:.\Generated_Source\PSoC4/CyLib.c ****     * Parameters:
1133:.\Generated_Source\PSoC4/CyLib.c ****     *  counterNum:
1134:.\Generated_Source\PSoC4/CyLib.c ****     *   Valid range [0-1].  Number of the WDT counter.  Match values are not
1135:.\Generated_Source\PSoC4/CyLib.c ****     *   supported by counter 2.
1136:.\Generated_Source\PSoC4/CyLib.c ****     *
1137:.\Generated_Source\PSoC4/CyLib.c ****     * enable:
1138:.\Generated_Source\PSoC4/CyLib.c ****     *   0 to disable, 1 to enable
1139:.\Generated_Source\PSoC4/CyLib.c ****     *
1140:.\Generated_Source\PSoC4/CyLib.c ****     * Return:
1141:.\Generated_Source\PSoC4/CyLib.c ****     *   None
1142:.\Generated_Source\PSoC4/CyLib.c ****     *
1143:.\Generated_Source\PSoC4/CyLib.c ****     * Side Effects:
1144:.\Generated_Source\PSoC4/CyLib.c ****     *   WDT counter counterNum should be disabled. Otherwise this function call will
1145:.\Generated_Source\PSoC4/CyLib.c ****     *   have no effect. If the specified counter is enabled, call CySysWdtDisable()
1146:.\Generated_Source\PSoC4/CyLib.c ****     *   function with the corresponding parameter to disable specified counter and
1147:.\Generated_Source\PSoC4/CyLib.c ****     *   wait for it to stop. This may take up to three LFCLK cycles.
1148:.\Generated_Source\PSoC4/CyLib.c ****     *
1149:.\Generated_Source\PSoC4/CyLib.c ****     *******************************************************************************/
1150:.\Generated_Source\PSoC4/CyLib.c ****     void CySysWdtWriteClearOnMatch(uint32 counterNum, uint32 enable)
1151:.\Generated_Source\PSoC4/CyLib.c ****     {
1152:.\Generated_Source\PSoC4/CyLib.c ****         uint32 configRegValue;
1153:.\Generated_Source\PSoC4/CyLib.c **** 
1154:.\Generated_Source\PSoC4/CyLib.c ****         CYASSERT((counterNum == CY_SYS_WDT_COUNTER0) ||
1155:.\Generated_Source\PSoC4/CyLib.c ****                  (counterNum == CY_SYS_WDT_COUNTER1));
1156:.\Generated_Source\PSoC4/CyLib.c **** 
1157:.\Generated_Source\PSoC4/CyLib.c ****         if(0u == CySysWdtReadEnabledStatus(counterNum))
1158:.\Generated_Source\PSoC4/CyLib.c ****         {
1159:.\Generated_Source\PSoC4/CyLib.c ****             configRegValue = CY_SYS_WDT_CONFIG_REG &
1160:.\Generated_Source\PSoC4/CyLib.c ****                 (uint32)~((uint32)((uint32)1u << ((counterNum * CY_SYS_WDT_CNT_SHIFT) + CY_SYS_WDT_
1161:.\Generated_Source\PSoC4/CyLib.c **** 
ARM GAS  C:\Users\syhaines\AppData\Local\Temp\ccXhcYqL.s 			page 27


1162:.\Generated_Source\PSoC4/CyLib.c ****             configRegValue
1163:.\Generated_Source\PSoC4/CyLib.c ****                 |= (uint32)(enable << ((counterNum * CY_SYS_WDT_CNT_SHIFT) + CY_SYS_WDT_CNT_MATCH_C
1164:.\Generated_Source\PSoC4/CyLib.c **** 
1165:.\Generated_Source\PSoC4/CyLib.c ****             CY_SYS_WDT_CONFIG_REG = configRegValue;
1166:.\Generated_Source\PSoC4/CyLib.c ****         }
1167:.\Generated_Source\PSoC4/CyLib.c ****     }
1168:.\Generated_Source\PSoC4/CyLib.c **** 
1169:.\Generated_Source\PSoC4/CyLib.c **** 
1170:.\Generated_Source\PSoC4/CyLib.c ****     /*******************************************************************************
1171:.\Generated_Source\PSoC4/CyLib.c ****     * Function Name: CySysWdtReadClearOnMatch
1172:.\Generated_Source\PSoC4/CyLib.c ****     ********************************************************************************
1173:.\Generated_Source\PSoC4/CyLib.c ****     *
1174:.\Generated_Source\PSoC4/CyLib.c ****     * Summary:
1175:.\Generated_Source\PSoC4/CyLib.c ****     *  Reads the clear on match setting for the specified counter.
1176:.\Generated_Source\PSoC4/CyLib.c ****     *
1177:.\Generated_Source\PSoC4/CyLib.c ****     * Parameters:
1178:.\Generated_Source\PSoC4/CyLib.c ****     *   counterNum: Valid range [0-1].  Number of the WDT counter.  Match values are
1179:.\Generated_Source\PSoC4/CyLib.c ****     *               not supported by counter 2.
1180:.\Generated_Source\PSoC4/CyLib.c ****     *
1181:.\Generated_Source\PSoC4/CyLib.c ****     * Return:
1182:.\Generated_Source\PSoC4/CyLib.c ****     *   Clear on Match status: 1 if enabled, 0 if disabled
1183:.\Generated_Source\PSoC4/CyLib.c ****     *
1184:.\Generated_Source\PSoC4/CyLib.c ****     *******************************************************************************/
1185:.\Generated_Source\PSoC4/CyLib.c ****     uint32 CySysWdtReadClearOnMatch(uint32 counterNum)
1186:.\Generated_Source\PSoC4/CyLib.c ****     {
1187:.\Generated_Source\PSoC4/CyLib.c ****         CYASSERT((counterNum == CY_SYS_WDT_COUNTER0) ||
1188:.\Generated_Source\PSoC4/CyLib.c ****                  (counterNum == CY_SYS_WDT_COUNTER1));
1189:.\Generated_Source\PSoC4/CyLib.c **** 
1190:.\Generated_Source\PSoC4/CyLib.c ****         return (uint32)((CY_SYS_WDT_CONFIG_REG >>
1191:.\Generated_Source\PSoC4/CyLib.c ****                         ((counterNum * CY_SYS_WDT_CNT_SHIFT) + CY_SYS_WDT_CNT_MATCH_CLR_SHIFT)) & 0
1192:.\Generated_Source\PSoC4/CyLib.c ****     }
1193:.\Generated_Source\PSoC4/CyLib.c **** 
1194:.\Generated_Source\PSoC4/CyLib.c **** 
1195:.\Generated_Source\PSoC4/CyLib.c ****     /*******************************************************************************
1196:.\Generated_Source\PSoC4/CyLib.c ****     * Function Name: CySysWdtEnable
1197:.\Generated_Source\PSoC4/CyLib.c ****     ********************************************************************************
1198:.\Generated_Source\PSoC4/CyLib.c ****     *
1199:.\Generated_Source\PSoC4/CyLib.c ****     * Summary:
1200:.\Generated_Source\PSoC4/CyLib.c ****     *  Enables the specified WDT counters.  All the counters specified in the mask are
1201:.\Generated_Source\PSoC4/CyLib.c ****     *  enabled.
1202:.\Generated_Source\PSoC4/CyLib.c ****     *
1203:.\Generated_Source\PSoC4/CyLib.c ****     * Parameters:
1204:.\Generated_Source\PSoC4/CyLib.c ****     *  counterMask: Mask of all counters to enable
1205:.\Generated_Source\PSoC4/CyLib.c ****     *       Define                       Counter
1206:.\Generated_Source\PSoC4/CyLib.c ****     *      CY_SYS_WDT_COUNTER0_MASK      0
1207:.\Generated_Source\PSoC4/CyLib.c ****     *      CY_SYS_WDT_COUNTER1_MASK      1
1208:.\Generated_Source\PSoC4/CyLib.c ****     *      CY_SYS_WDT_COUNTER2_MASK      2
1209:.\Generated_Source\PSoC4/CyLib.c ****     *
1210:.\Generated_Source\PSoC4/CyLib.c ****     * Return:
1211:.\Generated_Source\PSoC4/CyLib.c ****     *  None
1212:.\Generated_Source\PSoC4/CyLib.c ****     *
1213:.\Generated_Source\PSoC4/CyLib.c ****     * Side Effects:
1214:.\Generated_Source\PSoC4/CyLib.c ****     *  Enabling or disabling a WDT requires 3 LFCLK cycles to come into effect.
1215:.\Generated_Source\PSoC4/CyLib.c ****     *  Therefore, the WDT enable state must not be changed more than once in
1216:.\Generated_Source\PSoC4/CyLib.c ****     *  that period.
1217:.\Generated_Source\PSoC4/CyLib.c ****     *
1218:.\Generated_Source\PSoC4/CyLib.c ****     *  After WDT is enabled, it is illegal to write WDT configuration (WDT_CONFIG)
ARM GAS  C:\Users\syhaines\AppData\Local\Temp\ccXhcYqL.s 			page 28


1219:.\Generated_Source\PSoC4/CyLib.c ****     *  and control (WDT_CONTROL) registers. That means that all WDT functions that
1220:.\Generated_Source\PSoC4/CyLib.c ****     *  contain 'write' in the name (with the exception of CySysWdtWriteMatch()
1221:.\Generated_Source\PSoC4/CyLib.c ****     *  function) are illegal to call once WDT enabled.
1222:.\Generated_Source\PSoC4/CyLib.c ****     *
1223:.\Generated_Source\PSoC4/CyLib.c ****     *  PSoC 4100 / PSoC 4200:
1224:.\Generated_Source\PSoC4/CyLib.c ****     *  This function enables the ILO.
1225:.\Generated_Source\PSoC4/CyLib.c ****     *
1226:.\Generated_Source\PSoC4/CyLib.c ****     *  PSoC 4100-BL / PSoC 4200-BL:
1227:.\Generated_Source\PSoC4/CyLib.c ****     *  The LFLCK should be configured before calling this function. The desired
1228:.\Generated_Source\PSoC4/CyLib.c ****     *  source should be enabled and configured to be the source for the LFCLK.
1229:.\Generated_Source\PSoC4/CyLib.c ****     *
1230:.\Generated_Source\PSoC4/CyLib.c ****     *******************************************************************************/
1231:.\Generated_Source\PSoC4/CyLib.c ****     void CySysWdtEnable(uint32 counterMask)
1232:.\Generated_Source\PSoC4/CyLib.c ****     {
1233:.\Generated_Source\PSoC4/CyLib.c ****         #if (!CY_IP_WCO)
1234:.\Generated_Source\PSoC4/CyLib.c ****             CySysClkIloStart();
1235:.\Generated_Source\PSoC4/CyLib.c ****         #endif /* (!CY_IP_WCO) */
1236:.\Generated_Source\PSoC4/CyLib.c **** 
1237:.\Generated_Source\PSoC4/CyLib.c ****         CY_SYS_WDT_CONTROL_REG |= counterMask;
1238:.\Generated_Source\PSoC4/CyLib.c **** 
1239:.\Generated_Source\PSoC4/CyLib.c ****         if(0u != (counterMask & CY_SYS_WDT_COUNTER0_MASK))
1240:.\Generated_Source\PSoC4/CyLib.c ****         {
1241:.\Generated_Source\PSoC4/CyLib.c ****             while (0u == CySysWdtReadEnabledStatus(CY_SYS_WDT_COUNTER0))
1242:.\Generated_Source\PSoC4/CyLib.c ****             {
1243:.\Generated_Source\PSoC4/CyLib.c ****                 /* Wait for the changes to come into effect */
1244:.\Generated_Source\PSoC4/CyLib.c ****             }
1245:.\Generated_Source\PSoC4/CyLib.c ****         }
1246:.\Generated_Source\PSoC4/CyLib.c **** 
1247:.\Generated_Source\PSoC4/CyLib.c ****         if(0u != (counterMask & CY_SYS_WDT_COUNTER1_MASK))
1248:.\Generated_Source\PSoC4/CyLib.c ****         {
1249:.\Generated_Source\PSoC4/CyLib.c ****             while (0u == CySysWdtReadEnabledStatus(CY_SYS_WDT_COUNTER1))
1250:.\Generated_Source\PSoC4/CyLib.c ****             {
1251:.\Generated_Source\PSoC4/CyLib.c ****                 /* Wait for the changes to come into effect */
1252:.\Generated_Source\PSoC4/CyLib.c ****             }
1253:.\Generated_Source\PSoC4/CyLib.c ****         }
1254:.\Generated_Source\PSoC4/CyLib.c **** 
1255:.\Generated_Source\PSoC4/CyLib.c ****         if(0u != (counterMask & CY_SYS_WDT_COUNTER2_MASK))
1256:.\Generated_Source\PSoC4/CyLib.c ****         {
1257:.\Generated_Source\PSoC4/CyLib.c ****             while (0u == CySysWdtReadEnabledStatus(CY_SYS_WDT_COUNTER2))
1258:.\Generated_Source\PSoC4/CyLib.c ****             {
1259:.\Generated_Source\PSoC4/CyLib.c ****                 /* Wait for the changes to come into effect */
1260:.\Generated_Source\PSoC4/CyLib.c ****             }
1261:.\Generated_Source\PSoC4/CyLib.c ****         }
1262:.\Generated_Source\PSoC4/CyLib.c ****     }
1263:.\Generated_Source\PSoC4/CyLib.c **** 
1264:.\Generated_Source\PSoC4/CyLib.c **** 
1265:.\Generated_Source\PSoC4/CyLib.c ****     /*******************************************************************************
1266:.\Generated_Source\PSoC4/CyLib.c ****     * Function Name: CySysWdtDisable
1267:.\Generated_Source\PSoC4/CyLib.c ****     ********************************************************************************
1268:.\Generated_Source\PSoC4/CyLib.c ****     *
1269:.\Generated_Source\PSoC4/CyLib.c ****     * Summary:
1270:.\Generated_Source\PSoC4/CyLib.c ****     *  Disables the specified WDT counters. All the counters specified in the mask
1271:.\Generated_Source\PSoC4/CyLib.c ****     *  are disabled. The function waits for the changes to come into effect.
1272:.\Generated_Source\PSoC4/CyLib.c ****     *
1273:.\Generated_Source\PSoC4/CyLib.c ****     * Parameters:
1274:.\Generated_Source\PSoC4/CyLib.c ****     *  uint32 counterMask: Mask of all counters to disable
1275:.\Generated_Source\PSoC4/CyLib.c ****     *    Define                       Counter
ARM GAS  C:\Users\syhaines\AppData\Local\Temp\ccXhcYqL.s 			page 29


1276:.\Generated_Source\PSoC4/CyLib.c ****     *   CY_SYS_WDT_COUNTER0_MASK      0
1277:.\Generated_Source\PSoC4/CyLib.c ****     *   CY_SYS_WDT_COUNTER1_MASK      1
1278:.\Generated_Source\PSoC4/CyLib.c ****     *   CY_SYS_WDT_COUNTER2_MASK      2
1279:.\Generated_Source\PSoC4/CyLib.c ****     *
1280:.\Generated_Source\PSoC4/CyLib.c ****     * Return:
1281:.\Generated_Source\PSoC4/CyLib.c ****     *   None
1282:.\Generated_Source\PSoC4/CyLib.c ****     *
1283:.\Generated_Source\PSoC4/CyLib.c ****     *******************************************************************************/
1284:.\Generated_Source\PSoC4/CyLib.c ****     void CySysWdtDisable(uint32 counterMask)
1285:.\Generated_Source\PSoC4/CyLib.c ****     {
1286:.\Generated_Source\PSoC4/CyLib.c ****         CY_SYS_WDT_CONTROL_REG &= ~counterMask;
1287:.\Generated_Source\PSoC4/CyLib.c **** 
1288:.\Generated_Source\PSoC4/CyLib.c ****         if(0u != (counterMask & CY_SYS_WDT_COUNTER0_MASK))
1289:.\Generated_Source\PSoC4/CyLib.c ****         {
1290:.\Generated_Source\PSoC4/CyLib.c ****             while (0u != CySysWdtReadEnabledStatus(CY_SYS_WDT_COUNTER0))
1291:.\Generated_Source\PSoC4/CyLib.c ****             {
1292:.\Generated_Source\PSoC4/CyLib.c ****                 /* Wait for the changes to come into effect */
1293:.\Generated_Source\PSoC4/CyLib.c ****             }
1294:.\Generated_Source\PSoC4/CyLib.c ****         }
1295:.\Generated_Source\PSoC4/CyLib.c **** 
1296:.\Generated_Source\PSoC4/CyLib.c ****         if(0u != (counterMask & CY_SYS_WDT_COUNTER1_MASK))
1297:.\Generated_Source\PSoC4/CyLib.c ****         {
1298:.\Generated_Source\PSoC4/CyLib.c ****             while (0u != CySysWdtReadEnabledStatus(CY_SYS_WDT_COUNTER1))
1299:.\Generated_Source\PSoC4/CyLib.c ****             {
1300:.\Generated_Source\PSoC4/CyLib.c ****                 /* Wait for the changes to come into effect */
1301:.\Generated_Source\PSoC4/CyLib.c ****             }
1302:.\Generated_Source\PSoC4/CyLib.c ****         }
1303:.\Generated_Source\PSoC4/CyLib.c **** 
1304:.\Generated_Source\PSoC4/CyLib.c ****         if(0u != (counterMask & CY_SYS_WDT_COUNTER2_MASK))
1305:.\Generated_Source\PSoC4/CyLib.c ****         {
1306:.\Generated_Source\PSoC4/CyLib.c ****             while (0u != CySysWdtReadEnabledStatus(CY_SYS_WDT_COUNTER2))
1307:.\Generated_Source\PSoC4/CyLib.c ****             {
1308:.\Generated_Source\PSoC4/CyLib.c ****                 /* Wait for the changes to come into effect */
1309:.\Generated_Source\PSoC4/CyLib.c ****             }
1310:.\Generated_Source\PSoC4/CyLib.c ****         }
1311:.\Generated_Source\PSoC4/CyLib.c ****     }
1312:.\Generated_Source\PSoC4/CyLib.c **** 
1313:.\Generated_Source\PSoC4/CyLib.c **** 
1314:.\Generated_Source\PSoC4/CyLib.c ****     /*******************************************************************************
1315:.\Generated_Source\PSoC4/CyLib.c ****     * Function Name: CySysWdtWriteCascade
1316:.\Generated_Source\PSoC4/CyLib.c ****     ********************************************************************************
1317:.\Generated_Source\PSoC4/CyLib.c ****     *
1318:.\Generated_Source\PSoC4/CyLib.c ****     * Summary:
1319:.\Generated_Source\PSoC4/CyLib.c ****     *   Writes the two WDT cascade values based on the combination of mask values
1320:.\Generated_Source\PSoC4/CyLib.c ****     *   specified.
1321:.\Generated_Source\PSoC4/CyLib.c ****     *
1322:.\Generated_Source\PSoC4/CyLib.c ****     * Parameters:
1323:.\Generated_Source\PSoC4/CyLib.c ****     *   cascadeMask: Mask value used to set or clear the cascade values.
1324:.\Generated_Source\PSoC4/CyLib.c ****     *   Define                     Cascade
1325:.\Generated_Source\PSoC4/CyLib.c ****     *   CY_SYS_WDT_CASCADE_NONE    Neither
1326:.\Generated_Source\PSoC4/CyLib.c ****     *   CY_SYS_WDT_CASCADE_01      Cascade 01
1327:.\Generated_Source\PSoC4/CyLib.c ****     *   CY_SYS_WDT_CASCADE_12      Cascade 12
1328:.\Generated_Source\PSoC4/CyLib.c ****     *
1329:.\Generated_Source\PSoC4/CyLib.c ****     *   To set both cascade modes, two defines should be ORed:
1330:.\Generated_Source\PSoC4/CyLib.c ****     *   (CY_SYS_WDT_CASCADE_01 | CY_SYS_WDT_CASCADE_12)
1331:.\Generated_Source\PSoC4/CyLib.c ****     *
1332:.\Generated_Source\PSoC4/CyLib.c ****     * Return:
ARM GAS  C:\Users\syhaines\AppData\Local\Temp\ccXhcYqL.s 			page 30


1333:.\Generated_Source\PSoC4/CyLib.c ****     *   None
1334:.\Generated_Source\PSoC4/CyLib.c ****     *
1335:.\Generated_Source\PSoC4/CyLib.c ****     * Side effects:
1336:.\Generated_Source\PSoC4/CyLib.c ****     *   If only one cascade mask is specified, the second cascade is disabled.
1337:.\Generated_Source\PSoC4/CyLib.c ****     *   To set both cascade modes two defines should be ORed:
1338:.\Generated_Source\PSoC4/CyLib.c ****     *    (CY_SYS_WDT_CASCADE_01 | CY_SYS_WDT_CASCADE_12).
1339:.\Generated_Source\PSoC4/CyLib.c ****     *
1340:.\Generated_Source\PSoC4/CyLib.c ****     *   WDT counters that are part of the specified cascade, should be disabled.
1341:.\Generated_Source\PSoC4/CyLib.c ****     *   Otherwise this function call will have no effect. If the specified
1342:.\Generated_Source\PSoC4/CyLib.c ****     *   counter is enabled, call CySysWdtDisable() function with the corresponding
1343:.\Generated_Source\PSoC4/CyLib.c ****     *   parameter to disable specified counter and wait for it to stop. This may
1344:.\Generated_Source\PSoC4/CyLib.c ****     *   take up to 3 LFCLK cycles.
1345:.\Generated_Source\PSoC4/CyLib.c ****     *
1346:.\Generated_Source\PSoC4/CyLib.c ****     *******************************************************************************/
1347:.\Generated_Source\PSoC4/CyLib.c ****     void CySysWdtWriteCascade(uint32 cascadeMask)
1348:.\Generated_Source\PSoC4/CyLib.c ****     {
1349:.\Generated_Source\PSoC4/CyLib.c ****         uint32 configRegValue;
1350:.\Generated_Source\PSoC4/CyLib.c ****         uint32 countersEnableStatus;
1351:.\Generated_Source\PSoC4/CyLib.c **** 
1352:.\Generated_Source\PSoC4/CyLib.c ****         countersEnableStatus = CySysWdtReadEnabledStatus(CY_SYS_WDT_COUNTER0) |
1353:.\Generated_Source\PSoC4/CyLib.c ****                             CySysWdtReadEnabledStatus(CY_SYS_WDT_COUNTER1) |
1354:.\Generated_Source\PSoC4/CyLib.c ****                             CySysWdtReadEnabledStatus(CY_SYS_WDT_COUNTER2);
1355:.\Generated_Source\PSoC4/CyLib.c **** 
1356:.\Generated_Source\PSoC4/CyLib.c ****         if (0u == countersEnableStatus)
1357:.\Generated_Source\PSoC4/CyLib.c ****         {
1358:.\Generated_Source\PSoC4/CyLib.c ****             configRegValue = CY_SYS_WDT_CONFIG_REG;
1359:.\Generated_Source\PSoC4/CyLib.c ****             configRegValue &= ((uint32)(~(CY_SYS_WDT_CASCADE_01|CY_SYS_WDT_CASCADE_12)));
1360:.\Generated_Source\PSoC4/CyLib.c ****             configRegValue |= cascadeMask;
1361:.\Generated_Source\PSoC4/CyLib.c ****             CY_SYS_WDT_CONFIG_REG = configRegValue;
1362:.\Generated_Source\PSoC4/CyLib.c ****         }
1363:.\Generated_Source\PSoC4/CyLib.c ****     }
1364:.\Generated_Source\PSoC4/CyLib.c **** 
1365:.\Generated_Source\PSoC4/CyLib.c **** 
1366:.\Generated_Source\PSoC4/CyLib.c ****     /*******************************************************************************
1367:.\Generated_Source\PSoC4/CyLib.c ****     * Function Name: CySysWdtReadCascade
1368:.\Generated_Source\PSoC4/CyLib.c ****     ********************************************************************************
1369:.\Generated_Source\PSoC4/CyLib.c ****     *
1370:.\Generated_Source\PSoC4/CyLib.c ****     * Summary:
1371:.\Generated_Source\PSoC4/CyLib.c ****     *   Reads the two WDT cascade values returning a mask of the bits set.
1372:.\Generated_Source\PSoC4/CyLib.c ****     *
1373:.\Generated_Source\PSoC4/CyLib.c ****     * Parameters:
1374:.\Generated_Source\PSoC4/CyLib.c ****     *   None
1375:.\Generated_Source\PSoC4/CyLib.c ****     *
1376:.\Generated_Source\PSoC4/CyLib.c ****     * Return:
1377:.\Generated_Source\PSoC4/CyLib.c ****     *   Mask of cascade values set.
1378:.\Generated_Source\PSoC4/CyLib.c ****     *   Define                     Cascade
1379:.\Generated_Source\PSoC4/CyLib.c ****     *   CY_SYS_WDT_CASCADE_NONE    Neither
1380:.\Generated_Source\PSoC4/CyLib.c ****     *   CY_SYS_WDT_CASCADE_01      Cascade 01
1381:.\Generated_Source\PSoC4/CyLib.c ****     *   CY_SYS_WDT_CASCADE_12      Cascade 12
1382:.\Generated_Source\PSoC4/CyLib.c ****     *
1383:.\Generated_Source\PSoC4/CyLib.c ****     *******************************************************************************/
1384:.\Generated_Source\PSoC4/CyLib.c ****     uint32 CySysWdtReadCascade(void)
1385:.\Generated_Source\PSoC4/CyLib.c ****     {
1386:.\Generated_Source\PSoC4/CyLib.c ****         return (CY_SYS_WDT_CONFIG_REG & (CY_SYS_WDT_CASCADE_01 | CY_SYS_WDT_CASCADE_12));
1387:.\Generated_Source\PSoC4/CyLib.c ****     }
1388:.\Generated_Source\PSoC4/CyLib.c **** 
1389:.\Generated_Source\PSoC4/CyLib.c **** 
ARM GAS  C:\Users\syhaines\AppData\Local\Temp\ccXhcYqL.s 			page 31


1390:.\Generated_Source\PSoC4/CyLib.c ****     /*******************************************************************************
1391:.\Generated_Source\PSoC4/CyLib.c ****     * Function Name: CySysWdtWriteMatch
1392:.\Generated_Source\PSoC4/CyLib.c ****     ********************************************************************************
1393:.\Generated_Source\PSoC4/CyLib.c ****     *
1394:.\Generated_Source\PSoC4/CyLib.c ****     * Summary:
1395:.\Generated_Source\PSoC4/CyLib.c ****     *  Configures the WDT counter match comparison value.
1396:.\Generated_Source\PSoC4/CyLib.c ****     *
1397:.\Generated_Source\PSoC4/CyLib.c ****     * Parameters:
1398:.\Generated_Source\PSoC4/CyLib.c ****     *  counterNum:
1399:.\Generated_Source\PSoC4/CyLib.c ****     *   Valid range [0-1]. Number of the WDT counter. Match values are not
1400:.\Generated_Source\PSoC4/CyLib.c ****     *   supported by counter 2.
1401:.\Generated_Source\PSoC4/CyLib.c ****     *
1402:.\Generated_Source\PSoC4/CyLib.c ****     *  match:
1403:.\Generated_Source\PSoC4/CyLib.c ****     *   Valid range [0-65535]. Value to be used to match against the counter.
1404:.\Generated_Source\PSoC4/CyLib.c ****     *
1405:.\Generated_Source\PSoC4/CyLib.c ****     * Return:
1406:.\Generated_Source\PSoC4/CyLib.c ****     *   None
1407:.\Generated_Source\PSoC4/CyLib.c ****     *
1408:.\Generated_Source\PSoC4/CyLib.c ****     *******************************************************************************/
1409:.\Generated_Source\PSoC4/CyLib.c ****     void CySysWdtWriteMatch(uint32 counterNum, uint32 match)
1410:.\Generated_Source\PSoC4/CyLib.c ****     {
1411:.\Generated_Source\PSoC4/CyLib.c ****         uint32 regValue;
1412:.\Generated_Source\PSoC4/CyLib.c **** 
1413:.\Generated_Source\PSoC4/CyLib.c ****         CYASSERT((counterNum == CY_SYS_WDT_COUNTER0) ||
1414:.\Generated_Source\PSoC4/CyLib.c ****                  (counterNum == CY_SYS_WDT_COUNTER1));
1415:.\Generated_Source\PSoC4/CyLib.c **** 
1416:.\Generated_Source\PSoC4/CyLib.c ****         /* Wait for the previous changes to come into effect */
1417:.\Generated_Source\PSoC4/CyLib.c ****         CyDelayUs(CY_SYS_WDT_3LFCLK_DELAY_US);
1418:.\Generated_Source\PSoC4/CyLib.c **** 
1419:.\Generated_Source\PSoC4/CyLib.c ****         regValue = CY_SYS_WDT_MATCH_REG;
1420:.\Generated_Source\PSoC4/CyLib.c ****         regValue &= (uint32)~((uint32)(CY_SYS_WDT_LOWER_16BITS_MASK << (counterNum * CY_SYS_WDT_CNT
1421:.\Generated_Source\PSoC4/CyLib.c ****         CY_SYS_WDT_MATCH_REG = (regValue | (match << (counterNum * CY_SYS_WDT_CNT_MATCH_SHIFT)));
1422:.\Generated_Source\PSoC4/CyLib.c **** 
1423:.\Generated_Source\PSoC4/CyLib.c ****         /* Make sure the match synchronization started */
1424:.\Generated_Source\PSoC4/CyLib.c ****         CyDelayUs(CY_SYS_WDT_1LFCLK_DELAY_US);
1425:.\Generated_Source\PSoC4/CyLib.c ****     }
1426:.\Generated_Source\PSoC4/CyLib.c **** 
1427:.\Generated_Source\PSoC4/CyLib.c **** 
1428:.\Generated_Source\PSoC4/CyLib.c ****     /*******************************************************************************
1429:.\Generated_Source\PSoC4/CyLib.c ****     * Function Name: CySysWdtWriteToggleBit
1430:.\Generated_Source\PSoC4/CyLib.c ****     ********************************************************************************
1431:.\Generated_Source\PSoC4/CyLib.c ****     *
1432:.\Generated_Source\PSoC4/CyLib.c ****     * Summary:
1433:.\Generated_Source\PSoC4/CyLib.c ****     *  Configures which bit in the WDT counter 2 to monitor for a toggle. When that
1434:.\Generated_Source\PSoC4/CyLib.c ****     *  bit toggles, an interrupt is generated if the mode for counter 2 has
1435:.\Generated_Source\PSoC4/CyLib.c ****     *  interrupts enabled.
1436:.\Generated_Source\PSoC4/CyLib.c ****     *
1437:.\Generated_Source\PSoC4/CyLib.c ****     * Parameters:
1438:.\Generated_Source\PSoC4/CyLib.c ****     *  bit:
1439:.\Generated_Source\PSoC4/CyLib.c ****     *   Valid range [0-31].  Counter 2 bit to monitor for a toggle.
1440:.\Generated_Source\PSoC4/CyLib.c ****     *
1441:.\Generated_Source\PSoC4/CyLib.c ****     * Return:
1442:.\Generated_Source\PSoC4/CyLib.c ****     *   None
1443:.\Generated_Source\PSoC4/CyLib.c ****     *
1444:.\Generated_Source\PSoC4/CyLib.c ****     * Side effects:
1445:.\Generated_Source\PSoC4/CyLib.c ****     *   WDT Counter 2 should be disabled. Otherwise this function call will have no
1446:.\Generated_Source\PSoC4/CyLib.c ****     *   effect.
ARM GAS  C:\Users\syhaines\AppData\Local\Temp\ccXhcYqL.s 			page 32


1447:.\Generated_Source\PSoC4/CyLib.c ****     *
1448:.\Generated_Source\PSoC4/CyLib.c ****     *   If the specified counter is enabled, call CySysWdtDisable() function with
1449:.\Generated_Source\PSoC4/CyLib.c ****     *   the corresponding parameter to disable specified counter and wait for it to
1450:.\Generated_Source\PSoC4/CyLib.c ****     *   stop. This may take up to 3 LFCLK cycles.
1451:.\Generated_Source\PSoC4/CyLib.c ****     *
1452:.\Generated_Source\PSoC4/CyLib.c ****     *******************************************************************************/
1453:.\Generated_Source\PSoC4/CyLib.c ****     void CySysWdtWriteToggleBit(uint32 bits)
1454:.\Generated_Source\PSoC4/CyLib.c ****     {
1455:.\Generated_Source\PSoC4/CyLib.c ****         uint32 configRegValue;
1456:.\Generated_Source\PSoC4/CyLib.c **** 
1457:.\Generated_Source\PSoC4/CyLib.c ****         if (0u == CySysWdtReadEnabledStatus(CY_SYS_WDT_COUNTER2))
1458:.\Generated_Source\PSoC4/CyLib.c ****         {
1459:.\Generated_Source\PSoC4/CyLib.c ****             configRegValue = CY_SYS_WDT_CONFIG_REG;
1460:.\Generated_Source\PSoC4/CyLib.c ****             configRegValue &= (uint32)(~((uint32)(CY_SYS_WDT_CONFIG_BITS2_MASK << CY_SYS_WDT_CONFIG
1461:.\Generated_Source\PSoC4/CyLib.c ****             configRegValue |= ((bits & CY_SYS_WDT_CONFIG_BITS2_MASK) << CY_SYS_WDT_CONFIG_BITS2_POS
1462:.\Generated_Source\PSoC4/CyLib.c ****             CY_SYS_WDT_CONFIG_REG = configRegValue;
1463:.\Generated_Source\PSoC4/CyLib.c ****         }
1464:.\Generated_Source\PSoC4/CyLib.c ****     }
1465:.\Generated_Source\PSoC4/CyLib.c **** 
1466:.\Generated_Source\PSoC4/CyLib.c **** 
1467:.\Generated_Source\PSoC4/CyLib.c ****     /*******************************************************************************
1468:.\Generated_Source\PSoC4/CyLib.c ****     * Function Name: CySysWdtReadToggleBit
1469:.\Generated_Source\PSoC4/CyLib.c ****     ********************************************************************************
1470:.\Generated_Source\PSoC4/CyLib.c ****     *
1471:.\Generated_Source\PSoC4/CyLib.c ****     * Summary:
1472:.\Generated_Source\PSoC4/CyLib.c ****     *  Reads which bit in the WDT counter 2 is monitored for a toggle.
1473:.\Generated_Source\PSoC4/CyLib.c ****     *
1474:.\Generated_Source\PSoC4/CyLib.c ****     * Parameters:
1475:.\Generated_Source\PSoC4/CyLib.c ****     *  None
1476:.\Generated_Source\PSoC4/CyLib.c ****     *
1477:.\Generated_Source\PSoC4/CyLib.c ****     * Return:
1478:.\Generated_Source\PSoC4/CyLib.c ****     *  The bit that is monitored (range of 0 to 31)
1479:.\Generated_Source\PSoC4/CyLib.c ****     *
1480:.\Generated_Source\PSoC4/CyLib.c ****     *******************************************************************************/
1481:.\Generated_Source\PSoC4/CyLib.c ****     uint32 CySysWdtReadToggleBit(void)
1482:.\Generated_Source\PSoC4/CyLib.c ****     {
1483:.\Generated_Source\PSoC4/CyLib.c ****         return ((CY_SYS_WDT_CONFIG_REG >> CY_SYS_WDT_CONFIG_BITS2_POS) & CY_SYS_WDT_CONFIG_BITS2_MA
1484:.\Generated_Source\PSoC4/CyLib.c ****     }
1485:.\Generated_Source\PSoC4/CyLib.c **** 
1486:.\Generated_Source\PSoC4/CyLib.c **** 
1487:.\Generated_Source\PSoC4/CyLib.c ****     /*******************************************************************************
1488:.\Generated_Source\PSoC4/CyLib.c ****     * Function Name: CySysWdtReadMatch
1489:.\Generated_Source\PSoC4/CyLib.c ****     ********************************************************************************
1490:.\Generated_Source\PSoC4/CyLib.c ****     *
1491:.\Generated_Source\PSoC4/CyLib.c ****     * Summary:
1492:.\Generated_Source\PSoC4/CyLib.c ****     *  Reads the WDT counter match comparison value.
1493:.\Generated_Source\PSoC4/CyLib.c ****     *
1494:.\Generated_Source\PSoC4/CyLib.c ****     * Parameters:
1495:.\Generated_Source\PSoC4/CyLib.c ****     *  counterNum: Valid range [0-1].  Number of the WDT counter.  Match values
1496:.\Generated_Source\PSoC4/CyLib.c ****     *               are not supported by counter 2.
1497:.\Generated_Source\PSoC4/CyLib.c ****     *
1498:.\Generated_Source\PSoC4/CyLib.c ****     * Return:
1499:.\Generated_Source\PSoC4/CyLib.c ****     *  16-bit match value.
1500:.\Generated_Source\PSoC4/CyLib.c ****     *
1501:.\Generated_Source\PSoC4/CyLib.c ****     *******************************************************************************/
1502:.\Generated_Source\PSoC4/CyLib.c ****     uint32 CySysWdtReadMatch(uint32 counterNum)
1503:.\Generated_Source\PSoC4/CyLib.c ****     {
ARM GAS  C:\Users\syhaines\AppData\Local\Temp\ccXhcYqL.s 			page 33


1504:.\Generated_Source\PSoC4/CyLib.c ****         CYASSERT((counterNum == CY_SYS_WDT_COUNTER0) ||
1505:.\Generated_Source\PSoC4/CyLib.c ****                  (counterNum == CY_SYS_WDT_COUNTER1));
1506:.\Generated_Source\PSoC4/CyLib.c **** 
1507:.\Generated_Source\PSoC4/CyLib.c ****         return ((uint32)(CY_SYS_WDT_MATCH_REG >> (counterNum * CY_SYS_WDT_CNT_MATCH_SHIFT)) & CY_SY
1508:.\Generated_Source\PSoC4/CyLib.c ****     }
1509:.\Generated_Source\PSoC4/CyLib.c **** 
1510:.\Generated_Source\PSoC4/CyLib.c **** 
1511:.\Generated_Source\PSoC4/CyLib.c ****     /*******************************************************************************
1512:.\Generated_Source\PSoC4/CyLib.c ****     * Function Name: CySysWdtReadCount
1513:.\Generated_Source\PSoC4/CyLib.c ****     ********************************************************************************
1514:.\Generated_Source\PSoC4/CyLib.c ****     *
1515:.\Generated_Source\PSoC4/CyLib.c ****     * Summary:
1516:.\Generated_Source\PSoC4/CyLib.c ****     *  Reads the current WDT counter value.
1517:.\Generated_Source\PSoC4/CyLib.c ****     *
1518:.\Generated_Source\PSoC4/CyLib.c ****     * Parameters:
1519:.\Generated_Source\PSoC4/CyLib.c ****     *  counterNum: Valid range [0-2].  Number of the WDT counter.
1520:.\Generated_Source\PSoC4/CyLib.c ****     *
1521:.\Generated_Source\PSoC4/CyLib.c ****     * Return:
1522:.\Generated_Source\PSoC4/CyLib.c ****     *  Live counter value.  Counter 0 and 1 are 16 bit counters and counter
1523:.\Generated_Source\PSoC4/CyLib.c ****     *  2 is a 32 bit counter.
1524:.\Generated_Source\PSoC4/CyLib.c ****     *
1525:.\Generated_Source\PSoC4/CyLib.c ****     *******************************************************************************/
1526:.\Generated_Source\PSoC4/CyLib.c ****     uint32 CySysWdtReadCount(uint32 counterNum)
1527:.\Generated_Source\PSoC4/CyLib.c ****     {
1528:.\Generated_Source\PSoC4/CyLib.c ****         uint32 regValue = 0u;
1529:.\Generated_Source\PSoC4/CyLib.c **** 
1530:.\Generated_Source\PSoC4/CyLib.c ****         switch(counterNum)
1531:.\Generated_Source\PSoC4/CyLib.c ****         {
1532:.\Generated_Source\PSoC4/CyLib.c ****             /* WDT Counter 0 */
1533:.\Generated_Source\PSoC4/CyLib.c ****             case 0u:
1534:.\Generated_Source\PSoC4/CyLib.c ****                 regValue = CY_SYS_WDT_CTRLOW_REG & CY_SYS_WDT_LOWER_16BITS_MASK;
1535:.\Generated_Source\PSoC4/CyLib.c ****             break;
1536:.\Generated_Source\PSoC4/CyLib.c **** 
1537:.\Generated_Source\PSoC4/CyLib.c ****             /* WDT Counter 1 */
1538:.\Generated_Source\PSoC4/CyLib.c ****             case 1u:
1539:.\Generated_Source\PSoC4/CyLib.c ****                 regValue = (CY_SYS_WDT_CTRLOW_REG >> CY_SYS_WDT_CNT_MATCH_SHIFT) & CY_SYS_WDT_LOWER
1540:.\Generated_Source\PSoC4/CyLib.c ****             break;
1541:.\Generated_Source\PSoC4/CyLib.c **** 
1542:.\Generated_Source\PSoC4/CyLib.c ****             /* WDT Counter 2 */
1543:.\Generated_Source\PSoC4/CyLib.c ****             case 2u:
1544:.\Generated_Source\PSoC4/CyLib.c ****                 regValue = CY_SYS_WDT_CTRHIGH_REG;
1545:.\Generated_Source\PSoC4/CyLib.c ****             break;
1546:.\Generated_Source\PSoC4/CyLib.c **** 
1547:.\Generated_Source\PSoC4/CyLib.c ****             default:
1548:.\Generated_Source\PSoC4/CyLib.c ****                 CYASSERT(0u != 0u);
1549:.\Generated_Source\PSoC4/CyLib.c ****             break;
1550:.\Generated_Source\PSoC4/CyLib.c ****         }
1551:.\Generated_Source\PSoC4/CyLib.c **** 
1552:.\Generated_Source\PSoC4/CyLib.c ****         return (regValue);
1553:.\Generated_Source\PSoC4/CyLib.c ****     }
1554:.\Generated_Source\PSoC4/CyLib.c **** 
1555:.\Generated_Source\PSoC4/CyLib.c **** 
1556:.\Generated_Source\PSoC4/CyLib.c ****     /*******************************************************************************
1557:.\Generated_Source\PSoC4/CyLib.c ****     * Function Name: CySysWdtGetInterruptSource
1558:.\Generated_Source\PSoC4/CyLib.c ****     ********************************************************************************
1559:.\Generated_Source\PSoC4/CyLib.c ****     *
1560:.\Generated_Source\PSoC4/CyLib.c ****     * Summary:
ARM GAS  C:\Users\syhaines\AppData\Local\Temp\ccXhcYqL.s 			page 34


1561:.\Generated_Source\PSoC4/CyLib.c ****     *   Reads a mask containing all the WDT counters interrupts that are currently
1562:.\Generated_Source\PSoC4/CyLib.c ****     *   set by the hardware, if a corresponding mode is selected.
1563:.\Generated_Source\PSoC4/CyLib.c ****     *
1564:.\Generated_Source\PSoC4/CyLib.c ****     * Parameters:
1565:.\Generated_Source\PSoC4/CyLib.c ****     *   None
1566:.\Generated_Source\PSoC4/CyLib.c ****     *
1567:.\Generated_Source\PSoC4/CyLib.c ****     * Return:
1568:.\Generated_Source\PSoC4/CyLib.c ****     *   Mask of interrupts set.
1569:.\Generated_Source\PSoC4/CyLib.c ****     *   Define                    Counter
1570:.\Generated_Source\PSoC4/CyLib.c ****     *   CY_SYS_WDT_COUNTER0_INT    0
1571:.\Generated_Source\PSoC4/CyLib.c ****     *   CY_SYS_WDT_COUNTER1_INT    1
1572:.\Generated_Source\PSoC4/CyLib.c ****     *   CY_SYS_WDT_COUNTER2_INT    2
1573:.\Generated_Source\PSoC4/CyLib.c ****     *
1574:.\Generated_Source\PSoC4/CyLib.c ****     *******************************************************************************/
1575:.\Generated_Source\PSoC4/CyLib.c ****     uint32 CySysWdtGetInterruptSource(void)
1576:.\Generated_Source\PSoC4/CyLib.c ****     {
1577:.\Generated_Source\PSoC4/CyLib.c ****         return (CY_SYS_WDT_CONTROL_REG & (CY_SYS_WDT_COUNTER0_INT | CY_SYS_WDT_COUNTER1_INT | CY_SY
1578:.\Generated_Source\PSoC4/CyLib.c ****     }
1579:.\Generated_Source\PSoC4/CyLib.c **** 
1580:.\Generated_Source\PSoC4/CyLib.c **** 
1581:.\Generated_Source\PSoC4/CyLib.c ****     /*******************************************************************************
1582:.\Generated_Source\PSoC4/CyLib.c ****     * Function Name: CySysWdtClearInterrupt
1583:.\Generated_Source\PSoC4/CyLib.c ****     ********************************************************************************
1584:.\Generated_Source\PSoC4/CyLib.c ****     *
1585:.\Generated_Source\PSoC4/CyLib.c ****     * Summary:
1586:.\Generated_Source\PSoC4/CyLib.c ****     *   Clears all the WDT counter interrupts set in the mask. Calling this function
1587:.\Generated_Source\PSoC4/CyLib.c ****     *   also prevents Reset from happening when the counter mode is set to generate
1588:.\Generated_Source\PSoC4/CyLib.c ****     *   3 interrupts and then reset the device.
1589:.\Generated_Source\PSoC4/CyLib.c ****     *
1590:.\Generated_Source\PSoC4/CyLib.c ****     *   All the WDT interrupts are to be cleared by the firmware, otherwise interrupts
1591:.\Generated_Source\PSoC4/CyLib.c ****     *   will be generated continuously.
1592:.\Generated_Source\PSoC4/CyLib.c ****     *
1593:.\Generated_Source\PSoC4/CyLib.c ****     * Parameters:
1594:.\Generated_Source\PSoC4/CyLib.c ****     *   counterMask: Mask of all counters to enable
1595:.\Generated_Source\PSoC4/CyLib.c ****     *   Define                    Counter
1596:.\Generated_Source\PSoC4/CyLib.c ****     *   CY_SYS_WDT_COUNTER0_INT    0
1597:.\Generated_Source\PSoC4/CyLib.c ****     *   CY_SYS_WDT_COUNTER1_INT    1
1598:.\Generated_Source\PSoC4/CyLib.c ****     *   CY_SYS_WDT_COUNTER2_INT    2
1599:.\Generated_Source\PSoC4/CyLib.c ****     *
1600:.\Generated_Source\PSoC4/CyLib.c ****     * Return:
1601:.\Generated_Source\PSoC4/CyLib.c ****     *   None
1602:.\Generated_Source\PSoC4/CyLib.c ****     *
1603:.\Generated_Source\PSoC4/CyLib.c ****     * Side effects:
1604:.\Generated_Source\PSoC4/CyLib.c ****     *   This function temporary removes the watchdog lock, if it was set, and
1605:.\Generated_Source\PSoC4/CyLib.c ****     *   restores the lock state, after cleaning the WDT interrupts, that are set in
1606:.\Generated_Source\PSoC4/CyLib.c ****     *   a mask.
1607:.\Generated_Source\PSoC4/CyLib.c ****     *
1608:.\Generated_Source\PSoC4/CyLib.c ****     *******************************************************************************/
1609:.\Generated_Source\PSoC4/CyLib.c ****     void CySysWdtClearInterrupt(uint32 counterMask)
1610:.\Generated_Source\PSoC4/CyLib.c ****     {
1611:.\Generated_Source\PSoC4/CyLib.c ****         uint8 interruptState;
1612:.\Generated_Source\PSoC4/CyLib.c ****         uint32 wdtLockState;
1613:.\Generated_Source\PSoC4/CyLib.c **** 
1614:.\Generated_Source\PSoC4/CyLib.c ****         interruptState = CyEnterCriticalSection();
1615:.\Generated_Source\PSoC4/CyLib.c **** 
1616:.\Generated_Source\PSoC4/CyLib.c ****         if (0u != CySysWdtLocked())
1617:.\Generated_Source\PSoC4/CyLib.c ****         {
ARM GAS  C:\Users\syhaines\AppData\Local\Temp\ccXhcYqL.s 			page 35


1618:.\Generated_Source\PSoC4/CyLib.c ****             wdtLockState = 1u;
1619:.\Generated_Source\PSoC4/CyLib.c ****             CySysWdtUnlock();
1620:.\Generated_Source\PSoC4/CyLib.c ****         }
1621:.\Generated_Source\PSoC4/CyLib.c ****         else
1622:.\Generated_Source\PSoC4/CyLib.c ****         {
1623:.\Generated_Source\PSoC4/CyLib.c ****             wdtLockState = 0u;
1624:.\Generated_Source\PSoC4/CyLib.c ****         }
1625:.\Generated_Source\PSoC4/CyLib.c **** 
1626:.\Generated_Source\PSoC4/CyLib.c ****         /* Set new WDT control register value */
1627:.\Generated_Source\PSoC4/CyLib.c ****         counterMask &= (CY_SYS_WDT_COUNTER0_INT |
1628:.\Generated_Source\PSoC4/CyLib.c ****                         CY_SYS_WDT_COUNTER1_INT |
1629:.\Generated_Source\PSoC4/CyLib.c ****                         CY_SYS_WDT_COUNTER2_INT);
1630:.\Generated_Source\PSoC4/CyLib.c **** 
1631:.\Generated_Source\PSoC4/CyLib.c ****         CY_SYS_WDT_CONTROL_REG = counterMask | (CY_SYS_WDT_CONTROL_REG & ~(CY_SYS_WDT_COUNTER0_INT 
1632:.\Generated_Source\PSoC4/CyLib.c ****                                                                            CY_SYS_WDT_COUNTER1_INT 
1633:.\Generated_Source\PSoC4/CyLib.c ****                                                                            CY_SYS_WDT_COUNTER2_INT)
1634:.\Generated_Source\PSoC4/CyLib.c **** 
1635:.\Generated_Source\PSoC4/CyLib.c ****         if (1u == wdtLockState)
1636:.\Generated_Source\PSoC4/CyLib.c ****         {
1637:.\Generated_Source\PSoC4/CyLib.c ****             CySysWdtLock();
1638:.\Generated_Source\PSoC4/CyLib.c ****         }
1639:.\Generated_Source\PSoC4/CyLib.c **** 
1640:.\Generated_Source\PSoC4/CyLib.c ****         CyExitCriticalSection(interruptState);
1641:.\Generated_Source\PSoC4/CyLib.c ****     }
1642:.\Generated_Source\PSoC4/CyLib.c **** 
1643:.\Generated_Source\PSoC4/CyLib.c **** 
1644:.\Generated_Source\PSoC4/CyLib.c ****     /*******************************************************************************
1645:.\Generated_Source\PSoC4/CyLib.c ****     * Function Name: CySysWdtResetCounters
1646:.\Generated_Source\PSoC4/CyLib.c ****     ********************************************************************************
1647:.\Generated_Source\PSoC4/CyLib.c ****     *
1648:.\Generated_Source\PSoC4/CyLib.c ****     * Summary:
1649:.\Generated_Source\PSoC4/CyLib.c ****     *  Resets all WDT counters set in the mask.
1650:.\Generated_Source\PSoC4/CyLib.c ****     *
1651:.\Generated_Source\PSoC4/CyLib.c ****     * Parameters:
1652:.\Generated_Source\PSoC4/CyLib.c ****     *  counterMask: Mask of all counters to reset.
1653:.\Generated_Source\PSoC4/CyLib.c ****     *   Define                       Counter
1654:.\Generated_Source\PSoC4/CyLib.c ****     *   CY_SYS_WDT_COUNTER0_RESET    0
1655:.\Generated_Source\PSoC4/CyLib.c ****     *   CY_SYS_WDT_COUNTER1_RESET    1
1656:.\Generated_Source\PSoC4/CyLib.c ****     *   CY_SYS_WDT_COUNTER2_RESET    2
1657:.\Generated_Source\PSoC4/CyLib.c ****     *
1658:.\Generated_Source\PSoC4/CyLib.c ****     * Return:
1659:.\Generated_Source\PSoC4/CyLib.c ****     *   None
1660:.\Generated_Source\PSoC4/CyLib.c ****     *
1661:.\Generated_Source\PSoC4/CyLib.c ****     * Side effects:
1662:.\Generated_Source\PSoC4/CyLib.c ****     *   This function will not reset counter values if the Watchdog is locked.
1663:.\Generated_Source\PSoC4/CyLib.c ****     *
1664:.\Generated_Source\PSoC4/CyLib.c ****     *******************************************************************************/
1665:.\Generated_Source\PSoC4/CyLib.c ****     void CySysWdtResetCounters(uint32 countersMask)
1666:.\Generated_Source\PSoC4/CyLib.c ****     {
1667:.\Generated_Source\PSoC4/CyLib.c ****         /* Set new WDT reset value */
1668:.\Generated_Source\PSoC4/CyLib.c ****         CY_SYS_WDT_CONTROL_REG |= (countersMask & (CY_SYS_WDT_COUNTER0_RESET |
1669:.\Generated_Source\PSoC4/CyLib.c ****             CY_SYS_WDT_COUNTER1_RESET | CY_SYS_WDT_COUNTER2_RESET));
1670:.\Generated_Source\PSoC4/CyLib.c ****     }
1671:.\Generated_Source\PSoC4/CyLib.c **** 
1672:.\Generated_Source\PSoC4/CyLib.c **** 
1673:.\Generated_Source\PSoC4/CyLib.c ****     /*******************************************************************************
1674:.\Generated_Source\PSoC4/CyLib.c ****     * Function Name: CySysClkLfclkPosedgeCatch
ARM GAS  C:\Users\syhaines\AppData\Local\Temp\ccXhcYqL.s 			page 36


1675:.\Generated_Source\PSoC4/CyLib.c ****     ********************************************************************************
1676:.\Generated_Source\PSoC4/CyLib.c ****     *
1677:.\Generated_Source\PSoC4/CyLib.c ****     * Summary:
1678:.\Generated_Source\PSoC4/CyLib.c ****     *  Returns once LFCLK positive edge occurred.
1679:.\Generated_Source\PSoC4/CyLib.c ****     *
1680:.\Generated_Source\PSoC4/CyLib.c ****     *  The CySysClkLfclkPosedgeRestore() should be called after this function in
1681:.\Generated_Source\PSoC4/CyLib.c ****     *  order to restore WDT configuration.
1682:.\Generated_Source\PSoC4/CyLib.c ****     *
1683:.\Generated_Source\PSoC4/CyLib.c ****     *  The pair of the CySysClkLfclkPosedgeCatch() and CySysClkLfclkPosedgeRestore()
1684:.\Generated_Source\PSoC4/CyLib.c ****     *  functions expected to be called inside of a critical section.
1685:.\Generated_Source\PSoC4/CyLib.c ****     *
1686:.\Generated_Source\PSoC4/CyLib.c ****     *  To ensure that the WDT counter value is read until it changes. The enabled
1687:.\Generated_Source\PSoC4/CyLib.c ****     *  WDT counter is used for that purpose. If no counters are enabled, the counter
1688:.\Generated_Source\PSoC4/CyLib.c ****     *  0 is enabled. And after LFCLK source is switched, the counter 0 configuration
1689:.\Generated_Source\PSoC4/CyLib.c ****     *  is restored back.
1690:.\Generated_Source\PSoC4/CyLib.c ****     *
1691:.\Generated_Source\PSoC4/CyLib.c ****     *  Not applicable for the PSoC 4000 devices.
1692:.\Generated_Source\PSoC4/CyLib.c ****     *
1693:.\Generated_Source\PSoC4/CyLib.c ****     * Parameters:
1694:.\Generated_Source\PSoC4/CyLib.c ****     *  None
1695:.\Generated_Source\PSoC4/CyLib.c ****     *
1696:.\Generated_Source\PSoC4/CyLib.c ****     * Return:
1697:.\Generated_Source\PSoC4/CyLib.c ****     *  None
1698:.\Generated_Source\PSoC4/CyLib.c ****     *
1699:.\Generated_Source\PSoC4/CyLib.c ****     * Side Effects:
1700:.\Generated_Source\PSoC4/CyLib.c ****     *  This function will have no effect if the WDT is locked (CySysWdtLock() is
1701:.\Generated_Source\PSoC4/CyLib.c ****     *  called). Call CySysWdtUnlock() to unlock the WDT.
1702:.\Generated_Source\PSoC4/CyLib.c ****     *
1703:.\Generated_Source\PSoC4/CyLib.c ****     *******************************************************************************/
1704:.\Generated_Source\PSoC4/CyLib.c ****     static void CySysClkLfclkPosedgeCatch(void)
1705:.\Generated_Source\PSoC4/CyLib.c ****     {
1706:.\Generated_Source\PSoC4/CyLib.c ****         uint32 firstCount;
1707:.\Generated_Source\PSoC4/CyLib.c **** 
1708:.\Generated_Source\PSoC4/CyLib.c ****         if (0u != CySysWdtReadEnabledStatus(CY_SYS_WDT_COUNTER0))
1709:.\Generated_Source\PSoC4/CyLib.c ****         {
1710:.\Generated_Source\PSoC4/CyLib.c ****             lfclkPosedgeEnabledWdtCounter = CY_SYS_WDT_COUNTER0;
1711:.\Generated_Source\PSoC4/CyLib.c ****         }
1712:.\Generated_Source\PSoC4/CyLib.c ****         else if (0u != CySysWdtReadEnabledStatus(CY_SYS_WDT_COUNTER1))
1713:.\Generated_Source\PSoC4/CyLib.c ****         {
1714:.\Generated_Source\PSoC4/CyLib.c ****             lfclkPosedgeEnabledWdtCounter = CY_SYS_WDT_COUNTER1;
1715:.\Generated_Source\PSoC4/CyLib.c ****         }
1716:.\Generated_Source\PSoC4/CyLib.c ****         else if (0u != CySysWdtReadEnabledStatus(CY_SYS_WDT_COUNTER2))
1717:.\Generated_Source\PSoC4/CyLib.c ****         {
1718:.\Generated_Source\PSoC4/CyLib.c ****             lfclkPosedgeEnabledWdtCounter = CY_SYS_WDT_COUNTER2;
1719:.\Generated_Source\PSoC4/CyLib.c ****         }
1720:.\Generated_Source\PSoC4/CyLib.c ****         else /* All WDT counters are disabled */
1721:.\Generated_Source\PSoC4/CyLib.c ****         {
1722:.\Generated_Source\PSoC4/CyLib.c ****             /* Configure WDT counter # 0 */
1723:.\Generated_Source\PSoC4/CyLib.c ****             lfclkPosedgeWdtCounter0Enabled = 1u;
1724:.\Generated_Source\PSoC4/CyLib.c ****             lfclkPosedgeEnabledWdtCounter = CY_SYS_WDT_COUNTER0;
1725:.\Generated_Source\PSoC4/CyLib.c **** 
1726:.\Generated_Source\PSoC4/CyLib.c ****             lfclkPosedgeWdtCounter0Mode = CySysWdtReadMode(CY_SYS_WDT_COUNTER0);
1727:.\Generated_Source\PSoC4/CyLib.c ****             CySysWdtWriteMode(CY_SYS_WDT_COUNTER0, CY_SYS_WDT_MODE_NONE);
1728:.\Generated_Source\PSoC4/CyLib.c ****             CySysWdtEnable(CY_SYS_WDT_COUNTER0_MASK);
1729:.\Generated_Source\PSoC4/CyLib.c ****         }
1730:.\Generated_Source\PSoC4/CyLib.c **** 
1731:.\Generated_Source\PSoC4/CyLib.c ****         firstCount = CySysWdtReadCount(lfclkPosedgeEnabledWdtCounter);
ARM GAS  C:\Users\syhaines\AppData\Local\Temp\ccXhcYqL.s 			page 37


1732:.\Generated_Source\PSoC4/CyLib.c ****         while (CySysWdtReadCount(lfclkPosedgeEnabledWdtCounter) == firstCount)
1733:.\Generated_Source\PSoC4/CyLib.c ****         {
1734:.\Generated_Source\PSoC4/CyLib.c ****             /* Wait for counter to increment */
1735:.\Generated_Source\PSoC4/CyLib.c ****         }
1736:.\Generated_Source\PSoC4/CyLib.c ****     }
1737:.\Generated_Source\PSoC4/CyLib.c **** 
1738:.\Generated_Source\PSoC4/CyLib.c **** 
1739:.\Generated_Source\PSoC4/CyLib.c ****     /*******************************************************************************
1740:.\Generated_Source\PSoC4/CyLib.c ****     * Function Name: CySysClkLfclkPosedgeRestore
1741:.\Generated_Source\PSoC4/CyLib.c ****     ********************************************************************************
1742:.\Generated_Source\PSoC4/CyLib.c ****     *
1743:.\Generated_Source\PSoC4/CyLib.c ****     * Summary:
1744:.\Generated_Source\PSoC4/CyLib.c ****     *  Restores WDT configuration after CySysClkLfclkPosedgeCatch() call.
1745:.\Generated_Source\PSoC4/CyLib.c ****     *
1746:.\Generated_Source\PSoC4/CyLib.c ****     *  The pair of the CySysClkLfclkPosedgeCatch() and CySysClkLfclkPosedgeRestore()
1747:.\Generated_Source\PSoC4/CyLib.c ****     *  functions expected to be called inside of a critical section.
1748:.\Generated_Source\PSoC4/CyLib.c ****     *
1749:.\Generated_Source\PSoC4/CyLib.c ****     *  Not applicable for the PSoC 4000 devices.
1750:.\Generated_Source\PSoC4/CyLib.c ****     *
1751:.\Generated_Source\PSoC4/CyLib.c ****     * Parameters:
1752:.\Generated_Source\PSoC4/CyLib.c ****     *  None
1753:.\Generated_Source\PSoC4/CyLib.c ****     *
1754:.\Generated_Source\PSoC4/CyLib.c ****     * Return:
1755:.\Generated_Source\PSoC4/CyLib.c ****     *  None
1756:.\Generated_Source\PSoC4/CyLib.c ****     *
1757:.\Generated_Source\PSoC4/CyLib.c ****     * Side Effects:
1758:.\Generated_Source\PSoC4/CyLib.c ****     *  This function will have no effect if the WDT is locked (CySysWdtLock() is
1759:.\Generated_Source\PSoC4/CyLib.c ****     *  called). Call CySysWdtUnlock() to unlock the WDT.
1760:.\Generated_Source\PSoC4/CyLib.c ****     *
1761:.\Generated_Source\PSoC4/CyLib.c ****     *******************************************************************************/
1762:.\Generated_Source\PSoC4/CyLib.c ****     static void CySysClkLfclkPosedgeRestore(void)
1763:.\Generated_Source\PSoC4/CyLib.c ****     {
1764:.\Generated_Source\PSoC4/CyLib.c ****         if (lfclkPosedgeWdtCounter0Enabled != 0u)
1765:.\Generated_Source\PSoC4/CyLib.c ****         {
1766:.\Generated_Source\PSoC4/CyLib.c ****             /* Restore counter # 0 configuration and force it's shutdown */
1767:.\Generated_Source\PSoC4/CyLib.c ****             CY_SYS_WDT_CONTROL_REG &= (uint32)(~CY_SYS_WDT_COUNTER0_MASK);
1768:.\Generated_Source\PSoC4/CyLib.c ****             CySysWdtWriteMode(CY_SYS_WDT_COUNTER0, lfclkPosedgeWdtCounter0Mode);
1769:.\Generated_Source\PSoC4/CyLib.c ****             lfclkPosedgeWdtCounter0Enabled = 0u;
1770:.\Generated_Source\PSoC4/CyLib.c ****         }
1771:.\Generated_Source\PSoC4/CyLib.c ****     }
1772:.\Generated_Source\PSoC4/CyLib.c **** 
1773:.\Generated_Source\PSoC4/CyLib.c **** #else
1774:.\Generated_Source\PSoC4/CyLib.c **** 
1775:.\Generated_Source\PSoC4/CyLib.c ****     /*******************************************************************************
1776:.\Generated_Source\PSoC4/CyLib.c ****     * Function Name: CySysWdtReadEnabledStatus
1777:.\Generated_Source\PSoC4/CyLib.c ****     ********************************************************************************
1778:.\Generated_Source\PSoC4/CyLib.c ****     *
1779:.\Generated_Source\PSoC4/CyLib.c ****     * Summary:
1780:.\Generated_Source\PSoC4/CyLib.c ****     *  Reads the enabled status WDT counter.
1781:.\Generated_Source\PSoC4/CyLib.c ****     *
1782:.\Generated_Source\PSoC4/CyLib.c ****     * Parameters:
1783:.\Generated_Source\PSoC4/CyLib.c ****     *  None
1784:.\Generated_Source\PSoC4/CyLib.c ****     *
1785:.\Generated_Source\PSoC4/CyLib.c ****     * Return:
1786:.\Generated_Source\PSoC4/CyLib.c ****     *  Status of WDT counter:
1787:.\Generated_Source\PSoC4/CyLib.c ****     *   0 - counter is disabled
1788:.\Generated_Source\PSoC4/CyLib.c ****     *   1 - counter is enabled
ARM GAS  C:\Users\syhaines\AppData\Local\Temp\ccXhcYqL.s 			page 38


1789:.\Generated_Source\PSoC4/CyLib.c ****     *
1790:.\Generated_Source\PSoC4/CyLib.c ****     *******************************************************************************/
1791:.\Generated_Source\PSoC4/CyLib.c ****     uint32 CySysWdtReadEnabledStatus(void)
1792:.\Generated_Source\PSoC4/CyLib.c ****     {
1793:.\Generated_Source\PSoC4/CyLib.c ****         return ((CY_SYS_WDT_DISABLE_KEY_REG == CY_SYS_WDT_KEY) ? (uint32) 0u : (uint32) 1u);
1794:.\Generated_Source\PSoC4/CyLib.c ****     }
1795:.\Generated_Source\PSoC4/CyLib.c **** 
1796:.\Generated_Source\PSoC4/CyLib.c **** 
1797:.\Generated_Source\PSoC4/CyLib.c ****     /*******************************************************************************
1798:.\Generated_Source\PSoC4/CyLib.c ****     * Function Name: CySysWdtEnable
1799:.\Generated_Source\PSoC4/CyLib.c ****     ********************************************************************************
1800:.\Generated_Source\PSoC4/CyLib.c ****     *
1801:.\Generated_Source\PSoC4/CyLib.c ****     * Summary:
1802:.\Generated_Source\PSoC4/CyLib.c ****     *  Enables the watchdog timer reset generation. The CySysWdtClearInterrupt()
1803:.\Generated_Source\PSoC4/CyLib.c ****     *  feeds the watch dog. Two unserviced interrupts will lead to a system reset
1804:.\Generated_Source\PSoC4/CyLib.c ****     *  (i.e. at the third match).
1805:.\Generated_Source\PSoC4/CyLib.c ****     *
1806:.\Generated_Source\PSoC4/CyLib.c ****     * Parameters:
1807:.\Generated_Source\PSoC4/CyLib.c ****     *  None
1808:.\Generated_Source\PSoC4/CyLib.c ****     *
1809:.\Generated_Source\PSoC4/CyLib.c ****     * Return:
1810:.\Generated_Source\PSoC4/CyLib.c ****     *  None
1811:.\Generated_Source\PSoC4/CyLib.c ****     *
1812:.\Generated_Source\PSoC4/CyLib.c ****     * Side Effects:
1813:.\Generated_Source\PSoC4/CyLib.c ****     *  The ILO is enabled by hardware once WDT is started.
1814:.\Generated_Source\PSoC4/CyLib.c ****     *
1815:.\Generated_Source\PSoC4/CyLib.c ****     *******************************************************************************/
1816:.\Generated_Source\PSoC4/CyLib.c ****     void CySysWdtEnable(void)
1817:.\Generated_Source\PSoC4/CyLib.c ****     {
1818:.\Generated_Source\PSoC4/CyLib.c ****         CY_SYS_WDT_DISABLE_KEY_REG = 0u;
1819:.\Generated_Source\PSoC4/CyLib.c ****     }
1820:.\Generated_Source\PSoC4/CyLib.c **** 
1821:.\Generated_Source\PSoC4/CyLib.c **** 
1822:.\Generated_Source\PSoC4/CyLib.c ****     /*******************************************************************************
1823:.\Generated_Source\PSoC4/CyLib.c ****     * Function Name: CySysWdtDisable
1824:.\Generated_Source\PSoC4/CyLib.c ****     ********************************************************************************
1825:.\Generated_Source\PSoC4/CyLib.c ****     *
1826:.\Generated_Source\PSoC4/CyLib.c ****     * Summary:
1827:.\Generated_Source\PSoC4/CyLib.c ****     *  Disables the WDT reset generation.
1828:.\Generated_Source\PSoC4/CyLib.c ****     *
1829:.\Generated_Source\PSoC4/CyLib.c ****     * Parameters:
1830:.\Generated_Source\PSoC4/CyLib.c ****     *  None
1831:.\Generated_Source\PSoC4/CyLib.c ****     *
1832:.\Generated_Source\PSoC4/CyLib.c ****     * Return:
1833:.\Generated_Source\PSoC4/CyLib.c ****     *  None
1834:.\Generated_Source\PSoC4/CyLib.c ****     *
1835:.\Generated_Source\PSoC4/CyLib.c ****     *******************************************************************************/
1836:.\Generated_Source\PSoC4/CyLib.c ****     void CySysWdtDisable(void)
1837:.\Generated_Source\PSoC4/CyLib.c ****     {
1838:.\Generated_Source\PSoC4/CyLib.c ****         CY_SYS_WDT_DISABLE_KEY_REG = CY_SYS_WDT_KEY;
1839:.\Generated_Source\PSoC4/CyLib.c ****     }
1840:.\Generated_Source\PSoC4/CyLib.c **** 
1841:.\Generated_Source\PSoC4/CyLib.c **** 
1842:.\Generated_Source\PSoC4/CyLib.c ****     /*******************************************************************************
1843:.\Generated_Source\PSoC4/CyLib.c ****     * Function Name: CySysWdtWriteMatch
1844:.\Generated_Source\PSoC4/CyLib.c ****     ********************************************************************************
1845:.\Generated_Source\PSoC4/CyLib.c ****     *
ARM GAS  C:\Users\syhaines\AppData\Local\Temp\ccXhcYqL.s 			page 39


1846:.\Generated_Source\PSoC4/CyLib.c ****     * Summary:
1847:.\Generated_Source\PSoC4/CyLib.c ****     *  Configures the WDT counter match comparison value.
1848:.\Generated_Source\PSoC4/CyLib.c ****     *
1849:.\Generated_Source\PSoC4/CyLib.c ****     * Parameters:
1850:.\Generated_Source\PSoC4/CyLib.c ****     *  match:
1851:.\Generated_Source\PSoC4/CyLib.c ****     *   Valid range [0-65535]. Value to be used to match against the counter.
1852:.\Generated_Source\PSoC4/CyLib.c ****     *
1853:.\Generated_Source\PSoC4/CyLib.c ****     * Return:
1854:.\Generated_Source\PSoC4/CyLib.c ****     *  None
1855:.\Generated_Source\PSoC4/CyLib.c ****     *
1856:.\Generated_Source\PSoC4/CyLib.c ****     *******************************************************************************/
1857:.\Generated_Source\PSoC4/CyLib.c ****     void CySysWdtWriteMatch(uint32 match)
1858:.\Generated_Source\PSoC4/CyLib.c ****     {
1859:.\Generated_Source\PSoC4/CyLib.c ****         CY_SYS_WDT_MATCH_REG = (CY_SYS_WDT_MATCH_REG & (uint32)(~ (uint32)CY_SYS_WDT_MATCH_MASK)) |
1860:.\Generated_Source\PSoC4/CyLib.c ****     }
1861:.\Generated_Source\PSoC4/CyLib.c **** 
1862:.\Generated_Source\PSoC4/CyLib.c **** 
1863:.\Generated_Source\PSoC4/CyLib.c ****     /*******************************************************************************
1864:.\Generated_Source\PSoC4/CyLib.c ****     * Function Name: CySysWdtReadMatch
1865:.\Generated_Source\PSoC4/CyLib.c ****     ********************************************************************************
1866:.\Generated_Source\PSoC4/CyLib.c ****     *
1867:.\Generated_Source\PSoC4/CyLib.c ****     * Summary:
1868:.\Generated_Source\PSoC4/CyLib.c ****     *  Reads the WDT counter match comparison value.
1869:.\Generated_Source\PSoC4/CyLib.c ****     *
1870:.\Generated_Source\PSoC4/CyLib.c ****     * Parameters:
1871:.\Generated_Source\PSoC4/CyLib.c ****     *  None
1872:.\Generated_Source\PSoC4/CyLib.c ****     *
1873:.\Generated_Source\PSoC4/CyLib.c ****     * Return:
1874:.\Generated_Source\PSoC4/CyLib.c ****     *  Counter match value.
1875:.\Generated_Source\PSoC4/CyLib.c ****     *
1876:.\Generated_Source\PSoC4/CyLib.c ****     *******************************************************************************/
1877:.\Generated_Source\PSoC4/CyLib.c ****     uint32 CySysWdtReadMatch(void)
1878:.\Generated_Source\PSoC4/CyLib.c ****     {
1879:.\Generated_Source\PSoC4/CyLib.c ****         return (CY_SYS_WDT_MATCH_REG & CY_SYS_WDT_MATCH_MASK);
1880:.\Generated_Source\PSoC4/CyLib.c ****     }
1881:.\Generated_Source\PSoC4/CyLib.c **** 
1882:.\Generated_Source\PSoC4/CyLib.c **** 
1883:.\Generated_Source\PSoC4/CyLib.c ****     /*******************************************************************************
1884:.\Generated_Source\PSoC4/CyLib.c ****     * Function Name: CySysWdtReadCount
1885:.\Generated_Source\PSoC4/CyLib.c ****     ********************************************************************************
1886:.\Generated_Source\PSoC4/CyLib.c ****     *
1887:.\Generated_Source\PSoC4/CyLib.c ****     * Summary:
1888:.\Generated_Source\PSoC4/CyLib.c ****     *  Reads the current WDT counter value.
1889:.\Generated_Source\PSoC4/CyLib.c ****     *
1890:.\Generated_Source\PSoC4/CyLib.c ****     * Parameters:
1891:.\Generated_Source\PSoC4/CyLib.c ****     *  None
1892:.\Generated_Source\PSoC4/CyLib.c ****     *
1893:.\Generated_Source\PSoC4/CyLib.c ****     * Return:
1894:.\Generated_Source\PSoC4/CyLib.c ****     *  Live counter value
1895:.\Generated_Source\PSoC4/CyLib.c ****     *
1896:.\Generated_Source\PSoC4/CyLib.c ****     *******************************************************************************/
1897:.\Generated_Source\PSoC4/CyLib.c ****     uint32 CySysWdtReadCount(void)
1898:.\Generated_Source\PSoC4/CyLib.c ****     {
1899:.\Generated_Source\PSoC4/CyLib.c ****         return ((uint32)CY_SYS_WDT_COUNTER_REG);
1900:.\Generated_Source\PSoC4/CyLib.c ****     }
1901:.\Generated_Source\PSoC4/CyLib.c **** 
1902:.\Generated_Source\PSoC4/CyLib.c **** 
ARM GAS  C:\Users\syhaines\AppData\Local\Temp\ccXhcYqL.s 			page 40


1903:.\Generated_Source\PSoC4/CyLib.c ****     /*******************************************************************************
1904:.\Generated_Source\PSoC4/CyLib.c ****     * Function Name: CySysWdtWriteIgnoreBits
1905:.\Generated_Source\PSoC4/CyLib.c ****     ********************************************************************************
1906:.\Generated_Source\PSoC4/CyLib.c ****     *
1907:.\Generated_Source\PSoC4/CyLib.c ****     * Summary:
1908:.\Generated_Source\PSoC4/CyLib.c ****     *  Configures the number of the MSB bits of the watchdog timer that are not
1909:.\Generated_Source\PSoC4/CyLib.c ****     *  checked against the match.
1910:.\Generated_Source\PSoC4/CyLib.c ****     *
1911:.\Generated_Source\PSoC4/CyLib.c ****     * Parameters:
1912:.\Generated_Source\PSoC4/CyLib.c ****     *  bitsNum:
1913:.\Generated_Source\PSoC4/CyLib.c ****     *   Valid range [0-15]. Number of MSB bits.
1914:.\Generated_Source\PSoC4/CyLib.c ****     *
1915:.\Generated_Source\PSoC4/CyLib.c ****     * Return:
1916:.\Generated_Source\PSoC4/CyLib.c ****     *  None
1917:.\Generated_Source\PSoC4/CyLib.c ****     *
1918:.\Generated_Source\PSoC4/CyLib.c ****     * Side Effects:
1919:.\Generated_Source\PSoC4/CyLib.c ****     *  The value of bitsNum provides control over the time-to-reset of the watchdog
1920:.\Generated_Source\PSoC4/CyLib.c ****     *  (which happens after 3 successive matches).
1921:.\Generated_Source\PSoC4/CyLib.c ****     *
1922:.\Generated_Source\PSoC4/CyLib.c ****     *******************************************************************************/
1923:.\Generated_Source\PSoC4/CyLib.c ****     void CySysWdtWriteIgnoreBits(uint32 bitsNum)
1924:.\Generated_Source\PSoC4/CyLib.c ****     {
1925:.\Generated_Source\PSoC4/CyLib.c ****         bitsNum = ((uint32)(bitsNum << CY_SYS_WDT_IGNORE_BITS_SHIFT) & CY_SYS_WDT_IGNORE_BITS_MASK)
1926:.\Generated_Source\PSoC4/CyLib.c ****         CY_SYS_WDT_MATCH_REG = (CY_SYS_WDT_MATCH_REG & (uint32)(~CY_SYS_WDT_IGNORE_BITS_MASK)) | bi
1927:.\Generated_Source\PSoC4/CyLib.c ****     }
1928:.\Generated_Source\PSoC4/CyLib.c **** 
1929:.\Generated_Source\PSoC4/CyLib.c **** 
1930:.\Generated_Source\PSoC4/CyLib.c ****     /*******************************************************************************
1931:.\Generated_Source\PSoC4/CyLib.c ****     * Function Name: CySysWdtReadIgnoreBits
1932:.\Generated_Source\PSoC4/CyLib.c ****     ********************************************************************************
1933:.\Generated_Source\PSoC4/CyLib.c ****     *
1934:.\Generated_Source\PSoC4/CyLib.c ****     * Summary:
1935:.\Generated_Source\PSoC4/CyLib.c ****     *  Reads the number of the  MSB bits of the watchdog timer that are not
1936:.\Generated_Source\PSoC4/CyLib.c ****     *  checked against the match.
1937:.\Generated_Source\PSoC4/CyLib.c ****     *
1938:.\Generated_Source\PSoC4/CyLib.c ****     * Parameters:
1939:.\Generated_Source\PSoC4/CyLib.c ****     *  None
1940:.\Generated_Source\PSoC4/CyLib.c ****     *
1941:.\Generated_Source\PSoC4/CyLib.c ****     * Return:
1942:.\Generated_Source\PSoC4/CyLib.c ****     *  Number of MSB bits.
1943:.\Generated_Source\PSoC4/CyLib.c ****     *
1944:.\Generated_Source\PSoC4/CyLib.c ****     *******************************************************************************/
1945:.\Generated_Source\PSoC4/CyLib.c ****     uint32 CySysWdtReadIgnoreBits(void)
1946:.\Generated_Source\PSoC4/CyLib.c ****     {
1947:.\Generated_Source\PSoC4/CyLib.c ****         return((uint32)((CY_SYS_WDT_MATCH_REG & CY_SYS_WDT_IGNORE_BITS_MASK) >> CY_SYS_WDT_IGNORE_B
1948:.\Generated_Source\PSoC4/CyLib.c ****     }
1949:.\Generated_Source\PSoC4/CyLib.c **** 
1950:.\Generated_Source\PSoC4/CyLib.c **** 
1951:.\Generated_Source\PSoC4/CyLib.c ****     /*******************************************************************************
1952:.\Generated_Source\PSoC4/CyLib.c ****     * Function Name: CySysWdtClearInterrupt
1953:.\Generated_Source\PSoC4/CyLib.c ****     ********************************************************************************
1954:.\Generated_Source\PSoC4/CyLib.c ****     *
1955:.\Generated_Source\PSoC4/CyLib.c ****     * Summary:
1956:.\Generated_Source\PSoC4/CyLib.c ****     *  Feeds the watch dog. Cleans the WDT match flag, which is set every time the
1957:.\Generated_Source\PSoC4/CyLib.c ****     *  WDT counter reaches a WDT match value.  Two unserviced interrupts will lead
1958:.\Generated_Source\PSoC4/CyLib.c ****     *  to a system reset (i.e. at the third match).
1959:.\Generated_Source\PSoC4/CyLib.c ****     *
ARM GAS  C:\Users\syhaines\AppData\Local\Temp\ccXhcYqL.s 			page 41


1960:.\Generated_Source\PSoC4/CyLib.c ****     * Parameters:
1961:.\Generated_Source\PSoC4/CyLib.c ****     *  None
1962:.\Generated_Source\PSoC4/CyLib.c ****     *
1963:.\Generated_Source\PSoC4/CyLib.c ****     * Return:
1964:.\Generated_Source\PSoC4/CyLib.c ****     *  None
1965:.\Generated_Source\PSoC4/CyLib.c ****     *
1966:.\Generated_Source\PSoC4/CyLib.c ****     *******************************************************************************/
1967:.\Generated_Source\PSoC4/CyLib.c ****     void CySysWdtClearInterrupt(void)
1968:.\Generated_Source\PSoC4/CyLib.c ****     {
1969:.\Generated_Source\PSoC4/CyLib.c ****         CY_SYS_SRSS_INTR_REG |= CY_SYS_WDT_LOWER_BIT_MASK;
1970:.\Generated_Source\PSoC4/CyLib.c ****     }
1971:.\Generated_Source\PSoC4/CyLib.c **** 
1972:.\Generated_Source\PSoC4/CyLib.c **** 
1973:.\Generated_Source\PSoC4/CyLib.c ****     /*******************************************************************************
1974:.\Generated_Source\PSoC4/CyLib.c ****     * Function Name: CySysWdtMaskInterrupt
1975:.\Generated_Source\PSoC4/CyLib.c ****     ********************************************************************************
1976:.\Generated_Source\PSoC4/CyLib.c ****     *
1977:.\Generated_Source\PSoC4/CyLib.c ****     * Summary:
1978:.\Generated_Source\PSoC4/CyLib.c ****     *  After masking interrupts from the WDT, they are not passed to the CPU.
1979:.\Generated_Source\PSoC4/CyLib.c ****     *  This function does not disable the WDT reset generation.
1980:.\Generated_Source\PSoC4/CyLib.c ****     *
1981:.\Generated_Source\PSoC4/CyLib.c ****     * Parameters:
1982:.\Generated_Source\PSoC4/CyLib.c ****     *  None
1983:.\Generated_Source\PSoC4/CyLib.c ****     *
1984:.\Generated_Source\PSoC4/CyLib.c ****     * Return:
1985:.\Generated_Source\PSoC4/CyLib.c ****     *  None
1986:.\Generated_Source\PSoC4/CyLib.c ****     *
1987:.\Generated_Source\PSoC4/CyLib.c ****     *******************************************************************************/
1988:.\Generated_Source\PSoC4/CyLib.c ****     void CySysWdtMaskInterrupt(void)
1989:.\Generated_Source\PSoC4/CyLib.c ****     {
1990:.\Generated_Source\PSoC4/CyLib.c ****         CY_SYS_SRSS_INTR_MASK_REG &= (uint32)(~ (uint32)CY_SYS_WDT_LOWER_BIT_MASK);
1991:.\Generated_Source\PSoC4/CyLib.c ****     }
1992:.\Generated_Source\PSoC4/CyLib.c **** 
1993:.\Generated_Source\PSoC4/CyLib.c **** 
1994:.\Generated_Source\PSoC4/CyLib.c ****     /*******************************************************************************
1995:.\Generated_Source\PSoC4/CyLib.c ****     * Function Name: CySysWdtUnmaskInterrupt
1996:.\Generated_Source\PSoC4/CyLib.c ****     ********************************************************************************
1997:.\Generated_Source\PSoC4/CyLib.c ****     *
1998:.\Generated_Source\PSoC4/CyLib.c ****     * Summary:
1999:.\Generated_Source\PSoC4/CyLib.c ****     *  Unmasks WDT interrupts.
2000:.\Generated_Source\PSoC4/CyLib.c ****     *
2001:.\Generated_Source\PSoC4/CyLib.c ****     * Parameters:
2002:.\Generated_Source\PSoC4/CyLib.c ****     *  None
2003:.\Generated_Source\PSoC4/CyLib.c ****     *
2004:.\Generated_Source\PSoC4/CyLib.c ****     * Return:
2005:.\Generated_Source\PSoC4/CyLib.c ****     *  None
2006:.\Generated_Source\PSoC4/CyLib.c ****     *
2007:.\Generated_Source\PSoC4/CyLib.c ****     *******************************************************************************/
2008:.\Generated_Source\PSoC4/CyLib.c ****     void CySysWdtUnmaskInterrupt(void)
2009:.\Generated_Source\PSoC4/CyLib.c ****     {
2010:.\Generated_Source\PSoC4/CyLib.c ****         CY_SYS_SRSS_INTR_MASK_REG |= CY_SYS_WDT_LOWER_BIT_MASK;
2011:.\Generated_Source\PSoC4/CyLib.c ****     }
2012:.\Generated_Source\PSoC4/CyLib.c **** 
2013:.\Generated_Source\PSoC4/CyLib.c **** #endif /* (CY_IP_SRSSV2) */
2014:.\Generated_Source\PSoC4/CyLib.c **** 
2015:.\Generated_Source\PSoC4/CyLib.c **** 
2016:.\Generated_Source\PSoC4/CyLib.c **** #if(CY_IP_SRSSV2)
ARM GAS  C:\Users\syhaines\AppData\Local\Temp\ccXhcYqL.s 			page 42


2017:.\Generated_Source\PSoC4/CyLib.c **** 
2018:.\Generated_Source\PSoC4/CyLib.c ****     /*******************************************************************************
2019:.\Generated_Source\PSoC4/CyLib.c ****     * Function Name: CySysLvdEnable
2020:.\Generated_Source\PSoC4/CyLib.c ****     ********************************************************************************
2021:.\Generated_Source\PSoC4/CyLib.c ****     *
2022:.\Generated_Source\PSoC4/CyLib.c ****     * Summary:
2023:.\Generated_Source\PSoC4/CyLib.c ****     *  Enables the output of the low-voltage monitor when Vddd is at or below the
2024:.\Generated_Source\PSoC4/CyLib.c ****     *  trip point, configures the device to generate an interrupt, and sets the voltage
2025:.\Generated_Source\PSoC4/CyLib.c ****     *  trip level.
2026:.\Generated_Source\PSoC4/CyLib.c ****     *
2027:.\Generated_Source\PSoC4/CyLib.c ****     * Parameters:
2028:.\Generated_Source\PSoC4/CyLib.c ****     *  threshold: Threshold selection for Low Voltage Detect circuit.
2029:.\Generated_Source\PSoC4/CyLib.c ****     *  Threshold variation is +/- 2.5% from these typical voltage choices.
2030:.\Generated_Source\PSoC4/CyLib.c ****     *         Define                     Voltage threshold
2031:.\Generated_Source\PSoC4/CyLib.c ****     *    CY_LVD_THRESHOLD_1_75_V       1.7500 V
2032:.\Generated_Source\PSoC4/CyLib.c ****     *    CY_LVD_THRESHOLD_1_80_V       1.8000 V
2033:.\Generated_Source\PSoC4/CyLib.c ****     *    CY_LVD_THRESHOLD_1_90_V       1.9000 V
2034:.\Generated_Source\PSoC4/CyLib.c ****     *    CY_LVD_THRESHOLD_2_00_V       2.0000 V
2035:.\Generated_Source\PSoC4/CyLib.c ****     *    CY_LVD_THRESHOLD_2_10_V       2.1000 V
2036:.\Generated_Source\PSoC4/CyLib.c ****     *    CY_LVD_THRESHOLD_2_20_V       2.2000 V
2037:.\Generated_Source\PSoC4/CyLib.c ****     *    CY_LVD_THRESHOLD_2_30_V       2.3000 V
2038:.\Generated_Source\PSoC4/CyLib.c ****     *    CY_LVD_THRESHOLD_2_40_V       2.4000 V
2039:.\Generated_Source\PSoC4/CyLib.c ****     *    CY_LVD_THRESHOLD_2_50_V       2.5000 V
2040:.\Generated_Source\PSoC4/CyLib.c ****     *    CY_LVD_THRESHOLD_2_60_V       2.6000 V
2041:.\Generated_Source\PSoC4/CyLib.c ****     *    CY_LVD_THRESHOLD_2_70_V       2.7000 V
2042:.\Generated_Source\PSoC4/CyLib.c ****     *    CY_LVD_THRESHOLD_2_80_V       2.8000 V
2043:.\Generated_Source\PSoC4/CyLib.c ****     *    CY_LVD_THRESHOLD_2_90_V       2.9000 V
2044:.\Generated_Source\PSoC4/CyLib.c ****     *    CY_LVD_THRESHOLD_3_00_V       3.0000 V
2045:.\Generated_Source\PSoC4/CyLib.c ****     *    CY_LVD_THRESHOLD_3_20_V       3.2000 V
2046:.\Generated_Source\PSoC4/CyLib.c ****     *    CY_LVD_THRESHOLD_4_50_V       4.5000 V
2047:.\Generated_Source\PSoC4/CyLib.c ****     *
2048:.\Generated_Source\PSoC4/CyLib.c ****     * Return:
2049:.\Generated_Source\PSoC4/CyLib.c ****     *  None
2050:.\Generated_Source\PSoC4/CyLib.c ****     *
2051:.\Generated_Source\PSoC4/CyLib.c ****     *******************************************************************************/
2052:.\Generated_Source\PSoC4/CyLib.c ****     void CySysLvdEnable(uint32 threshold)
2053:.\Generated_Source\PSoC4/CyLib.c ****     {
2054:.\Generated_Source\PSoC4/CyLib.c ****         /* Set threshold */
2055:.\Generated_Source\PSoC4/CyLib.c ****         CY_LVD_PWR_VMON_CONFIG_REG = (CY_LVD_PWR_VMON_CONFIG_REG & ~CY_LVD_PWR_VMON_CONFIG_LVD_SEL_
2056:.\Generated_Source\PSoC4/CyLib.c ****                 ((threshold << CY_LVD_PWR_VMON_CONFIG_LVD_SEL_SHIFT) & CY_LVD_PWR_VMON_CONFIG_LVD_S
2057:.\Generated_Source\PSoC4/CyLib.c **** 
2058:.\Generated_Source\PSoC4/CyLib.c ****         CY_LVD_PWR_VMON_CONFIG_REG |= CY_LVD_PWR_VMON_CONFIG_LVD_EN;
2059:.\Generated_Source\PSoC4/CyLib.c ****         CY_LVD_PWR_INTR_MASK_REG   |= CY_LVD_PROPAGATE_INT_TO_CPU;
2060:.\Generated_Source\PSoC4/CyLib.c ****     }
2061:.\Generated_Source\PSoC4/CyLib.c **** 
2062:.\Generated_Source\PSoC4/CyLib.c **** 
2063:.\Generated_Source\PSoC4/CyLib.c ****     /*******************************************************************************
2064:.\Generated_Source\PSoC4/CyLib.c ****     * Function Name: CySysLvdDisable
2065:.\Generated_Source\PSoC4/CyLib.c ****     ********************************************************************************
2066:.\Generated_Source\PSoC4/CyLib.c ****     *
2067:.\Generated_Source\PSoC4/CyLib.c ****     * Summary:
2068:.\Generated_Source\PSoC4/CyLib.c ****     *  Disables the low voltage detection. A low voltage interrupt is disabled.
2069:.\Generated_Source\PSoC4/CyLib.c ****     *
2070:.\Generated_Source\PSoC4/CyLib.c ****     * Parameters:
2071:.\Generated_Source\PSoC4/CyLib.c ****     *  None
2072:.\Generated_Source\PSoC4/CyLib.c ****     *
2073:.\Generated_Source\PSoC4/CyLib.c ****     * Return:
ARM GAS  C:\Users\syhaines\AppData\Local\Temp\ccXhcYqL.s 			page 43


2074:.\Generated_Source\PSoC4/CyLib.c ****     *  None
2075:.\Generated_Source\PSoC4/CyLib.c ****     *
2076:.\Generated_Source\PSoC4/CyLib.c ****     *******************************************************************************/
2077:.\Generated_Source\PSoC4/CyLib.c ****     void CySysLvdDisable(void)
2078:.\Generated_Source\PSoC4/CyLib.c ****     {
2079:.\Generated_Source\PSoC4/CyLib.c ****         CY_LVD_PWR_INTR_MASK_REG   &= ~CY_LVD_PROPAGATE_INT_TO_CPU;
2080:.\Generated_Source\PSoC4/CyLib.c ****         CY_LVD_PWR_VMON_CONFIG_REG &= ~CY_LVD_PWR_VMON_CONFIG_LVD_EN;
2081:.\Generated_Source\PSoC4/CyLib.c ****     }
2082:.\Generated_Source\PSoC4/CyLib.c **** 
2083:.\Generated_Source\PSoC4/CyLib.c **** 
2084:.\Generated_Source\PSoC4/CyLib.c ****     /*******************************************************************************
2085:.\Generated_Source\PSoC4/CyLib.c ****     * Function Name: CySysLvdGetInterruptSource
2086:.\Generated_Source\PSoC4/CyLib.c ****     ********************************************************************************
2087:.\Generated_Source\PSoC4/CyLib.c ****     *
2088:.\Generated_Source\PSoC4/CyLib.c ****     * Summary:
2089:.\Generated_Source\PSoC4/CyLib.c ****     *  Gets the low voltage detection interrupt status (without clearing).
2090:.\Generated_Source\PSoC4/CyLib.c ****     *
2091:.\Generated_Source\PSoC4/CyLib.c ****     * Parameters:
2092:.\Generated_Source\PSoC4/CyLib.c ****     *  None
2093:.\Generated_Source\PSoC4/CyLib.c ****     *
2094:.\Generated_Source\PSoC4/CyLib.c ****     * Return:
2095:.\Generated_Source\PSoC4/CyLib.c ****     *  Interrupt request value:
2096:.\Generated_Source\PSoC4/CyLib.c ****     *    CY_SYS_LVD_INT - Indicates an Low Voltage Detect interrupt
2097:.\Generated_Source\PSoC4/CyLib.c ****     *
2098:.\Generated_Source\PSoC4/CyLib.c ****     *******************************************************************************/
2099:.\Generated_Source\PSoC4/CyLib.c ****     uint32 CySysLvdGetInterruptSource(void)
2100:.\Generated_Source\PSoC4/CyLib.c ****     {
2101:.\Generated_Source\PSoC4/CyLib.c ****         return (CY_LVD_PWR_INTR_REG & CY_SYS_LVD_INT);
2102:.\Generated_Source\PSoC4/CyLib.c ****     }
2103:.\Generated_Source\PSoC4/CyLib.c **** 
2104:.\Generated_Source\PSoC4/CyLib.c **** 
2105:.\Generated_Source\PSoC4/CyLib.c ****     /*******************************************************************************
2106:.\Generated_Source\PSoC4/CyLib.c ****     * Function Name: CySysLvdClearInterrupt
2107:.\Generated_Source\PSoC4/CyLib.c ****     ********************************************************************************
2108:.\Generated_Source\PSoC4/CyLib.c ****     *
2109:.\Generated_Source\PSoC4/CyLib.c ****     * Summary:
2110:.\Generated_Source\PSoC4/CyLib.c ****     *  Clears the low voltage detection interrupt status.
2111:.\Generated_Source\PSoC4/CyLib.c ****     *
2112:.\Generated_Source\PSoC4/CyLib.c ****     * Parameters:
2113:.\Generated_Source\PSoC4/CyLib.c ****     *  None
2114:.\Generated_Source\PSoC4/CyLib.c ****     *
2115:.\Generated_Source\PSoC4/CyLib.c ****     * Return:
2116:.\Generated_Source\PSoC4/CyLib.c ****     *  None
2117:.\Generated_Source\PSoC4/CyLib.c ****     *
2118:.\Generated_Source\PSoC4/CyLib.c ****     *******************************************************************************/
2119:.\Generated_Source\PSoC4/CyLib.c ****     void CySysLvdClearInterrupt(void)
2120:.\Generated_Source\PSoC4/CyLib.c ****     {
2121:.\Generated_Source\PSoC4/CyLib.c ****         CY_LVD_PWR_INTR_REG = CY_SYS_LVD_INT;
2122:.\Generated_Source\PSoC4/CyLib.c ****     }
2123:.\Generated_Source\PSoC4/CyLib.c **** 
2124:.\Generated_Source\PSoC4/CyLib.c **** #endif /* (CY_IP_SRSSV2) */
2125:.\Generated_Source\PSoC4/CyLib.c **** 
2126:.\Generated_Source\PSoC4/CyLib.c **** 
2127:.\Generated_Source\PSoC4/CyLib.c **** /*******************************************************************************
2128:.\Generated_Source\PSoC4/CyLib.c **** * Function Name: CySysGetResetReason
2129:.\Generated_Source\PSoC4/CyLib.c **** ********************************************************************************
2130:.\Generated_Source\PSoC4/CyLib.c **** *
ARM GAS  C:\Users\syhaines\AppData\Local\Temp\ccXhcYqL.s 			page 44


2131:.\Generated_Source\PSoC4/CyLib.c **** * Summary:
2132:.\Generated_Source\PSoC4/CyLib.c **** *  Reports the cause for the latest reset(s) that occurred in the system. All the
2133:.\Generated_Source\PSoC4/CyLib.c **** *  bits in the RES_CAUSE register assert when the corresponding reset cause
2134:.\Generated_Source\PSoC4/CyLib.c **** *  occurs and must be cleared by the firmware. These bits are cleared by the hardware
2135:.\Generated_Source\PSoC4/CyLib.c **** *  only during XRES, POR, or a detected brown-out.
2136:.\Generated_Source\PSoC4/CyLib.c **** *
2137:.\Generated_Source\PSoC4/CyLib.c **** * Parameters:
2138:.\Generated_Source\PSoC4/CyLib.c **** *  reason: bits in the RES_CAUSE register to clear.
2139:.\Generated_Source\PSoC4/CyLib.c **** *   CY_SYS_RESET_WDT       - WDT caused a reset
2140:.\Generated_Source\PSoC4/CyLib.c **** *   CY_SYS_RESET_PROTFAULT - A protection violation occurred that requires a RESET
2141:.\Generated_Source\PSoC4/CyLib.c **** *   CY_SYS_RESET_SW        - Cortex-M0 requested a system reset.
2142:.\Generated_Source\PSoC4/CyLib.c **** *
2143:.\Generated_Source\PSoC4/CyLib.c **** * Return:
2144:.\Generated_Source\PSoC4/CyLib.c **** *  Status. Same enumerated bit values as used for the reason parameter.
2145:.\Generated_Source\PSoC4/CyLib.c **** *
2146:.\Generated_Source\PSoC4/CyLib.c **** *******************************************************************************/
2147:.\Generated_Source\PSoC4/CyLib.c **** uint32 CySysGetResetReason(uint32 reason)
2148:.\Generated_Source\PSoC4/CyLib.c **** {
2149:.\Generated_Source\PSoC4/CyLib.c ****     uint32 status;
2150:.\Generated_Source\PSoC4/CyLib.c **** 
2151:.\Generated_Source\PSoC4/CyLib.c ****     reason &= (CY_SYS_RESET_WDT | CY_SYS_RESET_PROTFAULT | CY_SYS_RESET_SW);
2152:.\Generated_Source\PSoC4/CyLib.c ****     status = CY_SYS_RES_CAUSE_REG &
2153:.\Generated_Source\PSoC4/CyLib.c ****              (CY_SYS_RESET_WDT | CY_SYS_RESET_PROTFAULT | CY_SYS_RESET_SW);
2154:.\Generated_Source\PSoC4/CyLib.c ****     CY_SYS_RES_CAUSE_REG = reason;
2155:.\Generated_Source\PSoC4/CyLib.c **** 
2156:.\Generated_Source\PSoC4/CyLib.c ****     return (status);
2157:.\Generated_Source\PSoC4/CyLib.c **** }
2158:.\Generated_Source\PSoC4/CyLib.c **** 
2159:.\Generated_Source\PSoC4/CyLib.c **** 
2160:.\Generated_Source\PSoC4/CyLib.c **** /*******************************************************************************
2161:.\Generated_Source\PSoC4/CyLib.c **** * Function Name: CyDisableInts
2162:.\Generated_Source\PSoC4/CyLib.c **** ********************************************************************************
2163:.\Generated_Source\PSoC4/CyLib.c **** *
2164:.\Generated_Source\PSoC4/CyLib.c **** * Summary:
2165:.\Generated_Source\PSoC4/CyLib.c **** *  Disables all interrupts.
2166:.\Generated_Source\PSoC4/CyLib.c **** *
2167:.\Generated_Source\PSoC4/CyLib.c **** * Parameters:
2168:.\Generated_Source\PSoC4/CyLib.c **** *  None
2169:.\Generated_Source\PSoC4/CyLib.c **** *
2170:.\Generated_Source\PSoC4/CyLib.c **** * Return:
2171:.\Generated_Source\PSoC4/CyLib.c **** *  32 bit mask of previously enabled interrupts.
2172:.\Generated_Source\PSoC4/CyLib.c **** *
2173:.\Generated_Source\PSoC4/CyLib.c **** *******************************************************************************/
2174:.\Generated_Source\PSoC4/CyLib.c **** uint32 CyDisableInts(void)
2175:.\Generated_Source\PSoC4/CyLib.c **** {
2176:.\Generated_Source\PSoC4/CyLib.c ****     uint32 intState;
2177:.\Generated_Source\PSoC4/CyLib.c **** 
2178:.\Generated_Source\PSoC4/CyLib.c ****     /* Get current interrupt state. */
2179:.\Generated_Source\PSoC4/CyLib.c ****     intState = CY_INT_CLEAR_REG;
2180:.\Generated_Source\PSoC4/CyLib.c **** 
2181:.\Generated_Source\PSoC4/CyLib.c ****     /* Disable all interrupts. */
2182:.\Generated_Source\PSoC4/CyLib.c ****     CY_INT_CLEAR_REG = CY_INT_CLEAR_DISABLE_ALL;
2183:.\Generated_Source\PSoC4/CyLib.c **** 
2184:.\Generated_Source\PSoC4/CyLib.c ****     return (intState);
2185:.\Generated_Source\PSoC4/CyLib.c **** }
2186:.\Generated_Source\PSoC4/CyLib.c **** 
2187:.\Generated_Source\PSoC4/CyLib.c **** 
ARM GAS  C:\Users\syhaines\AppData\Local\Temp\ccXhcYqL.s 			page 45


2188:.\Generated_Source\PSoC4/CyLib.c **** /*******************************************************************************
2189:.\Generated_Source\PSoC4/CyLib.c **** * Function Name: CyEnableInts
2190:.\Generated_Source\PSoC4/CyLib.c **** ********************************************************************************
2191:.\Generated_Source\PSoC4/CyLib.c **** *
2192:.\Generated_Source\PSoC4/CyLib.c **** * Summary:
2193:.\Generated_Source\PSoC4/CyLib.c **** *  Enables interrupts to a given state.
2194:.\Generated_Source\PSoC4/CyLib.c **** *
2195:.\Generated_Source\PSoC4/CyLib.c **** * Parameters:
2196:.\Generated_Source\PSoC4/CyLib.c **** *   mask, 32 bit mask of interrupts to enable.
2197:.\Generated_Source\PSoC4/CyLib.c **** *
2198:.\Generated_Source\PSoC4/CyLib.c **** * Return:
2199:.\Generated_Source\PSoC4/CyLib.c **** *  None
2200:.\Generated_Source\PSoC4/CyLib.c **** *
2201:.\Generated_Source\PSoC4/CyLib.c **** *******************************************************************************/
2202:.\Generated_Source\PSoC4/CyLib.c **** void CyEnableInts(uint32 mask)
2203:.\Generated_Source\PSoC4/CyLib.c **** {
2204:.\Generated_Source\PSoC4/CyLib.c ****     CY_INT_ENABLE_REG = mask;
2205:.\Generated_Source\PSoC4/CyLib.c **** }
2206:.\Generated_Source\PSoC4/CyLib.c **** 
2207:.\Generated_Source\PSoC4/CyLib.c **** 
2208:.\Generated_Source\PSoC4/CyLib.c **** /*******************************************************************************
2209:.\Generated_Source\PSoC4/CyLib.c **** * Function Name: CyIntSetSysVector
2210:.\Generated_Source\PSoC4/CyLib.c **** ********************************************************************************
2211:.\Generated_Source\PSoC4/CyLib.c **** *
2212:.\Generated_Source\PSoC4/CyLib.c **** * Summary:
2213:.\Generated_Source\PSoC4/CyLib.c **** *  Sets the interrupt vector of the specified system interrupt number. These
2214:.\Generated_Source\PSoC4/CyLib.c **** *  interrupts are for SysTick, PendSV and others.
2215:.\Generated_Source\PSoC4/CyLib.c **** *
2216:.\Generated_Source\PSoC4/CyLib.c **** * Parameters:
2217:.\Generated_Source\PSoC4/CyLib.c **** *  number: System interrupt number:
2218:.\Generated_Source\PSoC4/CyLib.c **** *    CY_INT_NMI_IRQN        - Non Maskable Interrupt
2219:.\Generated_Source\PSoC4/CyLib.c **** *    CY_INT_HARD_FAULT_IRQN - Hard Fault Interrupt
2220:.\Generated_Source\PSoC4/CyLib.c **** *    CY_INT_SVCALL_IRQN     - SV Call Interrupt
2221:.\Generated_Source\PSoC4/CyLib.c **** *    CY_INT_PEND_SV_IRQN    - Pend SV Interrupt
2222:.\Generated_Source\PSoC4/CyLib.c **** *    CY_INT_SYSTICK_IRQN    - System Tick Interrupt
2223:.\Generated_Source\PSoC4/CyLib.c **** *
2224:.\Generated_Source\PSoC4/CyLib.c **** *  address: Pointer to an interrupt service routine.
2225:.\Generated_Source\PSoC4/CyLib.c **** *
2226:.\Generated_Source\PSoC4/CyLib.c **** * Return:
2227:.\Generated_Source\PSoC4/CyLib.c **** *  The old ISR vector at this location.
2228:.\Generated_Source\PSoC4/CyLib.c **** *
2229:.\Generated_Source\PSoC4/CyLib.c **** *******************************************************************************/
2230:.\Generated_Source\PSoC4/CyLib.c **** cyisraddress CyIntSetSysVector(uint8 number, cyisraddress address)
2231:.\Generated_Source\PSoC4/CyLib.c **** {
2232:.\Generated_Source\PSoC4/CyLib.c ****     cyisraddress oldIsr;
2233:.\Generated_Source\PSoC4/CyLib.c ****     cyisraddress *ramVectorTable = (cyisraddress *) CY_INT_VECT_TABLE;
2234:.\Generated_Source\PSoC4/CyLib.c **** 
2235:.\Generated_Source\PSoC4/CyLib.c ****     CYASSERT(number < CY_INT_IRQ_BASE);
2236:.\Generated_Source\PSoC4/CyLib.c **** 
2237:.\Generated_Source\PSoC4/CyLib.c ****     /* Save old Interrupt service routine. */
2238:.\Generated_Source\PSoC4/CyLib.c ****     oldIsr = ramVectorTable[number];
2239:.\Generated_Source\PSoC4/CyLib.c **** 
2240:.\Generated_Source\PSoC4/CyLib.c ****     /* Set new Interrupt service routine. */
2241:.\Generated_Source\PSoC4/CyLib.c ****     ramVectorTable[number] = address;
2242:.\Generated_Source\PSoC4/CyLib.c **** 
2243:.\Generated_Source\PSoC4/CyLib.c ****     return(oldIsr);
2244:.\Generated_Source\PSoC4/CyLib.c **** }
ARM GAS  C:\Users\syhaines\AppData\Local\Temp\ccXhcYqL.s 			page 46


2245:.\Generated_Source\PSoC4/CyLib.c **** 
2246:.\Generated_Source\PSoC4/CyLib.c **** 
2247:.\Generated_Source\PSoC4/CyLib.c **** /*******************************************************************************
2248:.\Generated_Source\PSoC4/CyLib.c **** * Function Name: CyIntGetSysVector
2249:.\Generated_Source\PSoC4/CyLib.c **** ********************************************************************************
2250:.\Generated_Source\PSoC4/CyLib.c **** *
2251:.\Generated_Source\PSoC4/CyLib.c **** * Summary:
2252:.\Generated_Source\PSoC4/CyLib.c **** *   Gets the interrupt vector of the specified system interrupt number. These
2253:.\Generated_Source\PSoC4/CyLib.c **** *   interrupts are for SysTick, PendSV and others.
2254:.\Generated_Source\PSoC4/CyLib.c **** *
2255:.\Generated_Source\PSoC4/CyLib.c **** * Parameters:
2256:.\Generated_Source\PSoC4/CyLib.c **** *  number: System interrupt number:
2257:.\Generated_Source\PSoC4/CyLib.c **** *    CY_INT_NMI_IRQN        - Non Maskable Interrupt
2258:.\Generated_Source\PSoC4/CyLib.c **** *    CY_INT_HARD_FAULT_IRQN - Hard Fault Interrupt
2259:.\Generated_Source\PSoC4/CyLib.c **** *    CY_INT_SVCALL_IRQN     - SV Call Interrupt
2260:.\Generated_Source\PSoC4/CyLib.c **** *    CY_INT_PEND_SV_IRQN    - Pend SV Interrupt
2261:.\Generated_Source\PSoC4/CyLib.c **** *    CY_INT_SYSTICK_IRQN    - System Tick Interrupt
2262:.\Generated_Source\PSoC4/CyLib.c **** *
2263:.\Generated_Source\PSoC4/CyLib.c **** * Return:
2264:.\Generated_Source\PSoC4/CyLib.c **** *   Address of the ISR in the interrupt vector table.
2265:.\Generated_Source\PSoC4/CyLib.c **** *
2266:.\Generated_Source\PSoC4/CyLib.c **** *******************************************************************************/
2267:.\Generated_Source\PSoC4/CyLib.c **** cyisraddress CyIntGetSysVector(uint8 number)
2268:.\Generated_Source\PSoC4/CyLib.c **** {
2269:.\Generated_Source\PSoC4/CyLib.c ****     cyisraddress *ramVectorTable = (cyisraddress *) CY_INT_VECT_TABLE;
2270:.\Generated_Source\PSoC4/CyLib.c **** 
2271:.\Generated_Source\PSoC4/CyLib.c ****     CYASSERT(number < CY_INT_IRQ_BASE);
2272:.\Generated_Source\PSoC4/CyLib.c **** 
2273:.\Generated_Source\PSoC4/CyLib.c ****     return(ramVectorTable[number]);
2274:.\Generated_Source\PSoC4/CyLib.c **** }
2275:.\Generated_Source\PSoC4/CyLib.c **** 
2276:.\Generated_Source\PSoC4/CyLib.c **** 
2277:.\Generated_Source\PSoC4/CyLib.c **** /*******************************************************************************
2278:.\Generated_Source\PSoC4/CyLib.c **** * Function Name: CyIntSetVector
2279:.\Generated_Source\PSoC4/CyLib.c **** ********************************************************************************
2280:.\Generated_Source\PSoC4/CyLib.c **** *
2281:.\Generated_Source\PSoC4/CyLib.c **** * Summary:
2282:.\Generated_Source\PSoC4/CyLib.c **** *  Sets the interrupt vector of the specified interrupt number.
2283:.\Generated_Source\PSoC4/CyLib.c **** *
2284:.\Generated_Source\PSoC4/CyLib.c **** * Parameters:
2285:.\Generated_Source\PSoC4/CyLib.c **** *  number: Valid range [0-31].  Interrupt number
2286:.\Generated_Source\PSoC4/CyLib.c **** *  address: Pointer to an interrupt service routine
2287:.\Generated_Source\PSoC4/CyLib.c **** *
2288:.\Generated_Source\PSoC4/CyLib.c **** * Return:
2289:.\Generated_Source\PSoC4/CyLib.c **** *   Previous interrupt vector value.
2290:.\Generated_Source\PSoC4/CyLib.c **** *
2291:.\Generated_Source\PSoC4/CyLib.c **** *******************************************************************************/
2292:.\Generated_Source\PSoC4/CyLib.c **** cyisraddress CyIntSetVector(uint8 number, cyisraddress address)
2293:.\Generated_Source\PSoC4/CyLib.c **** {
2294:.\Generated_Source\PSoC4/CyLib.c ****     cyisraddress oldIsr;
2295:.\Generated_Source\PSoC4/CyLib.c ****     cyisraddress *ramVectorTable = (cyisraddress *) CY_INT_VECT_TABLE;
2296:.\Generated_Source\PSoC4/CyLib.c **** 
2297:.\Generated_Source\PSoC4/CyLib.c ****     CYASSERT(number < CY_NUM_INTERRUPTS);
2298:.\Generated_Source\PSoC4/CyLib.c **** 
2299:.\Generated_Source\PSoC4/CyLib.c ****     /* Save old Interrupt service routine. */
2300:.\Generated_Source\PSoC4/CyLib.c ****     oldIsr = ramVectorTable[CY_INT_IRQ_BASE + number];
2301:.\Generated_Source\PSoC4/CyLib.c **** 
ARM GAS  C:\Users\syhaines\AppData\Local\Temp\ccXhcYqL.s 			page 47


2302:.\Generated_Source\PSoC4/CyLib.c ****     /* Set new Interrupt service routine. */
2303:.\Generated_Source\PSoC4/CyLib.c ****     ramVectorTable[CY_INT_IRQ_BASE + number] = address;
2304:.\Generated_Source\PSoC4/CyLib.c **** 
2305:.\Generated_Source\PSoC4/CyLib.c ****     return(oldIsr);
2306:.\Generated_Source\PSoC4/CyLib.c **** }
2307:.\Generated_Source\PSoC4/CyLib.c **** 
2308:.\Generated_Source\PSoC4/CyLib.c **** 
2309:.\Generated_Source\PSoC4/CyLib.c **** /*******************************************************************************
2310:.\Generated_Source\PSoC4/CyLib.c **** * Function Name: CyIntGetVector
2311:.\Generated_Source\PSoC4/CyLib.c **** ********************************************************************************
2312:.\Generated_Source\PSoC4/CyLib.c **** *
2313:.\Generated_Source\PSoC4/CyLib.c **** * Summary:
2314:.\Generated_Source\PSoC4/CyLib.c **** *  Gets the interrupt vector of the specified interrupt number.
2315:.\Generated_Source\PSoC4/CyLib.c **** *
2316:.\Generated_Source\PSoC4/CyLib.c **** * Parameters:
2317:.\Generated_Source\PSoC4/CyLib.c **** *  number: Valid range [0-31].  Interrupt number
2318:.\Generated_Source\PSoC4/CyLib.c **** *
2319:.\Generated_Source\PSoC4/CyLib.c **** * Return:
2320:.\Generated_Source\PSoC4/CyLib.c **** *  Address of the ISR in the interrupt vector table.
2321:.\Generated_Source\PSoC4/CyLib.c **** *
2322:.\Generated_Source\PSoC4/CyLib.c **** *******************************************************************************/
2323:.\Generated_Source\PSoC4/CyLib.c **** cyisraddress CyIntGetVector(uint8 number)
2324:.\Generated_Source\PSoC4/CyLib.c **** {
2325:.\Generated_Source\PSoC4/CyLib.c ****     cyisraddress *ramVectorTable = (cyisraddress *) CY_INT_VECT_TABLE;
2326:.\Generated_Source\PSoC4/CyLib.c **** 
2327:.\Generated_Source\PSoC4/CyLib.c ****     CYASSERT(number < CY_NUM_INTERRUPTS);
2328:.\Generated_Source\PSoC4/CyLib.c **** 
2329:.\Generated_Source\PSoC4/CyLib.c ****     return (ramVectorTable[CY_INT_IRQ_BASE + number]);
2330:.\Generated_Source\PSoC4/CyLib.c **** }
2331:.\Generated_Source\PSoC4/CyLib.c **** 
2332:.\Generated_Source\PSoC4/CyLib.c **** /*******************************************************************************
2333:.\Generated_Source\PSoC4/CyLib.c **** * Function Name: CyIntSetPriority
2334:.\Generated_Source\PSoC4/CyLib.c **** ********************************************************************************
2335:.\Generated_Source\PSoC4/CyLib.c **** *
2336:.\Generated_Source\PSoC4/CyLib.c **** * Summary:
2337:.\Generated_Source\PSoC4/CyLib.c **** *  Sets the priority of the interrupt.
2338:.\Generated_Source\PSoC4/CyLib.c **** *
2339:.\Generated_Source\PSoC4/CyLib.c **** * Parameters:
2340:.\Generated_Source\PSoC4/CyLib.c **** *  priority: Priority of the interrupt. 0 - 3, 0 being the highest.
2341:.\Generated_Source\PSoC4/CyLib.c **** *  number: The number of the interrupt, 0 - 31.
2342:.\Generated_Source\PSoC4/CyLib.c **** *
2343:.\Generated_Source\PSoC4/CyLib.c **** * Return:
2344:.\Generated_Source\PSoC4/CyLib.c **** *  None
2345:.\Generated_Source\PSoC4/CyLib.c **** *
2346:.\Generated_Source\PSoC4/CyLib.c **** *******************************************************************************/
2347:.\Generated_Source\PSoC4/CyLib.c **** void CyIntSetPriority(uint8 number, uint8 priority)
2348:.\Generated_Source\PSoC4/CyLib.c **** {
2349:.\Generated_Source\PSoC4/CyLib.c ****     uint8 interruptState;
2350:.\Generated_Source\PSoC4/CyLib.c ****     uint32 shift;
2351:.\Generated_Source\PSoC4/CyLib.c ****     uint32 value;
2352:.\Generated_Source\PSoC4/CyLib.c **** 
2353:.\Generated_Source\PSoC4/CyLib.c ****     CYASSERT(priority <= CY_MIN_PRIORITY);
2354:.\Generated_Source\PSoC4/CyLib.c ****     CYASSERT(number < CY_NUM_INTERRUPTS);
2355:.\Generated_Source\PSoC4/CyLib.c **** 
2356:.\Generated_Source\PSoC4/CyLib.c ****     shift = CY_INT_PRIORITY_SHIFT(number);
2357:.\Generated_Source\PSoC4/CyLib.c **** 
2358:.\Generated_Source\PSoC4/CyLib.c ****     interruptState = CyEnterCriticalSection();
ARM GAS  C:\Users\syhaines\AppData\Local\Temp\ccXhcYqL.s 			page 48


2359:.\Generated_Source\PSoC4/CyLib.c **** 
2360:.\Generated_Source\PSoC4/CyLib.c ****     value = CY_INT_PRIORITY_REG(number);
2361:.\Generated_Source\PSoC4/CyLib.c ****     value &= (uint32)(~((uint32)(CY_INT_PRIORITY_MASK << shift)));
2362:.\Generated_Source\PSoC4/CyLib.c ****     value |= ((uint32)priority << shift);
2363:.\Generated_Source\PSoC4/CyLib.c ****     CY_INT_PRIORITY_REG(number) = value;
2364:.\Generated_Source\PSoC4/CyLib.c **** 
2365:.\Generated_Source\PSoC4/CyLib.c ****     CyExitCriticalSection(interruptState);
2366:.\Generated_Source\PSoC4/CyLib.c **** }
2367:.\Generated_Source\PSoC4/CyLib.c **** 
2368:.\Generated_Source\PSoC4/CyLib.c **** 
2369:.\Generated_Source\PSoC4/CyLib.c **** /*******************************************************************************
2370:.\Generated_Source\PSoC4/CyLib.c **** * Function Name: CyIntGetPriority
2371:.\Generated_Source\PSoC4/CyLib.c **** ********************************************************************************
2372:.\Generated_Source\PSoC4/CyLib.c **** *
2373:.\Generated_Source\PSoC4/CyLib.c **** * Summary:
2374:.\Generated_Source\PSoC4/CyLib.c **** *  Gets the priority of the interrupt.
2375:.\Generated_Source\PSoC4/CyLib.c **** *
2376:.\Generated_Source\PSoC4/CyLib.c **** * Parameters:
2377:.\Generated_Source\PSoC4/CyLib.c **** *  number: The number of the interrupt, 0 - 31.
2378:.\Generated_Source\PSoC4/CyLib.c **** *
2379:.\Generated_Source\PSoC4/CyLib.c **** * Return:
2380:.\Generated_Source\PSoC4/CyLib.c **** *  Priority of the interrupt. 0 - 3, 0 being the highest.
2381:.\Generated_Source\PSoC4/CyLib.c **** *
2382:.\Generated_Source\PSoC4/CyLib.c **** *******************************************************************************/
2383:.\Generated_Source\PSoC4/CyLib.c **** uint8 CyIntGetPriority(uint8 number)
2384:.\Generated_Source\PSoC4/CyLib.c **** {
2385:.\Generated_Source\PSoC4/CyLib.c ****     uint8 priority;
2386:.\Generated_Source\PSoC4/CyLib.c **** 
2387:.\Generated_Source\PSoC4/CyLib.c ****     CYASSERT(number < CY_NUM_INTERRUPTS);
2388:.\Generated_Source\PSoC4/CyLib.c **** 
2389:.\Generated_Source\PSoC4/CyLib.c ****     priority = (uint8) (CY_INT_PRIORITY_REG(number) >> CY_INT_PRIORITY_SHIFT(number));
2390:.\Generated_Source\PSoC4/CyLib.c **** 
2391:.\Generated_Source\PSoC4/CyLib.c ****     return (priority & (uint8) CY_INT_PRIORITY_MASK);
2392:.\Generated_Source\PSoC4/CyLib.c **** }
2393:.\Generated_Source\PSoC4/CyLib.c **** 
2394:.\Generated_Source\PSoC4/CyLib.c **** 
2395:.\Generated_Source\PSoC4/CyLib.c **** /*******************************************************************************
2396:.\Generated_Source\PSoC4/CyLib.c **** * Function Name: CyIntEnable
2397:.\Generated_Source\PSoC4/CyLib.c **** ********************************************************************************
2398:.\Generated_Source\PSoC4/CyLib.c **** *
2399:.\Generated_Source\PSoC4/CyLib.c **** * Summary:
2400:.\Generated_Source\PSoC4/CyLib.c **** *  Enables the specified interrupt number.
2401:.\Generated_Source\PSoC4/CyLib.c **** *
2402:.\Generated_Source\PSoC4/CyLib.c **** * Parameters:
2403:.\Generated_Source\PSoC4/CyLib.c **** *  number: Valid range [0-31].  Interrupt number
2404:.\Generated_Source\PSoC4/CyLib.c **** *
2405:.\Generated_Source\PSoC4/CyLib.c **** * Return:
2406:.\Generated_Source\PSoC4/CyLib.c **** *  None
2407:.\Generated_Source\PSoC4/CyLib.c **** *
2408:.\Generated_Source\PSoC4/CyLib.c **** *******************************************************************************/
2409:.\Generated_Source\PSoC4/CyLib.c **** void CyIntEnable(uint8 number)
2410:.\Generated_Source\PSoC4/CyLib.c **** {
2411:.\Generated_Source\PSoC4/CyLib.c ****     CY_INT_ENABLE_REG = ((uint32) 0x01u << (CY_INT_ENABLE_RANGE_MASK & number));
2412:.\Generated_Source\PSoC4/CyLib.c **** }
2413:.\Generated_Source\PSoC4/CyLib.c **** 
2414:.\Generated_Source\PSoC4/CyLib.c **** 
2415:.\Generated_Source\PSoC4/CyLib.c **** /*******************************************************************************
ARM GAS  C:\Users\syhaines\AppData\Local\Temp\ccXhcYqL.s 			page 49


2416:.\Generated_Source\PSoC4/CyLib.c **** * Function Name: CyIntGetState
2417:.\Generated_Source\PSoC4/CyLib.c **** ********************************************************************************
2418:.\Generated_Source\PSoC4/CyLib.c **** *
2419:.\Generated_Source\PSoC4/CyLib.c **** * Summary:
2420:.\Generated_Source\PSoC4/CyLib.c **** *  Gets the enable state of the specified interrupt number.
2421:.\Generated_Source\PSoC4/CyLib.c **** *
2422:.\Generated_Source\PSoC4/CyLib.c **** * Parameters:
2423:.\Generated_Source\PSoC4/CyLib.c **** *  number: Valid range [0-31].  Interrupt number.
2424:.\Generated_Source\PSoC4/CyLib.c **** *
2425:.\Generated_Source\PSoC4/CyLib.c **** * Return:
2426:.\Generated_Source\PSoC4/CyLib.c **** *  Enable status: 1 if enabled, 0 if disabled
2427:.\Generated_Source\PSoC4/CyLib.c **** *
2428:.\Generated_Source\PSoC4/CyLib.c **** *******************************************************************************/
2429:.\Generated_Source\PSoC4/CyLib.c **** uint8 CyIntGetState(uint8 number)
2430:.\Generated_Source\PSoC4/CyLib.c **** {
2431:.\Generated_Source\PSoC4/CyLib.c ****     /* Get state of interrupt. */
2432:.\Generated_Source\PSoC4/CyLib.c ****     return ((0u != (CY_INT_ENABLE_REG & ((uint32) 0x01u << (CY_INT_ENABLE_RANGE_MASK & number)))) ?
2433:.\Generated_Source\PSoC4/CyLib.c **** }
2434:.\Generated_Source\PSoC4/CyLib.c **** 
2435:.\Generated_Source\PSoC4/CyLib.c **** 
2436:.\Generated_Source\PSoC4/CyLib.c **** /*******************************************************************************
2437:.\Generated_Source\PSoC4/CyLib.c **** * Function Name: CyIntDisable
2438:.\Generated_Source\PSoC4/CyLib.c **** ********************************************************************************
2439:.\Generated_Source\PSoC4/CyLib.c **** *
2440:.\Generated_Source\PSoC4/CyLib.c **** * Summary:
2441:.\Generated_Source\PSoC4/CyLib.c **** *   Disables the specified interrupt number.
2442:.\Generated_Source\PSoC4/CyLib.c **** *
2443:.\Generated_Source\PSoC4/CyLib.c **** * Parameters:
2444:.\Generated_Source\PSoC4/CyLib.c **** *   number: Valid range [0-31].  Interrupt number.
2445:.\Generated_Source\PSoC4/CyLib.c **** *
2446:.\Generated_Source\PSoC4/CyLib.c **** * Return:
2447:.\Generated_Source\PSoC4/CyLib.c **** *  None
2448:.\Generated_Source\PSoC4/CyLib.c **** *
2449:.\Generated_Source\PSoC4/CyLib.c **** *******************************************************************************/
2450:.\Generated_Source\PSoC4/CyLib.c **** void CyIntDisable(uint8 number)
2451:.\Generated_Source\PSoC4/CyLib.c **** {
2452:.\Generated_Source\PSoC4/CyLib.c ****     CY_INT_CLEAR_REG = ((uint32) 0x01u << (CY_INT_ENABLE_RANGE_MASK & number));
2453:.\Generated_Source\PSoC4/CyLib.c **** }
2454:.\Generated_Source\PSoC4/CyLib.c **** 
2455:.\Generated_Source\PSoC4/CyLib.c **** /*******************************************************************************
2456:.\Generated_Source\PSoC4/CyLib.c **** * Function Name: CyIntSetPending
2457:.\Generated_Source\PSoC4/CyLib.c **** ********************************************************************************
2458:.\Generated_Source\PSoC4/CyLib.c **** *
2459:.\Generated_Source\PSoC4/CyLib.c **** * Summary:
2460:.\Generated_Source\PSoC4/CyLib.c **** *  Forces the specified interrupt number to be pending.
2461:.\Generated_Source\PSoC4/CyLib.c **** *
2462:.\Generated_Source\PSoC4/CyLib.c **** * Parameters:
2463:.\Generated_Source\PSoC4/CyLib.c **** *  number: Valid range [0-31].  Interrupt number.
2464:.\Generated_Source\PSoC4/CyLib.c **** *
2465:.\Generated_Source\PSoC4/CyLib.c **** * Return:
2466:.\Generated_Source\PSoC4/CyLib.c **** *  None
2467:.\Generated_Source\PSoC4/CyLib.c **** *
2468:.\Generated_Source\PSoC4/CyLib.c **** *******************************************************************************/
2469:.\Generated_Source\PSoC4/CyLib.c **** void CyIntSetPending(uint8 number)
2470:.\Generated_Source\PSoC4/CyLib.c **** {
2471:.\Generated_Source\PSoC4/CyLib.c ****     CY_INT_SET_PEND_REG = ((uint32) 0x01u << (CY_INT_ENABLE_RANGE_MASK & number));
2472:.\Generated_Source\PSoC4/CyLib.c **** }
ARM GAS  C:\Users\syhaines\AppData\Local\Temp\ccXhcYqL.s 			page 50


2473:.\Generated_Source\PSoC4/CyLib.c **** 
2474:.\Generated_Source\PSoC4/CyLib.c **** 
2475:.\Generated_Source\PSoC4/CyLib.c **** /*******************************************************************************
2476:.\Generated_Source\PSoC4/CyLib.c **** * Function Name: CyIntClearPending
2477:.\Generated_Source\PSoC4/CyLib.c **** ********************************************************************************
2478:.\Generated_Source\PSoC4/CyLib.c **** *
2479:.\Generated_Source\PSoC4/CyLib.c **** * Summary:
2480:.\Generated_Source\PSoC4/CyLib.c **** *  Clears any pending interrupt for the specified interrupt number.
2481:.\Generated_Source\PSoC4/CyLib.c **** *
2482:.\Generated_Source\PSoC4/CyLib.c **** * Parameters:
2483:.\Generated_Source\PSoC4/CyLib.c **** *  number: Valid range [0-31].  Interrupt number.
2484:.\Generated_Source\PSoC4/CyLib.c **** *
2485:.\Generated_Source\PSoC4/CyLib.c **** * Return:
2486:.\Generated_Source\PSoC4/CyLib.c **** *  None
2487:.\Generated_Source\PSoC4/CyLib.c **** *
2488:.\Generated_Source\PSoC4/CyLib.c **** *******************************************************************************/
2489:.\Generated_Source\PSoC4/CyLib.c **** void CyIntClearPending(uint8 number)
2490:.\Generated_Source\PSoC4/CyLib.c **** {
2491:.\Generated_Source\PSoC4/CyLib.c ****     CY_INT_CLR_PEND_REG = ((uint32) 0x01u << (CY_INT_ENABLE_RANGE_MASK & number));
2492:.\Generated_Source\PSoC4/CyLib.c **** }
2493:.\Generated_Source\PSoC4/CyLib.c **** 
2494:.\Generated_Source\PSoC4/CyLib.c **** 
2495:.\Generated_Source\PSoC4/CyLib.c **** /*******************************************************************************
2496:.\Generated_Source\PSoC4/CyLib.c **** * Function Name: CyHalt
2497:.\Generated_Source\PSoC4/CyLib.c **** ********************************************************************************
2498:.\Generated_Source\PSoC4/CyLib.c **** *
2499:.\Generated_Source\PSoC4/CyLib.c **** * Summary:
2500:.\Generated_Source\PSoC4/CyLib.c **** *  Halts the CPU.
2501:.\Generated_Source\PSoC4/CyLib.c **** *
2502:.\Generated_Source\PSoC4/CyLib.c **** * Parameters:
2503:.\Generated_Source\PSoC4/CyLib.c **** *  reason: Value to be used during debugging.
2504:.\Generated_Source\PSoC4/CyLib.c **** *
2505:.\Generated_Source\PSoC4/CyLib.c **** * Return:
2506:.\Generated_Source\PSoC4/CyLib.c **** *  None
2507:.\Generated_Source\PSoC4/CyLib.c **** *
2508:.\Generated_Source\PSoC4/CyLib.c **** *******************************************************************************/
2509:.\Generated_Source\PSoC4/CyLib.c **** void CyHalt(uint8 reason)
2510:.\Generated_Source\PSoC4/CyLib.c **** {
2511:.\Generated_Source\PSoC4/CyLib.c ****     if(0u != reason)
2512:.\Generated_Source\PSoC4/CyLib.c ****     {
2513:.\Generated_Source\PSoC4/CyLib.c ****         /* To remove unreferenced local variable warning */
2514:.\Generated_Source\PSoC4/CyLib.c ****     }
2515:.\Generated_Source\PSoC4/CyLib.c **** 
2516:.\Generated_Source\PSoC4/CyLib.c ****     #if defined (__ARMCC_VERSION)
2517:.\Generated_Source\PSoC4/CyLib.c ****         __breakpoint(0x0);
2518:.\Generated_Source\PSoC4/CyLib.c ****     #elif defined(__GNUC__) || defined (__ICCARM__)
2519:.\Generated_Source\PSoC4/CyLib.c ****         __asm("    bkpt    1");
 308              		.loc 1 2519 0
 309              	@ 2519 ".\Generated_Source\PSoC4\CyLib.c" 1
 310 0004 01BE     		    bkpt    1
 311              	@ 0 "" 2
 312              	.LVL14:
 313              		.code	16
 314              	.L23:
 315              	.LBE41:
 316              	.LBE40:
1053:.\Generated_Source\PSoC4/CyLib.c ****         return ((CY_SYS_WDT_CONTROL_REG >> ((CY_SYS_WDT_CNT_SHIFT * counterNum) + CY_SYS_WDT_CNT_ST
ARM GAS  C:\Users\syhaines\AppData\Local\Temp\ccXhcYqL.s 			page 51


 317              		.loc 1 1053 0
 318 0006 044B     		ldr	r3, .L25
 319 0008 C000     		lsl	r0, r0, #3
 320              	.LVL15:
 321 000a 1B68     		ldr	r3, [r3]
 322 000c 0130     		add	r0, r0, #1
 323 000e C340     		lsr	r3, r3, r0
 324 0010 181C     		mov	r0, r3
 325 0012 0123     		mov	r3, #1
1054:.\Generated_Source\PSoC4/CyLib.c **** 
 326              		.loc 1 1054 0
 327              		@ sp needed
1053:.\Generated_Source\PSoC4/CyLib.c ****         return ((CY_SYS_WDT_CONTROL_REG >> ((CY_SYS_WDT_CNT_SHIFT * counterNum) + CY_SYS_WDT_CNT_ST
 328              		.loc 1 1053 0
 329 0014 1840     		and	r0, r3
1054:.\Generated_Source\PSoC4/CyLib.c **** 
 330              		.loc 1 1054 0
 331 0016 7047     		bx	lr
 332              	.L26:
 333              		.align	2
 334              	.L25:
 335 0018 10020B40 		.word	1074463248
 336              		.cfi_endproc
 337              	.LFE11:
 338              		.size	CySysWdtReadEnabledStatus, .-CySysWdtReadEnabledStatus
 339              		.section	.text.CySysWdtWriteMode,"ax",%progbits
 340              		.align	1
 341              		.global	CySysWdtWriteMode
 342              		.code	16
 343              		.thumb_func
 344              		.type	CySysWdtWriteMode, %function
 345              	CySysWdtWriteMode:
 346              	.LFB12:
1087:.\Generated_Source\PSoC4/CyLib.c ****         uint32 configRegValue;
 347              		.loc 1 1087 0
 348              		.cfi_startproc
 349              	.LVL16:
 350 0000 38B5     		push	{r3, r4, r5, lr}
 351              		.cfi_def_cfa_offset 16
 352              		.cfi_offset 3, -16
 353              		.cfi_offset 4, -12
 354              		.cfi_offset 5, -8
 355              		.cfi_offset 14, -4
1087:.\Generated_Source\PSoC4/CyLib.c ****         uint32 configRegValue;
 356              		.loc 1 1087 0
 357 0002 041C     		mov	r4, r0
 358 0004 0D1C     		mov	r5, r1
1090:.\Generated_Source\PSoC4/CyLib.c **** 
 359              		.loc 1 1090 0
 360 0006 0228     		cmp	r0, #2
 361 0008 00D9     		bls	.L28
 362              	.LVL17:
 363              	.LBB48:
 364              	.LBB49:
 365              		.loc 1 2519 0
 366              	@ 2519 ".\Generated_Source\PSoC4\CyLib.c" 1
 367 000a 01BE     		    bkpt    1
ARM GAS  C:\Users\syhaines\AppData\Local\Temp\ccXhcYqL.s 			page 52


 368              	@ 0 "" 2
 369              	.LVL18:
 370              		.code	16
 371              	.L28:
 372              	.LBE49:
 373              	.LBE48:
1092:.\Generated_Source\PSoC4/CyLib.c ****         {
 374              		.loc 1 1092 0
 375 000c 201C     		mov	r0, r4
 376              	.LVL19:
 377 000e FFF7FEFF 		bl	CySysWdtReadEnabledStatus
 378              	.LVL20:
 379 0012 0028     		cmp	r0, #0
 380 0014 0AD1     		bne	.L27
 381              	.LVL21:
 382              	.LBB50:
 383              	.LBB51:
1095:.\Generated_Source\PSoC4/CyLib.c ****             configRegValue |= (uint32)((mode & CY_SYS_WDT_MODE_MASK) << (counterNum * CY_SYS_WDT_CN
 384              		.loc 1 1095 0
 385 0016 0321     		mov	r1, #3
 386 0018 081C     		mov	r0, r1
 387 001a E400     		lsl	r4, r4, #3
 388              	.LVL22:
 389 001c A040     		lsl	r0, r0, r4
1096:.\Generated_Source\PSoC4/CyLib.c ****             CY_SYS_WDT_CONFIG_REG = configRegValue;
 390              		.loc 1 1096 0
 391 001e 2940     		and	r1, r5
 392 0020 A140     		lsl	r1, r1, r4
1094:.\Generated_Source\PSoC4/CyLib.c ****                                 (uint32)~((uint32)(CY_SYS_WDT_MODE_MASK << (counterNum * CY_SYS_WDT
 393              		.loc 1 1094 0
 394 0022 034A     		ldr	r2, .L30
 395 0024 1368     		ldr	r3, [r2]
 396 0026 8343     		bic	r3, r0
 397              	.LVL23:
1096:.\Generated_Source\PSoC4/CyLib.c ****             CY_SYS_WDT_CONFIG_REG = configRegValue;
 398              		.loc 1 1096 0
 399 0028 1943     		orr	r1, r3
 400              	.LVL24:
1097:.\Generated_Source\PSoC4/CyLib.c ****         }
 401              		.loc 1 1097 0
 402 002a 1160     		str	r1, [r2]
 403              	.LVL25:
 404              	.L27:
 405              	.LBE51:
 406              	.LBE50:
1099:.\Generated_Source\PSoC4/CyLib.c **** 
 407              		.loc 1 1099 0
 408              		@ sp needed
 409              	.LVL26:
 410 002c 38BD     		pop	{r3, r4, r5, pc}
 411              	.L31:
 412 002e C046     		.align	2
 413              	.L30:
 414 0030 0C020B40 		.word	1074463244
 415              		.cfi_endproc
 416              	.LFE12:
 417              		.size	CySysWdtWriteMode, .-CySysWdtWriteMode
ARM GAS  C:\Users\syhaines\AppData\Local\Temp\ccXhcYqL.s 			page 53


 418              		.section	.text.CySysWdtReadMode,"ax",%progbits
 419              		.align	1
 420              		.global	CySysWdtReadMode
 421              		.code	16
 422              		.thumb_func
 423              		.type	CySysWdtReadMode, %function
 424              	CySysWdtReadMode:
 425              	.LFB13:
1118:.\Generated_Source\PSoC4/CyLib.c ****         return ((CY_SYS_WDT_CONFIG_REG >> (counterNum * CY_SYS_WDT_CNT_SHIFT)) & CY_SYS_WDT_MODE_MA
 426              		.loc 1 1118 0
 427              		.cfi_startproc
 428              	.LVL27:
1119:.\Generated_Source\PSoC4/CyLib.c ****     }
 429              		.loc 1 1119 0
 430 0000 034B     		ldr	r3, .L33
 431 0002 C000     		lsl	r0, r0, #3
 432              	.LVL28:
 433 0004 1B68     		ldr	r3, [r3]
1120:.\Generated_Source\PSoC4/CyLib.c **** 
 434              		.loc 1 1120 0
 435              		@ sp needed
1119:.\Generated_Source\PSoC4/CyLib.c ****     }
 436              		.loc 1 1119 0
 437 0006 C340     		lsr	r3, r3, r0
 438 0008 181C     		mov	r0, r3
 439 000a 0323     		mov	r3, #3
 440 000c 1840     		and	r0, r3
1120:.\Generated_Source\PSoC4/CyLib.c **** 
 441              		.loc 1 1120 0
 442 000e 7047     		bx	lr
 443              	.L34:
 444              		.align	2
 445              	.L33:
 446 0010 0C020B40 		.word	1074463244
 447              		.cfi_endproc
 448              	.LFE13:
 449              		.size	CySysWdtReadMode, .-CySysWdtReadMode
 450              		.section	.text.CySysWdtWriteClearOnMatch,"ax",%progbits
 451              		.align	1
 452              		.global	CySysWdtWriteClearOnMatch
 453              		.code	16
 454              		.thumb_func
 455              		.type	CySysWdtWriteClearOnMatch, %function
 456              	CySysWdtWriteClearOnMatch:
 457              	.LFB14:
1151:.\Generated_Source\PSoC4/CyLib.c ****         uint32 configRegValue;
 458              		.loc 1 1151 0
 459              		.cfi_startproc
 460              	.LVL29:
 461 0000 38B5     		push	{r3, r4, r5, lr}
 462              		.cfi_def_cfa_offset 16
 463              		.cfi_offset 3, -16
 464              		.cfi_offset 4, -12
 465              		.cfi_offset 5, -8
 466              		.cfi_offset 14, -4
1151:.\Generated_Source\PSoC4/CyLib.c ****         uint32 configRegValue;
 467              		.loc 1 1151 0
ARM GAS  C:\Users\syhaines\AppData\Local\Temp\ccXhcYqL.s 			page 54


 468 0002 041C     		mov	r4, r0
 469 0004 0D1C     		mov	r5, r1
1154:.\Generated_Source\PSoC4/CyLib.c ****                  (counterNum == CY_SYS_WDT_COUNTER1));
 470              		.loc 1 1154 0
 471 0006 0128     		cmp	r0, #1
 472 0008 00D9     		bls	.L36
 473              	.LVL30:
 474              	.LBB52:
 475              	.LBB53:
 476              		.loc 1 2519 0
 477              	@ 2519 ".\Generated_Source\PSoC4\CyLib.c" 1
 478 000a 01BE     		    bkpt    1
 479              	@ 0 "" 2
 480              	.LVL31:
 481              		.code	16
 482              	.L36:
 483              	.LBE53:
 484              	.LBE52:
1157:.\Generated_Source\PSoC4/CyLib.c ****         {
 485              		.loc 1 1157 0
 486 000c 201C     		mov	r0, r4
 487              	.LVL32:
 488 000e FFF7FEFF 		bl	CySysWdtReadEnabledStatus
 489              	.LVL33:
 490 0012 0028     		cmp	r0, #0
 491 0014 0AD1     		bne	.L35
1160:.\Generated_Source\PSoC4/CyLib.c **** 
 492              		.loc 1 1160 0
 493 0016 E400     		lsl	r4, r4, #3
 494              	.LVL34:
 495 0018 0234     		add	r4, r4, #2
 496 001a 0121     		mov	r1, #1
1163:.\Generated_Source\PSoC4/CyLib.c **** 
 497              		.loc 1 1163 0
 498 001c A540     		lsl	r5, r5, r4
 499              	.LVL35:
1160:.\Generated_Source\PSoC4/CyLib.c **** 
 500              		.loc 1 1160 0
 501 001e A140     		lsl	r1, r1, r4
1163:.\Generated_Source\PSoC4/CyLib.c **** 
 502              		.loc 1 1163 0
 503 0020 2C1C     		mov	r4, r5
1159:.\Generated_Source\PSoC4/CyLib.c ****                 (uint32)~((uint32)((uint32)1u << ((counterNum * CY_SYS_WDT_CNT_SHIFT) + CY_SYS_WDT_
 504              		.loc 1 1159 0
 505 0022 034A     		ldr	r2, .L38
 506 0024 1368     		ldr	r3, [r2]
 507 0026 8B43     		bic	r3, r1
 508              	.LVL36:
1163:.\Generated_Source\PSoC4/CyLib.c **** 
 509              		.loc 1 1163 0
 510 0028 1C43     		orr	r4, r3
 511              	.LVL37:
1165:.\Generated_Source\PSoC4/CyLib.c ****         }
 512              		.loc 1 1165 0
 513 002a 1460     		str	r4, [r2]
 514              	.LVL38:
 515              	.L35:
ARM GAS  C:\Users\syhaines\AppData\Local\Temp\ccXhcYqL.s 			page 55


1167:.\Generated_Source\PSoC4/CyLib.c **** 
 516              		.loc 1 1167 0
 517              		@ sp needed
 518 002c 38BD     		pop	{r3, r4, r5, pc}
 519              	.L39:
 520 002e C046     		.align	2
 521              	.L38:
 522 0030 0C020B40 		.word	1074463244
 523              		.cfi_endproc
 524              	.LFE14:
 525              		.size	CySysWdtWriteClearOnMatch, .-CySysWdtWriteClearOnMatch
 526              		.section	.text.CySysWdtReadClearOnMatch,"ax",%progbits
 527              		.align	1
 528              		.global	CySysWdtReadClearOnMatch
 529              		.code	16
 530              		.thumb_func
 531              		.type	CySysWdtReadClearOnMatch, %function
 532              	CySysWdtReadClearOnMatch:
 533              	.LFB15:
1186:.\Generated_Source\PSoC4/CyLib.c ****         CYASSERT((counterNum == CY_SYS_WDT_COUNTER0) ||
 534              		.loc 1 1186 0
 535              		.cfi_startproc
 536              	.LVL39:
1187:.\Generated_Source\PSoC4/CyLib.c ****                  (counterNum == CY_SYS_WDT_COUNTER1));
 537              		.loc 1 1187 0
 538 0000 0128     		cmp	r0, #1
 539 0002 00D9     		bls	.L41
 540              	.LVL40:
 541              	.LBB54:
 542              	.LBB55:
 543              		.loc 1 2519 0
 544              	@ 2519 ".\Generated_Source\PSoC4\CyLib.c" 1
 545 0004 01BE     		    bkpt    1
 546              	@ 0 "" 2
 547              	.LVL41:
 548              		.code	16
 549              	.L41:
 550              	.LBE55:
 551              	.LBE54:
1190:.\Generated_Source\PSoC4/CyLib.c ****                         ((counterNum * CY_SYS_WDT_CNT_SHIFT) + CY_SYS_WDT_CNT_MATCH_CLR_SHIFT)) & 0
 552              		.loc 1 1190 0
 553 0006 044B     		ldr	r3, .L42
1191:.\Generated_Source\PSoC4/CyLib.c ****     }
 554              		.loc 1 1191 0
 555 0008 C000     		lsl	r0, r0, #3
 556              	.LVL42:
1190:.\Generated_Source\PSoC4/CyLib.c ****                         ((counterNum * CY_SYS_WDT_CNT_SHIFT) + CY_SYS_WDT_CNT_MATCH_CLR_SHIFT)) & 0
 557              		.loc 1 1190 0
 558 000a 1B68     		ldr	r3, [r3]
1191:.\Generated_Source\PSoC4/CyLib.c ****     }
 559              		.loc 1 1191 0
 560 000c 0230     		add	r0, r0, #2
1190:.\Generated_Source\PSoC4/CyLib.c ****                         ((counterNum * CY_SYS_WDT_CNT_SHIFT) + CY_SYS_WDT_CNT_MATCH_CLR_SHIFT)) & 0
 561              		.loc 1 1190 0
 562 000e C340     		lsr	r3, r3, r0
 563 0010 181C     		mov	r0, r3
 564 0012 0123     		mov	r3, #1
ARM GAS  C:\Users\syhaines\AppData\Local\Temp\ccXhcYqL.s 			page 56


1192:.\Generated_Source\PSoC4/CyLib.c **** 
 565              		.loc 1 1192 0
 566              		@ sp needed
1190:.\Generated_Source\PSoC4/CyLib.c ****                         ((counterNum * CY_SYS_WDT_CNT_SHIFT) + CY_SYS_WDT_CNT_MATCH_CLR_SHIFT)) & 0
 567              		.loc 1 1190 0
 568 0014 1840     		and	r0, r3
1192:.\Generated_Source\PSoC4/CyLib.c **** 
 569              		.loc 1 1192 0
 570 0016 7047     		bx	lr
 571              	.L43:
 572              		.align	2
 573              	.L42:
 574 0018 0C020B40 		.word	1074463244
 575              		.cfi_endproc
 576              	.LFE15:
 577              		.size	CySysWdtReadClearOnMatch, .-CySysWdtReadClearOnMatch
 578              		.section	.text.CySysWdtEnable,"ax",%progbits
 579              		.align	1
 580              		.global	CySysWdtEnable
 581              		.code	16
 582              		.thumb_func
 583              		.type	CySysWdtEnable, %function
 584              	CySysWdtEnable:
 585              	.LFB16:
1232:.\Generated_Source\PSoC4/CyLib.c ****         #if (!CY_IP_WCO)
 586              		.loc 1 1232 0
 587              		.cfi_startproc
 588              	.LVL43:
 589 0000 10B5     		push	{r4, lr}
 590              		.cfi_def_cfa_offset 8
 591              		.cfi_offset 4, -8
 592              		.cfi_offset 14, -4
1232:.\Generated_Source\PSoC4/CyLib.c ****         #if (!CY_IP_WCO)
 593              		.loc 1 1232 0
 594 0002 041C     		mov	r4, r0
1234:.\Generated_Source\PSoC4/CyLib.c ****         #endif /* (!CY_IP_WCO) */
 595              		.loc 1 1234 0
 596 0004 FFF7FEFF 		bl	CySysClkIloStart
 597              	.LVL44:
1237:.\Generated_Source\PSoC4/CyLib.c **** 
 598              		.loc 1 1237 0
 599 0008 094B     		ldr	r3, .L63
 600 000a 1A68     		ldr	r2, [r3]
 601 000c 2243     		orr	r2, r4
 602 000e 1A60     		str	r2, [r3]
1239:.\Generated_Source\PSoC4/CyLib.c ****         {
 603              		.loc 1 1239 0
 604 0010 E207     		lsl	r2, r4, #31
 605 0012 02D5     		bpl	.L45
 606              	.L46:
 607              	.LVL45:
 608              	.LBB70:
 609              	.LBB71:
1053:.\Generated_Source\PSoC4/CyLib.c ****     }
 610              		.loc 1 1053 0 discriminator 1
 611 0014 1A68     		ldr	r2, [r3]
 612              	.LBE71:
ARM GAS  C:\Users\syhaines\AppData\Local\Temp\ccXhcYqL.s 			page 57


 613              	.LBE70:
1241:.\Generated_Source\PSoC4/CyLib.c ****             {
 614              		.loc 1 1241 0 discriminator 1
 615 0016 9207     		lsl	r2, r2, #30
 616 0018 FCD5     		bpl	.L46
 617              	.LVL46:
 618              	.L45:
1247:.\Generated_Source\PSoC4/CyLib.c ****         {
 619              		.loc 1 1247 0
 620 001a E205     		lsl	r2, r4, #23
 621 001c 02D5     		bpl	.L47
 622              	.L48:
 623              	.LVL47:
 624              	.LBB72:
 625              	.LBB73:
1053:.\Generated_Source\PSoC4/CyLib.c ****     }
 626              		.loc 1 1053 0 discriminator 1
 627 001e 1A68     		ldr	r2, [r3]
 628              	.LBE73:
 629              	.LBE72:
1249:.\Generated_Source\PSoC4/CyLib.c ****             {
 630              		.loc 1 1249 0 discriminator 1
 631 0020 9205     		lsl	r2, r2, #22
 632 0022 FCD5     		bpl	.L48
 633              	.LVL48:
 634              	.L47:
1255:.\Generated_Source\PSoC4/CyLib.c ****         {
 635              		.loc 1 1255 0
 636 0024 E203     		lsl	r2, r4, #15
 637 0026 02D5     		bpl	.L44
 638              	.L50:
 639              	.LVL49:
 640              	.LBB74:
 641              	.LBB75:
 642              	.LBB76:
 643              	.LBB77:
1053:.\Generated_Source\PSoC4/CyLib.c ****     }
 644              		.loc 1 1053 0
 645 0028 1A68     		ldr	r2, [r3]
 646              	.LBE77:
 647              	.LBE76:
1257:.\Generated_Source\PSoC4/CyLib.c ****             {
 648              		.loc 1 1257 0
 649 002a 9203     		lsl	r2, r2, #14
 650 002c FCD5     		bpl	.L50
 651              	.LVL50:
 652              	.L44:
 653              	.LBE75:
 654              	.LBE74:
1262:.\Generated_Source\PSoC4/CyLib.c **** 
 655              		.loc 1 1262 0
 656              		@ sp needed
 657              	.LVL51:
 658 002e 10BD     		pop	{r4, pc}
 659              	.L64:
 660              		.align	2
 661              	.L63:
ARM GAS  C:\Users\syhaines\AppData\Local\Temp\ccXhcYqL.s 			page 58


 662 0030 10020B40 		.word	1074463248
 663              		.cfi_endproc
 664              	.LFE16:
 665              		.size	CySysWdtEnable, .-CySysWdtEnable
 666              		.section	.text.CySysWdtDisable,"ax",%progbits
 667              		.align	1
 668              		.global	CySysWdtDisable
 669              		.code	16
 670              		.thumb_func
 671              		.type	CySysWdtDisable, %function
 672              	CySysWdtDisable:
 673              	.LFB17:
1285:.\Generated_Source\PSoC4/CyLib.c ****         CY_SYS_WDT_CONTROL_REG &= ~counterMask;
 674              		.loc 1 1285 0
 675              		.cfi_startproc
 676              	.LVL52:
1286:.\Generated_Source\PSoC4/CyLib.c **** 
 677              		.loc 1 1286 0
 678 0000 094B     		ldr	r3, .L81
 679 0002 1A68     		ldr	r2, [r3]
 680 0004 8243     		bic	r2, r0
 681 0006 1A60     		str	r2, [r3]
1288:.\Generated_Source\PSoC4/CyLib.c ****         {
 682              		.loc 1 1288 0
 683 0008 C207     		lsl	r2, r0, #31
 684 000a 02D5     		bpl	.L66
 685              	.L67:
 686              	.LVL53:
 687              	.LBB90:
 688              	.LBB91:
1053:.\Generated_Source\PSoC4/CyLib.c ****     }
 689              		.loc 1 1053 0 discriminator 1
 690 000c 1A68     		ldr	r2, [r3]
 691              	.LBE91:
 692              	.LBE90:
1290:.\Generated_Source\PSoC4/CyLib.c ****             {
 693              		.loc 1 1290 0 discriminator 1
 694 000e 9207     		lsl	r2, r2, #30
 695 0010 FCD4     		bmi	.L67
 696              	.LVL54:
 697              	.L66:
1296:.\Generated_Source\PSoC4/CyLib.c ****         {
 698              		.loc 1 1296 0
 699 0012 C205     		lsl	r2, r0, #23
 700 0014 02D5     		bpl	.L68
 701              	.L69:
 702              	.LVL55:
 703              	.LBB92:
 704              	.LBB93:
1053:.\Generated_Source\PSoC4/CyLib.c ****     }
 705              		.loc 1 1053 0 discriminator 1
 706 0016 1A68     		ldr	r2, [r3]
 707              	.LBE93:
 708              	.LBE92:
1298:.\Generated_Source\PSoC4/CyLib.c ****             {
 709              		.loc 1 1298 0 discriminator 1
 710 0018 9205     		lsl	r2, r2, #22
ARM GAS  C:\Users\syhaines\AppData\Local\Temp\ccXhcYqL.s 			page 59


 711 001a FCD4     		bmi	.L69
 712              	.LVL56:
 713              	.L68:
1304:.\Generated_Source\PSoC4/CyLib.c ****         {
 714              		.loc 1 1304 0
 715 001c C203     		lsl	r2, r0, #15
 716 001e 02D5     		bpl	.L65
 717              	.L71:
 718              	.LVL57:
 719              	.LBB94:
 720              	.LBB95:
1053:.\Generated_Source\PSoC4/CyLib.c ****     }
 721              		.loc 1 1053 0 discriminator 1
 722 0020 1A68     		ldr	r2, [r3]
 723              	.LBE95:
 724              	.LBE94:
1306:.\Generated_Source\PSoC4/CyLib.c ****             {
 725              		.loc 1 1306 0 discriminator 1
 726 0022 9203     		lsl	r2, r2, #14
 727 0024 FCD4     		bmi	.L71
 728              	.LVL58:
 729              	.L65:
1311:.\Generated_Source\PSoC4/CyLib.c **** 
 730              		.loc 1 1311 0
 731              		@ sp needed
 732 0026 7047     		bx	lr
 733              	.L82:
 734              		.align	2
 735              	.L81:
 736 0028 10020B40 		.word	1074463248
 737              		.cfi_endproc
 738              	.LFE17:
 739              		.size	CySysWdtDisable, .-CySysWdtDisable
 740              		.section	.text.CySysWdtWriteCascade,"ax",%progbits
 741              		.align	1
 742              		.global	CySysWdtWriteCascade
 743              		.code	16
 744              		.thumb_func
 745              		.type	CySysWdtWriteCascade, %function
 746              	CySysWdtWriteCascade:
 747              	.LFB18:
1348:.\Generated_Source\PSoC4/CyLib.c ****         uint32 configRegValue;
 748              		.loc 1 1348 0
 749              		.cfi_startproc
 750              	.LVL59:
 751              	.LBB108:
 752              	.LBB109:
1053:.\Generated_Source\PSoC4/CyLib.c ****     }
 753              		.loc 1 1053 0
 754 0000 094A     		ldr	r2, .L85
 755              	.LBE109:
 756              	.LBE108:
1348:.\Generated_Source\PSoC4/CyLib.c ****         uint32 configRegValue;
 757              		.loc 1 1348 0
 758 0002 10B5     		push	{r4, lr}
 759              		.cfi_def_cfa_offset 8
 760              		.cfi_offset 4, -8
ARM GAS  C:\Users\syhaines\AppData\Local\Temp\ccXhcYqL.s 			page 60


 761              		.cfi_offset 14, -4
 762              	.LBB112:
 763              	.LBB110:
1053:.\Generated_Source\PSoC4/CyLib.c ****     }
 764              		.loc 1 1053 0
 765 0004 1168     		ldr	r1, [r2]
 766              	.LVL60:
 767              	.LBE110:
 768              	.LBE112:
 769              	.LBB113:
 770              	.LBB114:
 771 0006 1368     		ldr	r3, [r2]
 772              	.LVL61:
 773              	.LBE114:
 774              	.LBE113:
 775              	.LBB116:
 776              	.LBB117:
 777 0008 1268     		ldr	r2, [r2]
 778              	.LVL62:
 779              	.LBE117:
 780              	.LBE116:
 781              	.LBB119:
 782              	.LBB115:
 783 000a 5C0A     		lsr	r4, r3, #9
 784              	.LBE115:
 785              	.LBE119:
 786              	.LBB120:
 787              	.LBB111:
 788 000c 4B08     		lsr	r3, r1, #1
 789              	.LVL63:
 790              	.LBE111:
 791              	.LBE120:
1352:.\Generated_Source\PSoC4/CyLib.c ****                             CySysWdtReadEnabledStatus(CY_SYS_WDT_COUNTER1) |
 792              		.loc 1 1352 0
 793 000e 2343     		orr	r3, r4
 794              	.LBB121:
 795              	.LBB118:
1053:.\Generated_Source\PSoC4/CyLib.c ****     }
 796              		.loc 1 1053 0
 797 0010 520C     		lsr	r2, r2, #17
 798              	.LBE118:
 799              	.LBE121:
1352:.\Generated_Source\PSoC4/CyLib.c ****                             CySysWdtReadEnabledStatus(CY_SYS_WDT_COUNTER1) |
 800              		.loc 1 1352 0
 801 0012 1343     		orr	r3, r2
1356:.\Generated_Source\PSoC4/CyLib.c ****         {
 802              		.loc 1 1356 0
 803 0014 DB07     		lsl	r3, r3, #31
 804 0016 05D4     		bmi	.L83
1358:.\Generated_Source\PSoC4/CyLib.c ****             configRegValue &= ((uint32)(~(CY_SYS_WDT_CASCADE_01|CY_SYS_WDT_CASCADE_12)));
 805              		.loc 1 1358 0
 806 0018 044A     		ldr	r2, .L85+4
1359:.\Generated_Source\PSoC4/CyLib.c ****             configRegValue |= cascadeMask;
 807              		.loc 1 1359 0
 808 001a 054B     		ldr	r3, .L85+8
1358:.\Generated_Source\PSoC4/CyLib.c ****             configRegValue &= ((uint32)(~(CY_SYS_WDT_CASCADE_01|CY_SYS_WDT_CASCADE_12)));
 809              		.loc 1 1358 0
ARM GAS  C:\Users\syhaines\AppData\Local\Temp\ccXhcYqL.s 			page 61


 810 001c 1168     		ldr	r1, [r2]
 811              	.LVL64:
1359:.\Generated_Source\PSoC4/CyLib.c ****             configRegValue |= cascadeMask;
 812              		.loc 1 1359 0
 813 001e 0B40     		and	r3, r1
 814              	.LVL65:
1360:.\Generated_Source\PSoC4/CyLib.c ****             CY_SYS_WDT_CONFIG_REG = configRegValue;
 815              		.loc 1 1360 0
 816 0020 1843     		orr	r0, r3
 817              	.LVL66:
1361:.\Generated_Source\PSoC4/CyLib.c ****         }
 818              		.loc 1 1361 0
 819 0022 1060     		str	r0, [r2]
 820              	.LVL67:
 821              	.L83:
1363:.\Generated_Source\PSoC4/CyLib.c **** 
 822              		.loc 1 1363 0
 823              		@ sp needed
 824 0024 10BD     		pop	{r4, pc}
 825              	.L86:
 826 0026 C046     		.align	2
 827              	.L85:
 828 0028 10020B40 		.word	1074463248
 829 002c 0C020B40 		.word	1074463244
 830 0030 F7F7FFFF 		.word	-2057
 831              		.cfi_endproc
 832              	.LFE18:
 833              		.size	CySysWdtWriteCascade, .-CySysWdtWriteCascade
 834              		.section	.text.CySysWdtReadCascade,"ax",%progbits
 835              		.align	1
 836              		.global	CySysWdtReadCascade
 837              		.code	16
 838              		.thumb_func
 839              		.type	CySysWdtReadCascade, %function
 840              	CySysWdtReadCascade:
 841              	.LFB19:
1385:.\Generated_Source\PSoC4/CyLib.c ****         return (CY_SYS_WDT_CONFIG_REG & (CY_SYS_WDT_CASCADE_01 | CY_SYS_WDT_CASCADE_12));
 842              		.loc 1 1385 0
 843              		.cfi_startproc
1386:.\Generated_Source\PSoC4/CyLib.c ****     }
 844              		.loc 1 1386 0
 845 0000 024B     		ldr	r3, .L88
1387:.\Generated_Source\PSoC4/CyLib.c **** 
 846              		.loc 1 1387 0
 847              		@ sp needed
1386:.\Generated_Source\PSoC4/CyLib.c ****     }
 848              		.loc 1 1386 0
 849 0002 1868     		ldr	r0, [r3]
 850 0004 024B     		ldr	r3, .L88+4
 851 0006 1840     		and	r0, r3
1387:.\Generated_Source\PSoC4/CyLib.c **** 
 852              		.loc 1 1387 0
 853 0008 7047     		bx	lr
 854              	.L89:
 855 000a C046     		.align	2
 856              	.L88:
 857 000c 0C020B40 		.word	1074463244
ARM GAS  C:\Users\syhaines\AppData\Local\Temp\ccXhcYqL.s 			page 62


 858 0010 08080000 		.word	2056
 859              		.cfi_endproc
 860              	.LFE19:
 861              		.size	CySysWdtReadCascade, .-CySysWdtReadCascade
 862              		.section	.text.CySysWdtWriteToggleBit,"ax",%progbits
 863              		.align	1
 864              		.global	CySysWdtWriteToggleBit
 865              		.code	16
 866              		.thumb_func
 867              		.type	CySysWdtWriteToggleBit, %function
 868              	CySysWdtWriteToggleBit:
 869              	.LFB21:
1454:.\Generated_Source\PSoC4/CyLib.c ****         uint32 configRegValue;
 870              		.loc 1 1454 0
 871              		.cfi_startproc
 872              	.LVL68:
 873              	.LBB126:
 874              	.LBB127:
1053:.\Generated_Source\PSoC4/CyLib.c ****     }
 875              		.loc 1 1053 0
 876 0000 064B     		ldr	r3, .L92
 877 0002 1B68     		ldr	r3, [r3]
 878              	.LBE127:
 879              	.LBE126:
1457:.\Generated_Source\PSoC4/CyLib.c ****         {
 880              		.loc 1 1457 0
 881 0004 9B03     		lsl	r3, r3, #14
 882 0006 08D4     		bmi	.L90
1459:.\Generated_Source\PSoC4/CyLib.c ****             configRegValue &= (uint32)(~((uint32)(CY_SYS_WDT_CONFIG_BITS2_MASK << CY_SYS_WDT_CONFIG
 883              		.loc 1 1459 0
 884 0008 0549     		ldr	r1, .L92+4
1460:.\Generated_Source\PSoC4/CyLib.c ****             configRegValue |= ((bits & CY_SYS_WDT_CONFIG_BITS2_MASK) << CY_SYS_WDT_CONFIG_BITS2_POS
 885              		.loc 1 1460 0
 886 000a 064B     		ldr	r3, .L92+8
1459:.\Generated_Source\PSoC4/CyLib.c ****             configRegValue &= (uint32)(~((uint32)(CY_SYS_WDT_CONFIG_BITS2_MASK << CY_SYS_WDT_CONFIG
 887              		.loc 1 1459 0
 888 000c 0A68     		ldr	r2, [r1]
 889              	.LVL69:
1460:.\Generated_Source\PSoC4/CyLib.c ****             configRegValue |= ((bits & CY_SYS_WDT_CONFIG_BITS2_MASK) << CY_SYS_WDT_CONFIG_BITS2_POS
 890              		.loc 1 1460 0
 891 000e 1340     		and	r3, r2
 892              	.LVL70:
1461:.\Generated_Source\PSoC4/CyLib.c ****             CY_SYS_WDT_CONFIG_REG = configRegValue;
 893              		.loc 1 1461 0
 894 0010 1F22     		mov	r2, #31
 895 0012 1040     		and	r0, r2
 896              	.LVL71:
 897 0014 0006     		lsl	r0, r0, #24
 898 0016 1843     		orr	r0, r3
 899              	.LVL72:
1462:.\Generated_Source\PSoC4/CyLib.c ****         }
 900              		.loc 1 1462 0
 901 0018 0860     		str	r0, [r1]
 902              	.LVL73:
 903              	.L90:
1464:.\Generated_Source\PSoC4/CyLib.c **** 
 904              		.loc 1 1464 0
ARM GAS  C:\Users\syhaines\AppData\Local\Temp\ccXhcYqL.s 			page 63


 905              		@ sp needed
 906 001a 7047     		bx	lr
 907              	.L93:
 908              		.align	2
 909              	.L92:
 910 001c 10020B40 		.word	1074463248
 911 0020 0C020B40 		.word	1074463244
 912 0024 FFFFFFE0 		.word	-520093697
 913              		.cfi_endproc
 914              	.LFE21:
 915              		.size	CySysWdtWriteToggleBit, .-CySysWdtWriteToggleBit
 916              		.section	.text.CySysWdtReadToggleBit,"ax",%progbits
 917              		.align	1
 918              		.global	CySysWdtReadToggleBit
 919              		.code	16
 920              		.thumb_func
 921              		.type	CySysWdtReadToggleBit, %function
 922              	CySysWdtReadToggleBit:
 923              	.LFB22:
1482:.\Generated_Source\PSoC4/CyLib.c ****         return ((CY_SYS_WDT_CONFIG_REG >> CY_SYS_WDT_CONFIG_BITS2_POS) & CY_SYS_WDT_CONFIG_BITS2_MA
 924              		.loc 1 1482 0
 925              		.cfi_startproc
1483:.\Generated_Source\PSoC4/CyLib.c ****     }
 926              		.loc 1 1483 0
 927 0000 024B     		ldr	r3, .L95
1484:.\Generated_Source\PSoC4/CyLib.c **** 
 928              		.loc 1 1484 0
 929              		@ sp needed
1483:.\Generated_Source\PSoC4/CyLib.c ****     }
 930              		.loc 1 1483 0
 931 0002 1868     		ldr	r0, [r3]
 932 0004 C000     		lsl	r0, r0, #3
 933 0006 C00E     		lsr	r0, r0, #27
1484:.\Generated_Source\PSoC4/CyLib.c **** 
 934              		.loc 1 1484 0
 935 0008 7047     		bx	lr
 936              	.L96:
 937 000a C046     		.align	2
 938              	.L95:
 939 000c 0C020B40 		.word	1074463244
 940              		.cfi_endproc
 941              	.LFE22:
 942              		.size	CySysWdtReadToggleBit, .-CySysWdtReadToggleBit
 943              		.section	.text.CySysWdtReadMatch,"ax",%progbits
 944              		.align	1
 945              		.global	CySysWdtReadMatch
 946              		.code	16
 947              		.thumb_func
 948              		.type	CySysWdtReadMatch, %function
 949              	CySysWdtReadMatch:
 950              	.LFB23:
1503:.\Generated_Source\PSoC4/CyLib.c ****         CYASSERT((counterNum == CY_SYS_WDT_COUNTER0) ||
 951              		.loc 1 1503 0
 952              		.cfi_startproc
 953              	.LVL74:
1504:.\Generated_Source\PSoC4/CyLib.c ****                  (counterNum == CY_SYS_WDT_COUNTER1));
 954              		.loc 1 1504 0
ARM GAS  C:\Users\syhaines\AppData\Local\Temp\ccXhcYqL.s 			page 64


 955 0000 0128     		cmp	r0, #1
 956 0002 00D9     		bls	.L98
 957              	.LVL75:
 958              	.LBB128:
 959              	.LBB129:
 960              		.loc 1 2519 0
 961              	@ 2519 ".\Generated_Source\PSoC4\CyLib.c" 1
 962 0004 01BE     		    bkpt    1
 963              	@ 0 "" 2
 964              	.LVL76:
 965              		.code	16
 966              	.L98:
 967              	.LBE129:
 968              	.LBE128:
1507:.\Generated_Source\PSoC4/CyLib.c ****     }
 969              		.loc 1 1507 0
 970 0006 034B     		ldr	r3, .L99
 971 0008 0001     		lsl	r0, r0, #4
 972              	.LVL77:
 973 000a 1B68     		ldr	r3, [r3]
1508:.\Generated_Source\PSoC4/CyLib.c **** 
 974              		.loc 1 1508 0
 975              		@ sp needed
1507:.\Generated_Source\PSoC4/CyLib.c ****     }
 976              		.loc 1 1507 0
 977 000c C340     		lsr	r3, r3, r0
 978 000e 98B2     		uxth	r0, r3
1508:.\Generated_Source\PSoC4/CyLib.c **** 
 979              		.loc 1 1508 0
 980 0010 7047     		bx	lr
 981              	.L100:
 982 0012 C046     		.align	2
 983              	.L99:
 984 0014 08020B40 		.word	1074463240
 985              		.cfi_endproc
 986              	.LFE23:
 987              		.size	CySysWdtReadMatch, .-CySysWdtReadMatch
 988              		.section	.text.CySysWdtReadCount,"ax",%progbits
 989              		.align	1
 990              		.global	CySysWdtReadCount
 991              		.code	16
 992              		.thumb_func
 993              		.type	CySysWdtReadCount, %function
 994              	CySysWdtReadCount:
 995              	.LFB24:
1527:.\Generated_Source\PSoC4/CyLib.c ****         uint32 regValue = 0u;
 996              		.loc 1 1527 0
 997              		.cfi_startproc
 998              	.LVL78:
1530:.\Generated_Source\PSoC4/CyLib.c ****         {
 999              		.loc 1 1530 0
 1000 0000 0128     		cmp	r0, #1
 1001 0002 0AD0     		beq	.L103
 1002 0004 0028     		cmp	r0, #0
 1003 0006 04D0     		beq	.L104
 1004 0008 0228     		cmp	r0, #2
 1005 000a 0AD1     		bne	.L108
ARM GAS  C:\Users\syhaines\AppData\Local\Temp\ccXhcYqL.s 			page 65


1544:.\Generated_Source\PSoC4/CyLib.c ****             break;
 1006              		.loc 1 1544 0
 1007 000c 064B     		ldr	r3, .L109
 1008 000e 1868     		ldr	r0, [r3]
 1009              	.LVL79:
1545:.\Generated_Source\PSoC4/CyLib.c **** 
 1010              		.loc 1 1545 0
 1011 0010 09E0     		b	.L106
 1012              	.LVL80:
 1013              	.L104:
1534:.\Generated_Source\PSoC4/CyLib.c ****             break;
 1014              		.loc 1 1534 0
 1015 0012 064B     		ldr	r3, .L109+4
 1016 0014 1868     		ldr	r0, [r3]
 1017              	.LVL81:
 1018 0016 80B2     		uxth	r0, r0
 1019              	.LVL82:
1535:.\Generated_Source\PSoC4/CyLib.c **** 
 1020              		.loc 1 1535 0
 1021 0018 05E0     		b	.L106
 1022              	.LVL83:
 1023              	.L103:
1539:.\Generated_Source\PSoC4/CyLib.c ****             break;
 1024              		.loc 1 1539 0
 1025 001a 044B     		ldr	r3, .L109+4
 1026 001c 1868     		ldr	r0, [r3]
 1027              	.LVL84:
 1028 001e 000C     		lsr	r0, r0, #16
 1029              	.LVL85:
1540:.\Generated_Source\PSoC4/CyLib.c **** 
 1030              		.loc 1 1540 0
 1031 0020 01E0     		b	.L106
 1032              	.LVL86:
 1033              	.L108:
 1034              	.LBB130:
 1035              	.LBB131:
 1036              		.loc 1 2519 0
 1037              	@ 2519 ".\Generated_Source\PSoC4\CyLib.c" 1
 1038 0022 01BE     		    bkpt    1
 1039              	@ 0 "" 2
 1040              		.code	16
 1041              	.LBE131:
 1042              	.LBE130:
1528:.\Generated_Source\PSoC4/CyLib.c **** 
 1043              		.loc 1 1528 0
 1044 0024 0020     		mov	r0, #0
 1045              	.LVL87:
 1046              	.L106:
1553:.\Generated_Source\PSoC4/CyLib.c **** 
 1047              		.loc 1 1553 0
 1048              		@ sp needed
 1049 0026 7047     		bx	lr
 1050              	.L110:
 1051              		.align	2
 1052              	.L109:
 1053 0028 04020B40 		.word	1074463236
 1054 002c 00020B40 		.word	1074463232
ARM GAS  C:\Users\syhaines\AppData\Local\Temp\ccXhcYqL.s 			page 66


 1055              		.cfi_endproc
 1056              	.LFE24:
 1057              		.size	CySysWdtReadCount, .-CySysWdtReadCount
 1058              		.section	.text.CySysClkIloStop,"ax",%progbits
 1059              		.align	1
 1060              		.global	CySysClkIloStop
 1061              		.code	16
 1062              		.thumb_func
 1063              		.type	CySysClkIloStop, %function
 1064              	CySysClkIloStop:
 1065              	.LFB3:
 159:.\Generated_Source\PSoC4/CyLib.c ****     #if(CY_IP_SRSSV2)
 1066              		.loc 1 159 0
 1067              		.cfi_startproc
 1068              	.LBB154:
 1069              	.LBB155:
 995:.\Generated_Source\PSoC4/CyLib.c ****     }
 1070              		.loc 1 995 0
 1071 0000 274B     		ldr	r3, .L128
 1072              	.LBE155:
 1073              	.LBE154:
 159:.\Generated_Source\PSoC4/CyLib.c ****     #if(CY_IP_SRSSV2)
 1074              		.loc 1 159 0
 1075 0002 F7B5     		push	{r0, r1, r2, r4, r5, r6, r7, lr}
 1076              		.cfi_def_cfa_offset 32
 1077              		.cfi_offset 0, -32
 1078              		.cfi_offset 1, -28
 1079              		.cfi_offset 2, -24
 1080              		.cfi_offset 4, -20
 1081              		.cfi_offset 5, -16
 1082              		.cfi_offset 6, -12
 1083              		.cfi_offset 7, -8
 1084              		.cfi_offset 14, -4
 1085              	.LBB157:
 1086              	.LBB156:
 995:.\Generated_Source\PSoC4/CyLib.c ****     }
 1087              		.loc 1 995 0
 1088 0004 1A68     		ldr	r2, [r3]
 1089 0006 C023     		mov	r3, #192
 1090 0008 1B02     		lsl	r3, r3, #8
 1091 000a 1A40     		and	r2, r3
 1092 000c 0092     		str	r2, [sp]
 1093 000e 45D1     		bne	.L111
 1094              	.LBE156:
 1095              	.LBE157:
 1096              	.LBB158:
 1097              	.LBB159:
 213:.\Generated_Source\PSoC4/CyLib.c ****             (uint32) 1u :
 1098              		.loc 1 213 0
 1099 0010 244F     		ldr	r7, .L128+4
 1100 0012 3B68     		ldr	r3, [r7]
 214:.\Generated_Source\PSoC4/CyLib.c ****             (uint32) 0u);
 1101              		.loc 1 214 0
 1102 0014 002B     		cmp	r3, #0
 1103 0016 41DA     		bge	.L111
 1104              	.LBE159:
 1105              	.LBE158:
ARM GAS  C:\Users\syhaines\AppData\Local\Temp\ccXhcYqL.s 			page 67


 174:.\Generated_Source\PSoC4/CyLib.c ****                 CySysClkLfclkPosedgeCatch();
 1106              		.loc 1 174 0
 1107 0018 FFF7FEFF 		bl	CyEnterCriticalSection
 1108              	.LVL88:
 1109              	.LBB160:
 1110              	.LBB161:
 1111              	.LBB162:
 1112              	.LBB163:
1053:.\Generated_Source\PSoC4/CyLib.c ****     }
 1113              		.loc 1 1053 0
 1114 001c 224D     		ldr	r5, .L128+8
 1115              	.LBE163:
 1116              	.LBE162:
 1117              	.LBE161:
 1118              	.LBE160:
 174:.\Generated_Source\PSoC4/CyLib.c ****                 CySysClkLfclkPosedgeCatch();
 1119              		.loc 1 174 0
 1120 001e 0190     		str	r0, [sp, #4]
 1121              	.LVL89:
 1122              	.LBB177:
 1123              	.LBB176:
 1124              	.LBB165:
 1125              	.LBB164:
1053:.\Generated_Source\PSoC4/CyLib.c ****     }
 1126              		.loc 1 1053 0
 1127 0020 2B68     		ldr	r3, [r5]
 1128 0022 0126     		mov	r6, #1
 1129 0024 214C     		ldr	r4, .L128+12
 1130              	.LBE164:
 1131              	.LBE165:
1708:.\Generated_Source\PSoC4/CyLib.c ****         {
 1132              		.loc 1 1708 0
 1133 0026 9B07     		lsl	r3, r3, #30
 1134 0028 01D5     		bpl	.L127
1710:.\Generated_Source\PSoC4/CyLib.c ****         }
 1135              		.loc 1 1710 0
 1136 002a 009B     		ldr	r3, [sp]
 1137 002c 0AE0     		b	.L126
 1138              	.L127:
 1139              	.LVL90:
 1140              	.LBB166:
 1141              	.LBB167:
1053:.\Generated_Source\PSoC4/CyLib.c ****     }
 1142              		.loc 1 1053 0
 1143 002e 2B68     		ldr	r3, [r5]
 1144 0030 5B0A     		lsr	r3, r3, #9
 1145              	.LBE167:
 1146              	.LBE166:
1712:.\Generated_Source\PSoC4/CyLib.c ****         {
 1147              		.loc 1 1712 0
 1148 0032 3342     		tst	r3, r6
 1149 0034 01D0     		beq	.L115
1714:.\Generated_Source\PSoC4/CyLib.c ****         }
 1150              		.loc 1 1714 0
 1151 0036 2660     		str	r6, [r4]
 1152 0038 13E0     		b	.L114
 1153              	.L115:
ARM GAS  C:\Users\syhaines\AppData\Local\Temp\ccXhcYqL.s 			page 68

