ARM GAS  C:\Users\syhaines\AppData\Local\Temp\ccsJlByc.s 			page 1


   1              		.cpu cortex-m0
   2              		.fpu softvfp
   3              		.eabi_attribute 20, 1
   4              		.eabi_attribute 21, 1
   5              		.eabi_attribute 23, 3
   6              		.eabi_attribute 24, 1
   7              		.eabi_attribute 25, 1
   8              		.eabi_attribute 26, 1
   9              		.eabi_attribute 30, 4
  10              		.eabi_attribute 34, 0
  11              		.eabi_attribute 18, 4
  12              		.code	16
  13              		.file	"Dimming.c"
  14              		.text
  15              	.Ltext0:
  16              		.cfi_sections	.debug_frame
  17              		.section	.text.Dimming_Init,"ax",%progbits
  18              		.align	1
  19              		.global	Dimming_Init
  20              		.code	16
  21              		.thumb_func
  22              		.type	Dimming_Init, %function
  23              	Dimming_Init:
  24              	.LFB0:
  25              		.file 1 ".\\Generated_Source\\PSoC4\\Dimming.c"
   1:.\Generated_Source\PSoC4/Dimming.c **** /*******************************************************************************
   2:.\Generated_Source\PSoC4/Dimming.c **** * File Name: Dimming.c
   3:.\Generated_Source\PSoC4/Dimming.c **** * Version 2.0
   4:.\Generated_Source\PSoC4/Dimming.c **** *
   5:.\Generated_Source\PSoC4/Dimming.c **** * Description:
   6:.\Generated_Source\PSoC4/Dimming.c **** *  This file provides the source code to the API for the Dimming
   7:.\Generated_Source\PSoC4/Dimming.c **** *  component
   8:.\Generated_Source\PSoC4/Dimming.c **** *
   9:.\Generated_Source\PSoC4/Dimming.c **** * Note:
  10:.\Generated_Source\PSoC4/Dimming.c **** *  None
  11:.\Generated_Source\PSoC4/Dimming.c **** *
  12:.\Generated_Source\PSoC4/Dimming.c **** ********************************************************************************
  13:.\Generated_Source\PSoC4/Dimming.c **** * Copyright 2013-2014, Cypress Semiconductor Corporation.  All rights reserved.
  14:.\Generated_Source\PSoC4/Dimming.c **** * You may use this file only in accordance with the license, terms, conditions,
  15:.\Generated_Source\PSoC4/Dimming.c **** * disclaimers, and limitations in the end user license agreement accompanying
  16:.\Generated_Source\PSoC4/Dimming.c **** * the software package with which this file was provided.
  17:.\Generated_Source\PSoC4/Dimming.c **** *******************************************************************************/
  18:.\Generated_Source\PSoC4/Dimming.c **** 
  19:.\Generated_Source\PSoC4/Dimming.c **** #include "Dimming.h"
  20:.\Generated_Source\PSoC4/Dimming.c **** 
  21:.\Generated_Source\PSoC4/Dimming.c **** uint8 Dimming_initVar = 0u;
  22:.\Generated_Source\PSoC4/Dimming.c **** 
  23:.\Generated_Source\PSoC4/Dimming.c **** 
  24:.\Generated_Source\PSoC4/Dimming.c **** /*******************************************************************************
  25:.\Generated_Source\PSoC4/Dimming.c **** * Function Name: Dimming_Init
  26:.\Generated_Source\PSoC4/Dimming.c **** ********************************************************************************
  27:.\Generated_Source\PSoC4/Dimming.c **** *
  28:.\Generated_Source\PSoC4/Dimming.c **** * Summary:
  29:.\Generated_Source\PSoC4/Dimming.c **** *  Initialize/Restore default Dimming configuration.
  30:.\Generated_Source\PSoC4/Dimming.c **** *
  31:.\Generated_Source\PSoC4/Dimming.c **** * Parameters:
  32:.\Generated_Source\PSoC4/Dimming.c **** *  None
ARM GAS  C:\Users\syhaines\AppData\Local\Temp\ccsJlByc.s 			page 2


  33:.\Generated_Source\PSoC4/Dimming.c **** *
  34:.\Generated_Source\PSoC4/Dimming.c **** * Return:
  35:.\Generated_Source\PSoC4/Dimming.c **** *  None
  36:.\Generated_Source\PSoC4/Dimming.c **** *
  37:.\Generated_Source\PSoC4/Dimming.c **** *******************************************************************************/
  38:.\Generated_Source\PSoC4/Dimming.c **** void Dimming_Init(void)
  39:.\Generated_Source\PSoC4/Dimming.c **** {
  26              		.loc 1 39 0
  27              		.cfi_startproc
  40:.\Generated_Source\PSoC4/Dimming.c **** 
  41:.\Generated_Source\PSoC4/Dimming.c ****     /* Set values from customizer to CTRL */
  42:.\Generated_Source\PSoC4/Dimming.c ****     #if (Dimming__QUAD == Dimming_CONFIG)
  43:.\Generated_Source\PSoC4/Dimming.c ****         Dimming_CONTROL_REG = Dimming_CTRL_QUAD_BASE_CONFIG;
  44:.\Generated_Source\PSoC4/Dimming.c ****         
  45:.\Generated_Source\PSoC4/Dimming.c ****         /* Set values from customizer to CTRL1 */
  46:.\Generated_Source\PSoC4/Dimming.c ****         Dimming_TRIG_CONTROL1_REG  = Dimming_QUAD_SIGNALS_MODES;
  47:.\Generated_Source\PSoC4/Dimming.c **** 
  48:.\Generated_Source\PSoC4/Dimming.c ****         /* Set values from customizer to INTR */
  49:.\Generated_Source\PSoC4/Dimming.c ****         Dimming_SetInterruptMode(Dimming_QUAD_INTERRUPT_MASK);
  50:.\Generated_Source\PSoC4/Dimming.c ****         
  51:.\Generated_Source\PSoC4/Dimming.c ****          /* Set other values */
  52:.\Generated_Source\PSoC4/Dimming.c ****         Dimming_SetCounterMode(Dimming_COUNT_DOWN);
  53:.\Generated_Source\PSoC4/Dimming.c ****         Dimming_WritePeriod(Dimming_QUAD_PERIOD_INIT_VALUE);
  54:.\Generated_Source\PSoC4/Dimming.c ****         Dimming_WriteCounter(Dimming_QUAD_PERIOD_INIT_VALUE);
  55:.\Generated_Source\PSoC4/Dimming.c ****     #endif  /* (Dimming__QUAD == Dimming_CONFIG) */
  56:.\Generated_Source\PSoC4/Dimming.c **** 
  57:.\Generated_Source\PSoC4/Dimming.c ****     #if (Dimming__TIMER == Dimming_CONFIG)
  58:.\Generated_Source\PSoC4/Dimming.c ****         Dimming_CONTROL_REG = Dimming_CTRL_TIMER_BASE_CONFIG;
  59:.\Generated_Source\PSoC4/Dimming.c ****         
  60:.\Generated_Source\PSoC4/Dimming.c ****         /* Set values from customizer to CTRL1 */
  61:.\Generated_Source\PSoC4/Dimming.c ****         Dimming_TRIG_CONTROL1_REG  = Dimming_TIMER_SIGNALS_MODES;
  62:.\Generated_Source\PSoC4/Dimming.c ****     
  63:.\Generated_Source\PSoC4/Dimming.c ****         /* Set values from customizer to INTR */
  64:.\Generated_Source\PSoC4/Dimming.c ****         Dimming_SetInterruptMode(Dimming_TC_INTERRUPT_MASK);
  65:.\Generated_Source\PSoC4/Dimming.c ****         
  66:.\Generated_Source\PSoC4/Dimming.c ****         /* Set other values from customizer */
  67:.\Generated_Source\PSoC4/Dimming.c ****         Dimming_WritePeriod(Dimming_TC_PERIOD_VALUE );
  68:.\Generated_Source\PSoC4/Dimming.c **** 
  69:.\Generated_Source\PSoC4/Dimming.c ****         #if (Dimming__COMPARE == Dimming_TC_COMP_CAP_MODE)
  70:.\Generated_Source\PSoC4/Dimming.c ****             Dimming_WriteCompare(Dimming_TC_COMPARE_VALUE);
  71:.\Generated_Source\PSoC4/Dimming.c **** 
  72:.\Generated_Source\PSoC4/Dimming.c ****             #if (1u == Dimming_TC_COMPARE_SWAP)
  73:.\Generated_Source\PSoC4/Dimming.c ****                 Dimming_SetCompareSwap(1u);
  74:.\Generated_Source\PSoC4/Dimming.c ****                 Dimming_WriteCompareBuf(Dimming_TC_COMPARE_BUF_VALUE);
  75:.\Generated_Source\PSoC4/Dimming.c ****             #endif  /* (1u == Dimming_TC_COMPARE_SWAP) */
  76:.\Generated_Source\PSoC4/Dimming.c ****         #endif  /* (Dimming__COMPARE == Dimming_TC_COMP_CAP_MODE) */
  77:.\Generated_Source\PSoC4/Dimming.c **** 
  78:.\Generated_Source\PSoC4/Dimming.c ****         /* Initialize counter value */
  79:.\Generated_Source\PSoC4/Dimming.c ****         #if (Dimming_CY_TCPWM_V2 && Dimming_TIMER_UPDOWN_CNT_USED && !Dimming_CY_TCPWM_4000)
  80:.\Generated_Source\PSoC4/Dimming.c ****             Dimming_WriteCounter(1u);
  81:.\Generated_Source\PSoC4/Dimming.c ****         #elif(Dimming__COUNT_DOWN == Dimming_TC_COUNTER_MODE)
  82:.\Generated_Source\PSoC4/Dimming.c ****             Dimming_WriteCounter(Dimming_TC_PERIOD_VALUE);
  83:.\Generated_Source\PSoC4/Dimming.c ****         #else
  84:.\Generated_Source\PSoC4/Dimming.c ****             Dimming_WriteCounter(0u);
  85:.\Generated_Source\PSoC4/Dimming.c ****         #endif /* (Dimming_CY_TCPWM_V2 && Dimming_TIMER_UPDOWN_CNT_USED && !Dimming_CY_TCPWM_4000) 
  86:.\Generated_Source\PSoC4/Dimming.c ****     #endif  /* (Dimming__TIMER == Dimming_CONFIG) */
  87:.\Generated_Source\PSoC4/Dimming.c **** 
ARM GAS  C:\Users\syhaines\AppData\Local\Temp\ccsJlByc.s 			page 3


  88:.\Generated_Source\PSoC4/Dimming.c ****     #if (Dimming__PWM_SEL == Dimming_CONFIG)
  89:.\Generated_Source\PSoC4/Dimming.c ****         Dimming_CONTROL_REG = Dimming_CTRL_PWM_BASE_CONFIG;
  28              		.loc 1 89 0
  29 0000 8422     		mov	r2, #132
  90:.\Generated_Source\PSoC4/Dimming.c **** 
  91:.\Generated_Source\PSoC4/Dimming.c ****         #if (Dimming__PWM_PR == Dimming_PWM_MODE)
  92:.\Generated_Source\PSoC4/Dimming.c ****             Dimming_CONTROL_REG |= Dimming_CTRL_PWM_RUN_MODE;
  93:.\Generated_Source\PSoC4/Dimming.c ****             Dimming_WriteCounter(Dimming_PWM_PR_INIT_VALUE);
  94:.\Generated_Source\PSoC4/Dimming.c ****         #else
  95:.\Generated_Source\PSoC4/Dimming.c ****             Dimming_CONTROL_REG |= Dimming_CTRL_PWM_ALIGN | Dimming_CTRL_PWM_KILL_EVENT;
  30              		.loc 1 95 0
  31 0002 0421     		mov	r1, #4
  89:.\Generated_Source\PSoC4/Dimming.c **** 
  32              		.loc 1 89 0
  33 0004 0D4B     		ldr	r3, .L2
  34 0006 D204     		lsl	r2, r2, #19
  35 0008 1A60     		str	r2, [r3]
  36              		.loc 1 95 0
  37 000a 1A68     		ldr	r2, [r3]
  96:.\Generated_Source\PSoC4/Dimming.c ****             
  97:.\Generated_Source\PSoC4/Dimming.c ****             /* Initialize counter value */
  98:.\Generated_Source\PSoC4/Dimming.c ****             #if (Dimming_CY_TCPWM_V2 && Dimming_PWM_UPDOWN_CNT_USED && !Dimming_CY_TCPWM_4000)
  99:.\Generated_Source\PSoC4/Dimming.c ****                 Dimming_WriteCounter(1u);
 100:.\Generated_Source\PSoC4/Dimming.c ****             #elif (Dimming__RIGHT == Dimming_PWM_ALIGN)
 101:.\Generated_Source\PSoC4/Dimming.c ****                 Dimming_WriteCounter(Dimming_PWM_PERIOD_VALUE);
 102:.\Generated_Source\PSoC4/Dimming.c ****             #else 
 103:.\Generated_Source\PSoC4/Dimming.c ****                 Dimming_WriteCounter(0u);
 104:.\Generated_Source\PSoC4/Dimming.c ****             #endif  /* (Dimming_CY_TCPWM_V2 && Dimming_PWM_UPDOWN_CNT_USED && !Dimming_CY_TCPWM_400
 105:.\Generated_Source\PSoC4/Dimming.c ****         #endif  /* (Dimming__PWM_PR == Dimming_PWM_MODE) */
 106:.\Generated_Source\PSoC4/Dimming.c **** 
 107:.\Generated_Source\PSoC4/Dimming.c ****         #if (Dimming__PWM_DT == Dimming_PWM_MODE)
 108:.\Generated_Source\PSoC4/Dimming.c ****             Dimming_CONTROL_REG |= Dimming_CTRL_PWM_DEAD_TIME_CYCLE;
 109:.\Generated_Source\PSoC4/Dimming.c ****         #endif  /* (Dimming__PWM_DT == Dimming_PWM_MODE) */
 110:.\Generated_Source\PSoC4/Dimming.c **** 
 111:.\Generated_Source\PSoC4/Dimming.c ****         #if (Dimming__PWM == Dimming_PWM_MODE)
 112:.\Generated_Source\PSoC4/Dimming.c ****             Dimming_CONTROL_REG |= Dimming_CTRL_PWM_PRESCALER;
 113:.\Generated_Source\PSoC4/Dimming.c ****         #endif  /* (Dimming__PWM == Dimming_PWM_MODE) */
 114:.\Generated_Source\PSoC4/Dimming.c **** 
 115:.\Generated_Source\PSoC4/Dimming.c ****         /* Set values from customizer to CTRL1 */
 116:.\Generated_Source\PSoC4/Dimming.c ****         Dimming_TRIG_CONTROL1_REG  = Dimming_PWM_SIGNALS_MODES;
 117:.\Generated_Source\PSoC4/Dimming.c ****     
 118:.\Generated_Source\PSoC4/Dimming.c ****         /* Set values from customizer to INTR */
 119:.\Generated_Source\PSoC4/Dimming.c ****         Dimming_SetInterruptMode(Dimming_PWM_INTERRUPT_MASK);
 120:.\Generated_Source\PSoC4/Dimming.c **** 
 121:.\Generated_Source\PSoC4/Dimming.c ****         /* Set values from customizer to CTRL2 */
 122:.\Generated_Source\PSoC4/Dimming.c ****         #if (Dimming__PWM_PR == Dimming_PWM_MODE)
 123:.\Generated_Source\PSoC4/Dimming.c ****             Dimming_TRIG_CONTROL2_REG =
 124:.\Generated_Source\PSoC4/Dimming.c ****                     (Dimming_CC_MATCH_NO_CHANGE    |
 125:.\Generated_Source\PSoC4/Dimming.c ****                     Dimming_OVERLOW_NO_CHANGE      |
 126:.\Generated_Source\PSoC4/Dimming.c ****                     Dimming_UNDERFLOW_NO_CHANGE);
 127:.\Generated_Source\PSoC4/Dimming.c ****         #else
 128:.\Generated_Source\PSoC4/Dimming.c ****             #if (Dimming__LEFT == Dimming_PWM_ALIGN)
 129:.\Generated_Source\PSoC4/Dimming.c ****                 Dimming_TRIG_CONTROL2_REG = Dimming_PWM_MODE_LEFT;
 130:.\Generated_Source\PSoC4/Dimming.c ****             #endif  /* ( Dimming_PWM_LEFT == Dimming_PWM_ALIGN) */
 131:.\Generated_Source\PSoC4/Dimming.c **** 
 132:.\Generated_Source\PSoC4/Dimming.c ****             #if (Dimming__RIGHT == Dimming_PWM_ALIGN)
 133:.\Generated_Source\PSoC4/Dimming.c ****                 Dimming_TRIG_CONTROL2_REG = Dimming_PWM_MODE_RIGHT;
ARM GAS  C:\Users\syhaines\AppData\Local\Temp\ccsJlByc.s 			page 4


 134:.\Generated_Source\PSoC4/Dimming.c ****             #endif  /* ( Dimming_PWM_RIGHT == Dimming_PWM_ALIGN) */
 135:.\Generated_Source\PSoC4/Dimming.c **** 
 136:.\Generated_Source\PSoC4/Dimming.c ****             #if (Dimming__CENTER == Dimming_PWM_ALIGN)
 137:.\Generated_Source\PSoC4/Dimming.c ****                 Dimming_TRIG_CONTROL2_REG = Dimming_PWM_MODE_CENTER;
 138:.\Generated_Source\PSoC4/Dimming.c ****             #endif  /* ( Dimming_PWM_CENTER == Dimming_PWM_ALIGN) */
 139:.\Generated_Source\PSoC4/Dimming.c **** 
 140:.\Generated_Source\PSoC4/Dimming.c ****             #if (Dimming__ASYMMETRIC == Dimming_PWM_ALIGN)
 141:.\Generated_Source\PSoC4/Dimming.c ****                 Dimming_TRIG_CONTROL2_REG = Dimming_PWM_MODE_ASYM;
 142:.\Generated_Source\PSoC4/Dimming.c ****             #endif  /* (Dimming__ASYMMETRIC == Dimming_PWM_ALIGN) */
 143:.\Generated_Source\PSoC4/Dimming.c ****         #endif  /* (Dimming__PWM_PR == Dimming_PWM_MODE) */
 144:.\Generated_Source\PSoC4/Dimming.c **** 
 145:.\Generated_Source\PSoC4/Dimming.c ****         /* Set other values from customizer */
 146:.\Generated_Source\PSoC4/Dimming.c ****         Dimming_WritePeriod(Dimming_PWM_PERIOD_VALUE );
 147:.\Generated_Source\PSoC4/Dimming.c ****         Dimming_WriteCompare(Dimming_PWM_COMPARE_VALUE);
 148:.\Generated_Source\PSoC4/Dimming.c **** 
 149:.\Generated_Source\PSoC4/Dimming.c ****         #if (1u == Dimming_PWM_COMPARE_SWAP)
 150:.\Generated_Source\PSoC4/Dimming.c ****             Dimming_SetCompareSwap(1u);
 151:.\Generated_Source\PSoC4/Dimming.c ****             Dimming_WriteCompareBuf(Dimming_PWM_COMPARE_BUF_VALUE);
 152:.\Generated_Source\PSoC4/Dimming.c ****         #endif  /* (1u == Dimming_PWM_COMPARE_SWAP) */
 153:.\Generated_Source\PSoC4/Dimming.c **** 
 154:.\Generated_Source\PSoC4/Dimming.c ****         #if (1u == Dimming_PWM_PERIOD_SWAP)
 155:.\Generated_Source\PSoC4/Dimming.c ****             Dimming_SetPeriodSwap(1u);
 156:.\Generated_Source\PSoC4/Dimming.c ****             Dimming_WritePeriodBuf(Dimming_PWM_PERIOD_BUF_VALUE);
 157:.\Generated_Source\PSoC4/Dimming.c ****         #endif  /* (1u == Dimming_PWM_PERIOD_SWAP) */
 158:.\Generated_Source\PSoC4/Dimming.c ****     #endif  /* (Dimming__PWM_SEL == Dimming_CONFIG) */
 159:.\Generated_Source\PSoC4/Dimming.c ****     
 160:.\Generated_Source\PSoC4/Dimming.c **** }
  38              		.loc 1 160 0
  39              		@ sp needed
  95:.\Generated_Source\PSoC4/Dimming.c ****             
  40              		.loc 1 95 0
  41 000c 0A43     		orr	r2, r1
  42              	.LBB10:
  43              	.LBB11:
 161:.\Generated_Source\PSoC4/Dimming.c **** 
 162:.\Generated_Source\PSoC4/Dimming.c **** 
 163:.\Generated_Source\PSoC4/Dimming.c **** /*******************************************************************************
 164:.\Generated_Source\PSoC4/Dimming.c **** * Function Name: Dimming_Enable
 165:.\Generated_Source\PSoC4/Dimming.c **** ********************************************************************************
 166:.\Generated_Source\PSoC4/Dimming.c **** *
 167:.\Generated_Source\PSoC4/Dimming.c **** * Summary:
 168:.\Generated_Source\PSoC4/Dimming.c **** *  Enables the Dimming.
 169:.\Generated_Source\PSoC4/Dimming.c **** *
 170:.\Generated_Source\PSoC4/Dimming.c **** * Parameters:
 171:.\Generated_Source\PSoC4/Dimming.c **** *  None
 172:.\Generated_Source\PSoC4/Dimming.c **** *
 173:.\Generated_Source\PSoC4/Dimming.c **** * Return:
 174:.\Generated_Source\PSoC4/Dimming.c **** *  None
 175:.\Generated_Source\PSoC4/Dimming.c **** *
 176:.\Generated_Source\PSoC4/Dimming.c **** *******************************************************************************/
 177:.\Generated_Source\PSoC4/Dimming.c **** void Dimming_Enable(void)
 178:.\Generated_Source\PSoC4/Dimming.c **** {
 179:.\Generated_Source\PSoC4/Dimming.c ****     uint8 enableInterrupts;
 180:.\Generated_Source\PSoC4/Dimming.c **** 
 181:.\Generated_Source\PSoC4/Dimming.c ****     enableInterrupts = CyEnterCriticalSection();
 182:.\Generated_Source\PSoC4/Dimming.c ****     Dimming_BLOCK_CONTROL_REG |= Dimming_MASK;
 183:.\Generated_Source\PSoC4/Dimming.c ****     CyExitCriticalSection(enableInterrupts);
ARM GAS  C:\Users\syhaines\AppData\Local\Temp\ccsJlByc.s 			page 5


 184:.\Generated_Source\PSoC4/Dimming.c **** 
 185:.\Generated_Source\PSoC4/Dimming.c ****     /* Start Timer or PWM if start input is absent */
 186:.\Generated_Source\PSoC4/Dimming.c ****     #if (Dimming__PWM_SEL == Dimming_CONFIG)
 187:.\Generated_Source\PSoC4/Dimming.c ****         #if (0u == Dimming_PWM_START_SIGNAL_PRESENT)
 188:.\Generated_Source\PSoC4/Dimming.c ****             Dimming_TriggerCommand(Dimming_MASK, Dimming_CMD_START);
 189:.\Generated_Source\PSoC4/Dimming.c ****         #endif /* (0u == Dimming_PWM_START_SIGNAL_PRESENT) */
 190:.\Generated_Source\PSoC4/Dimming.c ****     #endif /* (Dimming__PWM_SEL == Dimming_CONFIG) */
 191:.\Generated_Source\PSoC4/Dimming.c **** 
 192:.\Generated_Source\PSoC4/Dimming.c ****     #if (Dimming__TIMER == Dimming_CONFIG)
 193:.\Generated_Source\PSoC4/Dimming.c ****         #if (0u == Dimming_TC_START_SIGNAL_PRESENT)
 194:.\Generated_Source\PSoC4/Dimming.c ****             Dimming_TriggerCommand(Dimming_MASK, Dimming_CMD_START);
 195:.\Generated_Source\PSoC4/Dimming.c ****         #endif /* (0u == Dimming_TC_START_SIGNAL_PRESENT) */
 196:.\Generated_Source\PSoC4/Dimming.c ****     #endif /* (Dimming__TIMER == Dimming_CONFIG) */
 197:.\Generated_Source\PSoC4/Dimming.c **** }
 198:.\Generated_Source\PSoC4/Dimming.c **** 
 199:.\Generated_Source\PSoC4/Dimming.c **** 
 200:.\Generated_Source\PSoC4/Dimming.c **** /*******************************************************************************
 201:.\Generated_Source\PSoC4/Dimming.c **** * Function Name: Dimming_Start
 202:.\Generated_Source\PSoC4/Dimming.c **** ********************************************************************************
 203:.\Generated_Source\PSoC4/Dimming.c **** *
 204:.\Generated_Source\PSoC4/Dimming.c **** * Summary:
 205:.\Generated_Source\PSoC4/Dimming.c **** *  Initializes the Dimming with default customizer
 206:.\Generated_Source\PSoC4/Dimming.c **** *  values when called the first time and enables the Dimming.
 207:.\Generated_Source\PSoC4/Dimming.c **** *  For subsequent calls the configuration is left unchanged and the component is
 208:.\Generated_Source\PSoC4/Dimming.c **** *  just enabled.
 209:.\Generated_Source\PSoC4/Dimming.c **** *
 210:.\Generated_Source\PSoC4/Dimming.c **** * Parameters:
 211:.\Generated_Source\PSoC4/Dimming.c **** *  None
 212:.\Generated_Source\PSoC4/Dimming.c **** *
 213:.\Generated_Source\PSoC4/Dimming.c **** * Return:
 214:.\Generated_Source\PSoC4/Dimming.c **** *  None
 215:.\Generated_Source\PSoC4/Dimming.c **** *
 216:.\Generated_Source\PSoC4/Dimming.c **** * Global variables:
 217:.\Generated_Source\PSoC4/Dimming.c **** *  Dimming_initVar: global variable is used to indicate initial
 218:.\Generated_Source\PSoC4/Dimming.c **** *  configuration of this component.  The variable is initialized to zero and set
 219:.\Generated_Source\PSoC4/Dimming.c **** *  to 1 the first time Dimming_Start() is called. This allows
 220:.\Generated_Source\PSoC4/Dimming.c **** *  enabling/disabling a component without re-initialization in all subsequent
 221:.\Generated_Source\PSoC4/Dimming.c **** *  calls to the Dimming_Start() routine.
 222:.\Generated_Source\PSoC4/Dimming.c **** *
 223:.\Generated_Source\PSoC4/Dimming.c **** *******************************************************************************/
 224:.\Generated_Source\PSoC4/Dimming.c **** void Dimming_Start(void)
 225:.\Generated_Source\PSoC4/Dimming.c **** {
 226:.\Generated_Source\PSoC4/Dimming.c ****     if (0u == Dimming_initVar)
 227:.\Generated_Source\PSoC4/Dimming.c ****     {
 228:.\Generated_Source\PSoC4/Dimming.c ****         Dimming_Init();
 229:.\Generated_Source\PSoC4/Dimming.c ****         Dimming_initVar = 1u;
 230:.\Generated_Source\PSoC4/Dimming.c ****     }
 231:.\Generated_Source\PSoC4/Dimming.c **** 
 232:.\Generated_Source\PSoC4/Dimming.c ****     Dimming_Enable();
 233:.\Generated_Source\PSoC4/Dimming.c **** }
 234:.\Generated_Source\PSoC4/Dimming.c **** 
 235:.\Generated_Source\PSoC4/Dimming.c **** 
 236:.\Generated_Source\PSoC4/Dimming.c **** /*******************************************************************************
 237:.\Generated_Source\PSoC4/Dimming.c **** * Function Name: Dimming_Stop
 238:.\Generated_Source\PSoC4/Dimming.c **** ********************************************************************************
 239:.\Generated_Source\PSoC4/Dimming.c **** *
 240:.\Generated_Source\PSoC4/Dimming.c **** * Summary:
ARM GAS  C:\Users\syhaines\AppData\Local\Temp\ccsJlByc.s 			page 6


 241:.\Generated_Source\PSoC4/Dimming.c **** *  Disables the Dimming.
 242:.\Generated_Source\PSoC4/Dimming.c **** *
 243:.\Generated_Source\PSoC4/Dimming.c **** * Parameters:
 244:.\Generated_Source\PSoC4/Dimming.c **** *  None
 245:.\Generated_Source\PSoC4/Dimming.c **** *
 246:.\Generated_Source\PSoC4/Dimming.c **** * Return:
 247:.\Generated_Source\PSoC4/Dimming.c **** *  None
 248:.\Generated_Source\PSoC4/Dimming.c **** *
 249:.\Generated_Source\PSoC4/Dimming.c **** *******************************************************************************/
 250:.\Generated_Source\PSoC4/Dimming.c **** void Dimming_Stop(void)
 251:.\Generated_Source\PSoC4/Dimming.c **** {
 252:.\Generated_Source\PSoC4/Dimming.c ****     uint8 enableInterrupts;
 253:.\Generated_Source\PSoC4/Dimming.c **** 
 254:.\Generated_Source\PSoC4/Dimming.c ****     enableInterrupts = CyEnterCriticalSection();
 255:.\Generated_Source\PSoC4/Dimming.c **** 
 256:.\Generated_Source\PSoC4/Dimming.c ****     Dimming_BLOCK_CONTROL_REG &= (uint32)~Dimming_MASK;
 257:.\Generated_Source\PSoC4/Dimming.c **** 
 258:.\Generated_Source\PSoC4/Dimming.c ****     CyExitCriticalSection(enableInterrupts);
 259:.\Generated_Source\PSoC4/Dimming.c **** }
 260:.\Generated_Source\PSoC4/Dimming.c **** 
 261:.\Generated_Source\PSoC4/Dimming.c **** 
 262:.\Generated_Source\PSoC4/Dimming.c **** /*******************************************************************************
 263:.\Generated_Source\PSoC4/Dimming.c **** * Function Name: Dimming_SetMode
 264:.\Generated_Source\PSoC4/Dimming.c **** ********************************************************************************
 265:.\Generated_Source\PSoC4/Dimming.c **** *
 266:.\Generated_Source\PSoC4/Dimming.c **** * Summary:
 267:.\Generated_Source\PSoC4/Dimming.c **** *  Sets the operation mode of the Dimming. This function is used when
 268:.\Generated_Source\PSoC4/Dimming.c **** *  configured as a generic Dimming and the actual mode of operation is
 269:.\Generated_Source\PSoC4/Dimming.c **** *  set at runtime. The mode must be set while the component is disabled.
 270:.\Generated_Source\PSoC4/Dimming.c **** *
 271:.\Generated_Source\PSoC4/Dimming.c **** * Parameters:
 272:.\Generated_Source\PSoC4/Dimming.c **** *  mode: Mode for the Dimming to operate in
 273:.\Generated_Source\PSoC4/Dimming.c **** *   Values:
 274:.\Generated_Source\PSoC4/Dimming.c **** *   - Dimming_MODE_TIMER_COMPARE - Timer / Counter with
 275:.\Generated_Source\PSoC4/Dimming.c **** *                                                 compare capability
 276:.\Generated_Source\PSoC4/Dimming.c **** *         - Dimming_MODE_TIMER_CAPTURE - Timer / Counter with
 277:.\Generated_Source\PSoC4/Dimming.c **** *                                                 capture capability
 278:.\Generated_Source\PSoC4/Dimming.c **** *         - Dimming_MODE_QUAD - Quadrature decoder
 279:.\Generated_Source\PSoC4/Dimming.c **** *         - Dimming_MODE_PWM - PWM
 280:.\Generated_Source\PSoC4/Dimming.c **** *         - Dimming_MODE_PWM_DT - PWM with dead time
 281:.\Generated_Source\PSoC4/Dimming.c **** *         - Dimming_MODE_PWM_PR - PWM with pseudo random capability
 282:.\Generated_Source\PSoC4/Dimming.c **** *
 283:.\Generated_Source\PSoC4/Dimming.c **** * Return:
 284:.\Generated_Source\PSoC4/Dimming.c **** *  None
 285:.\Generated_Source\PSoC4/Dimming.c **** *
 286:.\Generated_Source\PSoC4/Dimming.c **** *******************************************************************************/
 287:.\Generated_Source\PSoC4/Dimming.c **** void Dimming_SetMode(uint32 mode)
 288:.\Generated_Source\PSoC4/Dimming.c **** {
 289:.\Generated_Source\PSoC4/Dimming.c ****     uint8 enableInterrupts;
 290:.\Generated_Source\PSoC4/Dimming.c **** 
 291:.\Generated_Source\PSoC4/Dimming.c ****     enableInterrupts = CyEnterCriticalSection();
 292:.\Generated_Source\PSoC4/Dimming.c **** 
 293:.\Generated_Source\PSoC4/Dimming.c ****     Dimming_CONTROL_REG &= (uint32)~Dimming_MODE_MASK;
 294:.\Generated_Source\PSoC4/Dimming.c ****     Dimming_CONTROL_REG |= mode;
 295:.\Generated_Source\PSoC4/Dimming.c **** 
 296:.\Generated_Source\PSoC4/Dimming.c ****     CyExitCriticalSection(enableInterrupts);
 297:.\Generated_Source\PSoC4/Dimming.c **** }
ARM GAS  C:\Users\syhaines\AppData\Local\Temp\ccsJlByc.s 			page 7


 298:.\Generated_Source\PSoC4/Dimming.c **** 
 299:.\Generated_Source\PSoC4/Dimming.c **** 
 300:.\Generated_Source\PSoC4/Dimming.c **** /*******************************************************************************
 301:.\Generated_Source\PSoC4/Dimming.c **** * Function Name: Dimming_SetQDMode
 302:.\Generated_Source\PSoC4/Dimming.c **** ********************************************************************************
 303:.\Generated_Source\PSoC4/Dimming.c **** *
 304:.\Generated_Source\PSoC4/Dimming.c **** * Summary:
 305:.\Generated_Source\PSoC4/Dimming.c **** *  Sets the the Quadrature Decoder to one of the 3 supported modes.
 306:.\Generated_Source\PSoC4/Dimming.c **** *  Its functionality is only applicable to Quadrature Decoder operation.
 307:.\Generated_Source\PSoC4/Dimming.c **** *
 308:.\Generated_Source\PSoC4/Dimming.c **** * Parameters:
 309:.\Generated_Source\PSoC4/Dimming.c **** *  qdMode: Quadrature Decoder mode
 310:.\Generated_Source\PSoC4/Dimming.c **** *   Values:
 311:.\Generated_Source\PSoC4/Dimming.c **** *         - Dimming_MODE_X1 - Counts on phi 1 rising
 312:.\Generated_Source\PSoC4/Dimming.c **** *         - Dimming_MODE_X2 - Counts on both edges of phi1 (2x faster)
 313:.\Generated_Source\PSoC4/Dimming.c **** *         - Dimming_MODE_X4 - Counts on both edges of phi1 and phi2
 314:.\Generated_Source\PSoC4/Dimming.c **** *                                        (4x faster)
 315:.\Generated_Source\PSoC4/Dimming.c **** *
 316:.\Generated_Source\PSoC4/Dimming.c **** * Return:
 317:.\Generated_Source\PSoC4/Dimming.c **** *  None
 318:.\Generated_Source\PSoC4/Dimming.c **** *
 319:.\Generated_Source\PSoC4/Dimming.c **** *******************************************************************************/
 320:.\Generated_Source\PSoC4/Dimming.c **** void Dimming_SetQDMode(uint32 qdMode)
 321:.\Generated_Source\PSoC4/Dimming.c **** {
 322:.\Generated_Source\PSoC4/Dimming.c ****     uint8 enableInterrupts;
 323:.\Generated_Source\PSoC4/Dimming.c **** 
 324:.\Generated_Source\PSoC4/Dimming.c ****     enableInterrupts = CyEnterCriticalSection();
 325:.\Generated_Source\PSoC4/Dimming.c **** 
 326:.\Generated_Source\PSoC4/Dimming.c ****     Dimming_CONTROL_REG &= (uint32)~Dimming_QUAD_MODE_MASK;
 327:.\Generated_Source\PSoC4/Dimming.c ****     Dimming_CONTROL_REG |= qdMode;
 328:.\Generated_Source\PSoC4/Dimming.c **** 
 329:.\Generated_Source\PSoC4/Dimming.c ****     CyExitCriticalSection(enableInterrupts);
 330:.\Generated_Source\PSoC4/Dimming.c **** }
 331:.\Generated_Source\PSoC4/Dimming.c **** 
 332:.\Generated_Source\PSoC4/Dimming.c **** 
 333:.\Generated_Source\PSoC4/Dimming.c **** /*******************************************************************************
 334:.\Generated_Source\PSoC4/Dimming.c **** * Function Name: Dimming_SetPrescaler
 335:.\Generated_Source\PSoC4/Dimming.c **** ********************************************************************************
 336:.\Generated_Source\PSoC4/Dimming.c **** *
 337:.\Generated_Source\PSoC4/Dimming.c **** * Summary:
 338:.\Generated_Source\PSoC4/Dimming.c **** *  Sets the prescaler value that is applied to the clock input.  Not applicable
 339:.\Generated_Source\PSoC4/Dimming.c **** *  to a PWM with the dead time mode or Quadrature Decoder mode.
 340:.\Generated_Source\PSoC4/Dimming.c **** *
 341:.\Generated_Source\PSoC4/Dimming.c **** * Parameters:
 342:.\Generated_Source\PSoC4/Dimming.c **** *  prescaler: Prescaler divider value
 343:.\Generated_Source\PSoC4/Dimming.c **** *   Values:
 344:.\Generated_Source\PSoC4/Dimming.c **** *         - Dimming_PRESCALE_DIVBY1    - Divide by 1 (no prescaling)
 345:.\Generated_Source\PSoC4/Dimming.c **** *         - Dimming_PRESCALE_DIVBY2    - Divide by 2
 346:.\Generated_Source\PSoC4/Dimming.c **** *         - Dimming_PRESCALE_DIVBY4    - Divide by 4
 347:.\Generated_Source\PSoC4/Dimming.c **** *         - Dimming_PRESCALE_DIVBY8    - Divide by 8
 348:.\Generated_Source\PSoC4/Dimming.c **** *         - Dimming_PRESCALE_DIVBY16   - Divide by 16
 349:.\Generated_Source\PSoC4/Dimming.c **** *         - Dimming_PRESCALE_DIVBY32   - Divide by 32
 350:.\Generated_Source\PSoC4/Dimming.c **** *         - Dimming_PRESCALE_DIVBY64   - Divide by 64
 351:.\Generated_Source\PSoC4/Dimming.c **** *         - Dimming_PRESCALE_DIVBY128  - Divide by 128
 352:.\Generated_Source\PSoC4/Dimming.c **** *
 353:.\Generated_Source\PSoC4/Dimming.c **** * Return:
 354:.\Generated_Source\PSoC4/Dimming.c **** *  None
ARM GAS  C:\Users\syhaines\AppData\Local\Temp\ccsJlByc.s 			page 8


 355:.\Generated_Source\PSoC4/Dimming.c **** *
 356:.\Generated_Source\PSoC4/Dimming.c **** *******************************************************************************/
 357:.\Generated_Source\PSoC4/Dimming.c **** void Dimming_SetPrescaler(uint32 prescaler)
 358:.\Generated_Source\PSoC4/Dimming.c **** {
 359:.\Generated_Source\PSoC4/Dimming.c ****     uint8 enableInterrupts;
 360:.\Generated_Source\PSoC4/Dimming.c **** 
 361:.\Generated_Source\PSoC4/Dimming.c ****     enableInterrupts = CyEnterCriticalSection();
 362:.\Generated_Source\PSoC4/Dimming.c **** 
 363:.\Generated_Source\PSoC4/Dimming.c ****     Dimming_CONTROL_REG &= (uint32)~Dimming_PRESCALER_MASK;
 364:.\Generated_Source\PSoC4/Dimming.c ****     Dimming_CONTROL_REG |= prescaler;
 365:.\Generated_Source\PSoC4/Dimming.c **** 
 366:.\Generated_Source\PSoC4/Dimming.c ****     CyExitCriticalSection(enableInterrupts);
 367:.\Generated_Source\PSoC4/Dimming.c **** }
 368:.\Generated_Source\PSoC4/Dimming.c **** 
 369:.\Generated_Source\PSoC4/Dimming.c **** 
 370:.\Generated_Source\PSoC4/Dimming.c **** /*******************************************************************************
 371:.\Generated_Source\PSoC4/Dimming.c **** * Function Name: Dimming_SetOneShot
 372:.\Generated_Source\PSoC4/Dimming.c **** ********************************************************************************
 373:.\Generated_Source\PSoC4/Dimming.c **** *
 374:.\Generated_Source\PSoC4/Dimming.c **** * Summary:
 375:.\Generated_Source\PSoC4/Dimming.c **** *  Writes the register that controls whether the Dimming runs
 376:.\Generated_Source\PSoC4/Dimming.c **** *  continuously or stops when terminal count is reached.  By default the
 377:.\Generated_Source\PSoC4/Dimming.c **** *  Dimming operates in the continuous mode.
 378:.\Generated_Source\PSoC4/Dimming.c **** *
 379:.\Generated_Source\PSoC4/Dimming.c **** * Parameters:
 380:.\Generated_Source\PSoC4/Dimming.c **** *  oneShotEnable
 381:.\Generated_Source\PSoC4/Dimming.c **** *   Values:
 382:.\Generated_Source\PSoC4/Dimming.c **** *     - 0 - Continuous
 383:.\Generated_Source\PSoC4/Dimming.c **** *     - 1 - Enable One Shot
 384:.\Generated_Source\PSoC4/Dimming.c **** *
 385:.\Generated_Source\PSoC4/Dimming.c **** * Return:
 386:.\Generated_Source\PSoC4/Dimming.c **** *  None
 387:.\Generated_Source\PSoC4/Dimming.c **** *
 388:.\Generated_Source\PSoC4/Dimming.c **** *******************************************************************************/
 389:.\Generated_Source\PSoC4/Dimming.c **** void Dimming_SetOneShot(uint32 oneShotEnable)
 390:.\Generated_Source\PSoC4/Dimming.c **** {
 391:.\Generated_Source\PSoC4/Dimming.c ****     uint8 enableInterrupts;
 392:.\Generated_Source\PSoC4/Dimming.c **** 
 393:.\Generated_Source\PSoC4/Dimming.c ****     enableInterrupts = CyEnterCriticalSection();
 394:.\Generated_Source\PSoC4/Dimming.c **** 
 395:.\Generated_Source\PSoC4/Dimming.c ****     Dimming_CONTROL_REG &= (uint32)~Dimming_ONESHOT_MASK;
 396:.\Generated_Source\PSoC4/Dimming.c ****     Dimming_CONTROL_REG |= ((uint32)((oneShotEnable & Dimming_1BIT_MASK) <<
 397:.\Generated_Source\PSoC4/Dimming.c ****                                                                Dimming_ONESHOT_SHIFT));
 398:.\Generated_Source\PSoC4/Dimming.c **** 
 399:.\Generated_Source\PSoC4/Dimming.c ****     CyExitCriticalSection(enableInterrupts);
 400:.\Generated_Source\PSoC4/Dimming.c **** }
 401:.\Generated_Source\PSoC4/Dimming.c **** 
 402:.\Generated_Source\PSoC4/Dimming.c **** 
 403:.\Generated_Source\PSoC4/Dimming.c **** /*******************************************************************************
 404:.\Generated_Source\PSoC4/Dimming.c **** * Function Name: Dimming_SetPWMMode
 405:.\Generated_Source\PSoC4/Dimming.c **** ********************************************************************************
 406:.\Generated_Source\PSoC4/Dimming.c **** *
 407:.\Generated_Source\PSoC4/Dimming.c **** * Summary:
 408:.\Generated_Source\PSoC4/Dimming.c **** *  Writes the control register that determines what mode of operation the PWM
 409:.\Generated_Source\PSoC4/Dimming.c **** *  output lines are driven in.  There is a setting for what to do on a
 410:.\Generated_Source\PSoC4/Dimming.c **** *  comparison match (CC_MATCH), on an overflow (OVERFLOW) and on an underflow
 411:.\Generated_Source\PSoC4/Dimming.c **** *  (UNDERFLOW).  The value for each of the three must be ORed together to form
ARM GAS  C:\Users\syhaines\AppData\Local\Temp\ccsJlByc.s 			page 9


 412:.\Generated_Source\PSoC4/Dimming.c **** *  the mode.
 413:.\Generated_Source\PSoC4/Dimming.c **** *
 414:.\Generated_Source\PSoC4/Dimming.c **** * Parameters:
 415:.\Generated_Source\PSoC4/Dimming.c **** *  modeMask: A combination of three mode settings.  Mask must include a value
 416:.\Generated_Source\PSoC4/Dimming.c **** *  for each of the three or use one of the preconfigured PWM settings.
 417:.\Generated_Source\PSoC4/Dimming.c **** *   Values:
 418:.\Generated_Source\PSoC4/Dimming.c **** *     - CC_MATCH_SET        - Set on comparison match
 419:.\Generated_Source\PSoC4/Dimming.c **** *     - CC_MATCH_CLEAR      - Clear on comparison match
 420:.\Generated_Source\PSoC4/Dimming.c **** *     - CC_MATCH_INVERT     - Invert on comparison match
 421:.\Generated_Source\PSoC4/Dimming.c **** *     - CC_MATCH_NO_CHANGE  - No change on comparison match
 422:.\Generated_Source\PSoC4/Dimming.c **** *     - OVERLOW_SET         - Set on overflow
 423:.\Generated_Source\PSoC4/Dimming.c **** *     - OVERLOW_CLEAR       - Clear on  overflow
 424:.\Generated_Source\PSoC4/Dimming.c **** *     - OVERLOW_INVERT      - Invert on overflow
 425:.\Generated_Source\PSoC4/Dimming.c **** *     - OVERLOW_NO_CHANGE   - No change on overflow
 426:.\Generated_Source\PSoC4/Dimming.c **** *     - UNDERFLOW_SET       - Set on underflow
 427:.\Generated_Source\PSoC4/Dimming.c **** *     - UNDERFLOW_CLEAR     - Clear on underflow
 428:.\Generated_Source\PSoC4/Dimming.c **** *     - UNDERFLOW_INVERT    - Invert on underflow
 429:.\Generated_Source\PSoC4/Dimming.c **** *     - UNDERFLOW_NO_CHANGE - No change on underflow
 430:.\Generated_Source\PSoC4/Dimming.c **** *     - PWM_MODE_LEFT       - Setting for left aligned PWM.  Should be combined
 431:.\Generated_Source\PSoC4/Dimming.c **** *                             with up counting mode
 432:.\Generated_Source\PSoC4/Dimming.c **** *     - PWM_MODE_RIGHT      - Setting for right aligned PWM.  Should be combined
 433:.\Generated_Source\PSoC4/Dimming.c **** *                             with down counting mode
 434:.\Generated_Source\PSoC4/Dimming.c **** *     - PWM_MODE_CENTER     - Setting for center aligned PWM.  Should be
 435:.\Generated_Source\PSoC4/Dimming.c **** *                             combined with up/down 0 mode
 436:.\Generated_Source\PSoC4/Dimming.c **** *     - PWM_MODE_ASYM       - Setting for asymmetric PWM.  Should be combined
 437:.\Generated_Source\PSoC4/Dimming.c **** *                             with up/down 1 mode
 438:.\Generated_Source\PSoC4/Dimming.c **** *
 439:.\Generated_Source\PSoC4/Dimming.c **** * Return:
 440:.\Generated_Source\PSoC4/Dimming.c **** *  None
 441:.\Generated_Source\PSoC4/Dimming.c **** *
 442:.\Generated_Source\PSoC4/Dimming.c **** *******************************************************************************/
 443:.\Generated_Source\PSoC4/Dimming.c **** void Dimming_SetPWMMode(uint32 modeMask)
 444:.\Generated_Source\PSoC4/Dimming.c **** {
 445:.\Generated_Source\PSoC4/Dimming.c ****     Dimming_TRIG_CONTROL2_REG = (modeMask & Dimming_6BIT_MASK);
 446:.\Generated_Source\PSoC4/Dimming.c **** }
 447:.\Generated_Source\PSoC4/Dimming.c **** 
 448:.\Generated_Source\PSoC4/Dimming.c **** 
 449:.\Generated_Source\PSoC4/Dimming.c **** 
 450:.\Generated_Source\PSoC4/Dimming.c **** /*******************************************************************************
 451:.\Generated_Source\PSoC4/Dimming.c **** * Function Name: Dimming_SetPWMSyncKill
 452:.\Generated_Source\PSoC4/Dimming.c **** ********************************************************************************
 453:.\Generated_Source\PSoC4/Dimming.c **** *
 454:.\Generated_Source\PSoC4/Dimming.c **** * Summary:
 455:.\Generated_Source\PSoC4/Dimming.c **** *  Writes the register that controls whether the PWM kill signal (stop input)
 456:.\Generated_Source\PSoC4/Dimming.c **** *  causes asynchronous or synchronous kill operation.  By default the kill
 457:.\Generated_Source\PSoC4/Dimming.c **** *  operation is asynchronous.  This functionality is only applicable to the PWM
 458:.\Generated_Source\PSoC4/Dimming.c **** *  and PWM with dead time modes.
 459:.\Generated_Source\PSoC4/Dimming.c **** *
 460:.\Generated_Source\PSoC4/Dimming.c **** *  For Synchronous mode the kill signal disables both the line and line_n
 461:.\Generated_Source\PSoC4/Dimming.c **** *  signals until the next terminal count.
 462:.\Generated_Source\PSoC4/Dimming.c **** *
 463:.\Generated_Source\PSoC4/Dimming.c **** *  For Asynchronous mode the kill signal disables both the line and line_n
 464:.\Generated_Source\PSoC4/Dimming.c **** *  signals when the kill signal is present.  This mode should only be used
 465:.\Generated_Source\PSoC4/Dimming.c **** *  when the kill signal (stop input) is configured in the pass through mode
 466:.\Generated_Source\PSoC4/Dimming.c **** *  (Level sensitive signal).
 467:.\Generated_Source\PSoC4/Dimming.c **** 
 468:.\Generated_Source\PSoC4/Dimming.c **** *
ARM GAS  C:\Users\syhaines\AppData\Local\Temp\ccsJlByc.s 			page 10


 469:.\Generated_Source\PSoC4/Dimming.c **** * Parameters:
 470:.\Generated_Source\PSoC4/Dimming.c **** *  syncKillEnable
 471:.\Generated_Source\PSoC4/Dimming.c **** *   Values:
 472:.\Generated_Source\PSoC4/Dimming.c **** *     - 0 - Asynchronous
 473:.\Generated_Source\PSoC4/Dimming.c **** *     - 1 - Synchronous
 474:.\Generated_Source\PSoC4/Dimming.c **** *
 475:.\Generated_Source\PSoC4/Dimming.c **** * Return:
 476:.\Generated_Source\PSoC4/Dimming.c **** *  None
 477:.\Generated_Source\PSoC4/Dimming.c **** *
 478:.\Generated_Source\PSoC4/Dimming.c **** *******************************************************************************/
 479:.\Generated_Source\PSoC4/Dimming.c **** void Dimming_SetPWMSyncKill(uint32 syncKillEnable)
 480:.\Generated_Source\PSoC4/Dimming.c **** {
 481:.\Generated_Source\PSoC4/Dimming.c ****     uint8 enableInterrupts;
 482:.\Generated_Source\PSoC4/Dimming.c **** 
 483:.\Generated_Source\PSoC4/Dimming.c ****     enableInterrupts = CyEnterCriticalSection();
 484:.\Generated_Source\PSoC4/Dimming.c **** 
 485:.\Generated_Source\PSoC4/Dimming.c ****     Dimming_CONTROL_REG &= (uint32)~Dimming_PWM_SYNC_KILL_MASK;
 486:.\Generated_Source\PSoC4/Dimming.c ****     Dimming_CONTROL_REG |= ((uint32)((syncKillEnable & Dimming_1BIT_MASK)  <<
 487:.\Generated_Source\PSoC4/Dimming.c ****                                                Dimming_PWM_SYNC_KILL_SHIFT));
 488:.\Generated_Source\PSoC4/Dimming.c **** 
 489:.\Generated_Source\PSoC4/Dimming.c ****     CyExitCriticalSection(enableInterrupts);
 490:.\Generated_Source\PSoC4/Dimming.c **** }
 491:.\Generated_Source\PSoC4/Dimming.c **** 
 492:.\Generated_Source\PSoC4/Dimming.c **** 
 493:.\Generated_Source\PSoC4/Dimming.c **** /*******************************************************************************
 494:.\Generated_Source\PSoC4/Dimming.c **** * Function Name: Dimming_SetPWMStopOnKill
 495:.\Generated_Source\PSoC4/Dimming.c **** ********************************************************************************
 496:.\Generated_Source\PSoC4/Dimming.c **** *
 497:.\Generated_Source\PSoC4/Dimming.c **** * Summary:
 498:.\Generated_Source\PSoC4/Dimming.c **** *  Writes the register that controls whether the PWM kill signal (stop input)
 499:.\Generated_Source\PSoC4/Dimming.c **** *  causes the PWM counter to stop.  By default the kill operation does not stop
 500:.\Generated_Source\PSoC4/Dimming.c **** *  the counter.  This functionality is only applicable to the three PWM modes.
 501:.\Generated_Source\PSoC4/Dimming.c **** *
 502:.\Generated_Source\PSoC4/Dimming.c **** *
 503:.\Generated_Source\PSoC4/Dimming.c **** * Parameters:
 504:.\Generated_Source\PSoC4/Dimming.c **** *  stopOnKillEnable
 505:.\Generated_Source\PSoC4/Dimming.c **** *   Values:
 506:.\Generated_Source\PSoC4/Dimming.c **** *     - 0 - Don't stop
 507:.\Generated_Source\PSoC4/Dimming.c **** *     - 1 - Stop
 508:.\Generated_Source\PSoC4/Dimming.c **** *
 509:.\Generated_Source\PSoC4/Dimming.c **** * Return:
 510:.\Generated_Source\PSoC4/Dimming.c **** *  None
 511:.\Generated_Source\PSoC4/Dimming.c **** *
 512:.\Generated_Source\PSoC4/Dimming.c **** *******************************************************************************/
 513:.\Generated_Source\PSoC4/Dimming.c **** void Dimming_SetPWMStopOnKill(uint32 stopOnKillEnable)
 514:.\Generated_Source\PSoC4/Dimming.c **** {
 515:.\Generated_Source\PSoC4/Dimming.c ****     uint8 enableInterrupts;
 516:.\Generated_Source\PSoC4/Dimming.c **** 
 517:.\Generated_Source\PSoC4/Dimming.c ****     enableInterrupts = CyEnterCriticalSection();
 518:.\Generated_Source\PSoC4/Dimming.c **** 
 519:.\Generated_Source\PSoC4/Dimming.c ****     Dimming_CONTROL_REG &= (uint32)~Dimming_PWM_STOP_KILL_MASK;
 520:.\Generated_Source\PSoC4/Dimming.c ****     Dimming_CONTROL_REG |= ((uint32)((stopOnKillEnable & Dimming_1BIT_MASK)  <<
 521:.\Generated_Source\PSoC4/Dimming.c ****                                                          Dimming_PWM_STOP_KILL_SHIFT));
 522:.\Generated_Source\PSoC4/Dimming.c **** 
 523:.\Generated_Source\PSoC4/Dimming.c ****     CyExitCriticalSection(enableInterrupts);
 524:.\Generated_Source\PSoC4/Dimming.c **** }
 525:.\Generated_Source\PSoC4/Dimming.c **** 
ARM GAS  C:\Users\syhaines\AppData\Local\Temp\ccsJlByc.s 			page 11


 526:.\Generated_Source\PSoC4/Dimming.c **** 
 527:.\Generated_Source\PSoC4/Dimming.c **** /*******************************************************************************
 528:.\Generated_Source\PSoC4/Dimming.c **** * Function Name: Dimming_SetPWMDeadTime
 529:.\Generated_Source\PSoC4/Dimming.c **** ********************************************************************************
 530:.\Generated_Source\PSoC4/Dimming.c **** *
 531:.\Generated_Source\PSoC4/Dimming.c **** * Summary:
 532:.\Generated_Source\PSoC4/Dimming.c **** *  Writes the dead time control value.  This value delays the rising edge of
 533:.\Generated_Source\PSoC4/Dimming.c **** *  both the line and line_n signals the designated number of cycles resulting
 534:.\Generated_Source\PSoC4/Dimming.c **** *  in both signals being inactive for that many cycles.  This functionality is
 535:.\Generated_Source\PSoC4/Dimming.c **** *  only applicable to the PWM in the dead time mode.
 536:.\Generated_Source\PSoC4/Dimming.c **** 
 537:.\Generated_Source\PSoC4/Dimming.c **** *
 538:.\Generated_Source\PSoC4/Dimming.c **** * Parameters:
 539:.\Generated_Source\PSoC4/Dimming.c **** *  Dead time to insert
 540:.\Generated_Source\PSoC4/Dimming.c **** *   Values: 0 to 255
 541:.\Generated_Source\PSoC4/Dimming.c **** *
 542:.\Generated_Source\PSoC4/Dimming.c **** * Return:
 543:.\Generated_Source\PSoC4/Dimming.c **** *  None
 544:.\Generated_Source\PSoC4/Dimming.c **** *
 545:.\Generated_Source\PSoC4/Dimming.c **** *******************************************************************************/
 546:.\Generated_Source\PSoC4/Dimming.c **** void Dimming_SetPWMDeadTime(uint32 deadTime)
 547:.\Generated_Source\PSoC4/Dimming.c **** {
 548:.\Generated_Source\PSoC4/Dimming.c ****     uint8 enableInterrupts;
 549:.\Generated_Source\PSoC4/Dimming.c **** 
 550:.\Generated_Source\PSoC4/Dimming.c ****     enableInterrupts = CyEnterCriticalSection();
 551:.\Generated_Source\PSoC4/Dimming.c **** 
 552:.\Generated_Source\PSoC4/Dimming.c ****     Dimming_CONTROL_REG &= (uint32)~Dimming_PRESCALER_MASK;
 553:.\Generated_Source\PSoC4/Dimming.c ****     Dimming_CONTROL_REG |= ((uint32)((deadTime & Dimming_8BIT_MASK) <<
 554:.\Generated_Source\PSoC4/Dimming.c ****                                                           Dimming_PRESCALER_SHIFT));
 555:.\Generated_Source\PSoC4/Dimming.c **** 
 556:.\Generated_Source\PSoC4/Dimming.c ****     CyExitCriticalSection(enableInterrupts);
 557:.\Generated_Source\PSoC4/Dimming.c **** }
 558:.\Generated_Source\PSoC4/Dimming.c **** 
 559:.\Generated_Source\PSoC4/Dimming.c **** 
 560:.\Generated_Source\PSoC4/Dimming.c **** /*******************************************************************************
 561:.\Generated_Source\PSoC4/Dimming.c **** * Function Name: Dimming_SetPWMInvert
 562:.\Generated_Source\PSoC4/Dimming.c **** ********************************************************************************
 563:.\Generated_Source\PSoC4/Dimming.c **** *
 564:.\Generated_Source\PSoC4/Dimming.c **** * Summary:
 565:.\Generated_Source\PSoC4/Dimming.c **** *  Writes the bits that control whether the line and line_n outputs are
 566:.\Generated_Source\PSoC4/Dimming.c **** *  inverted from their normal output values.  This functionality is only
 567:.\Generated_Source\PSoC4/Dimming.c **** *  applicable to the three PWM modes.
 568:.\Generated_Source\PSoC4/Dimming.c **** *
 569:.\Generated_Source\PSoC4/Dimming.c **** * Parameters:
 570:.\Generated_Source\PSoC4/Dimming.c **** *  mask: Mask of outputs to invert.
 571:.\Generated_Source\PSoC4/Dimming.c **** *   Values:
 572:.\Generated_Source\PSoC4/Dimming.c **** *         - Dimming_INVERT_LINE   - Inverts the line output
 573:.\Generated_Source\PSoC4/Dimming.c **** *         - Dimming_INVERT_LINE_N - Inverts the line_n output
 574:.\Generated_Source\PSoC4/Dimming.c **** *
 575:.\Generated_Source\PSoC4/Dimming.c **** * Return:
 576:.\Generated_Source\PSoC4/Dimming.c **** *  None
 577:.\Generated_Source\PSoC4/Dimming.c **** *
 578:.\Generated_Source\PSoC4/Dimming.c **** *******************************************************************************/
 579:.\Generated_Source\PSoC4/Dimming.c **** void Dimming_SetPWMInvert(uint32 mask)
 580:.\Generated_Source\PSoC4/Dimming.c **** {
 581:.\Generated_Source\PSoC4/Dimming.c ****     uint8 enableInterrupts;
 582:.\Generated_Source\PSoC4/Dimming.c **** 
ARM GAS  C:\Users\syhaines\AppData\Local\Temp\ccsJlByc.s 			page 12


 583:.\Generated_Source\PSoC4/Dimming.c ****     enableInterrupts = CyEnterCriticalSection();
 584:.\Generated_Source\PSoC4/Dimming.c **** 
 585:.\Generated_Source\PSoC4/Dimming.c ****     Dimming_CONTROL_REG &= (uint32)~Dimming_INV_OUT_MASK;
 586:.\Generated_Source\PSoC4/Dimming.c ****     Dimming_CONTROL_REG |= mask;
 587:.\Generated_Source\PSoC4/Dimming.c **** 
 588:.\Generated_Source\PSoC4/Dimming.c ****     CyExitCriticalSection(enableInterrupts);
 589:.\Generated_Source\PSoC4/Dimming.c **** }
 590:.\Generated_Source\PSoC4/Dimming.c **** 
 591:.\Generated_Source\PSoC4/Dimming.c **** 
 592:.\Generated_Source\PSoC4/Dimming.c **** 
 593:.\Generated_Source\PSoC4/Dimming.c **** /*******************************************************************************
 594:.\Generated_Source\PSoC4/Dimming.c **** * Function Name: Dimming_WriteCounter
 595:.\Generated_Source\PSoC4/Dimming.c **** ********************************************************************************
 596:.\Generated_Source\PSoC4/Dimming.c **** *
 597:.\Generated_Source\PSoC4/Dimming.c **** * Summary:
 598:.\Generated_Source\PSoC4/Dimming.c **** *  Writes a new 16bit counter value directly into the counter register, thus
 599:.\Generated_Source\PSoC4/Dimming.c **** *  setting the counter (not the period) to the value written. It is not
 600:.\Generated_Source\PSoC4/Dimming.c **** *  advised to write to this field when the counter is running.
 601:.\Generated_Source\PSoC4/Dimming.c **** *
 602:.\Generated_Source\PSoC4/Dimming.c **** * Parameters:
 603:.\Generated_Source\PSoC4/Dimming.c **** *  count: value to write
 604:.\Generated_Source\PSoC4/Dimming.c **** *
 605:.\Generated_Source\PSoC4/Dimming.c **** * Return:
 606:.\Generated_Source\PSoC4/Dimming.c **** *  None
 607:.\Generated_Source\PSoC4/Dimming.c **** *
 608:.\Generated_Source\PSoC4/Dimming.c **** *******************************************************************************/
 609:.\Generated_Source\PSoC4/Dimming.c **** void Dimming_WriteCounter(uint32 count)
 610:.\Generated_Source\PSoC4/Dimming.c **** {
 611:.\Generated_Source\PSoC4/Dimming.c ****     Dimming_COUNTER_REG = (count & Dimming_16BIT_MASK);
  44              		.loc 1 611 0
  45 000e 0021     		mov	r1, #0
  46              	.LBE11:
  47              	.LBE10:
  95:.\Generated_Source\PSoC4/Dimming.c ****             
  48              		.loc 1 95 0
  49 0010 1A60     		str	r2, [r3]
  50              	.LVL0:
  51              	.LBB13:
  52              	.LBB12:
  53              		.loc 1 611 0
  54 0012 0B4A     		ldr	r2, .L2+4
  55 0014 1160     		str	r1, [r2]
  56              	.LBE12:
  57              	.LBE13:
 112:.\Generated_Source\PSoC4/Dimming.c ****         #endif  /* (Dimming__PWM == Dimming_PWM_MODE) */
  58              		.loc 1 112 0
  59 0016 1A68     		ldr	r2, [r3]
  60 0018 1A60     		str	r2, [r3]
 116:.\Generated_Source\PSoC4/Dimming.c ****     
  61              		.loc 1 116 0
  62 001a 0C22     		mov	r2, #12
  63 001c 094B     		ldr	r3, .L2+8
  64 001e 1A60     		str	r2, [r3]
  65              	.LVL1:
  66              	.LBB14:
  67              	.LBB15:
 612:.\Generated_Source\PSoC4/Dimming.c **** }
ARM GAS  C:\Users\syhaines\AppData\Local\Temp\ccsJlByc.s 			page 13


 613:.\Generated_Source\PSoC4/Dimming.c **** 
 614:.\Generated_Source\PSoC4/Dimming.c **** 
 615:.\Generated_Source\PSoC4/Dimming.c **** /*******************************************************************************
 616:.\Generated_Source\PSoC4/Dimming.c **** * Function Name: Dimming_ReadCounter
 617:.\Generated_Source\PSoC4/Dimming.c **** ********************************************************************************
 618:.\Generated_Source\PSoC4/Dimming.c **** *
 619:.\Generated_Source\PSoC4/Dimming.c **** * Summary:
 620:.\Generated_Source\PSoC4/Dimming.c **** *  Reads the current counter value.
 621:.\Generated_Source\PSoC4/Dimming.c **** *
 622:.\Generated_Source\PSoC4/Dimming.c **** * Parameters:
 623:.\Generated_Source\PSoC4/Dimming.c **** *  None
 624:.\Generated_Source\PSoC4/Dimming.c **** *
 625:.\Generated_Source\PSoC4/Dimming.c **** * Return:
 626:.\Generated_Source\PSoC4/Dimming.c **** *  Current counter value
 627:.\Generated_Source\PSoC4/Dimming.c **** *
 628:.\Generated_Source\PSoC4/Dimming.c **** *******************************************************************************/
 629:.\Generated_Source\PSoC4/Dimming.c **** uint32 Dimming_ReadCounter(void)
 630:.\Generated_Source\PSoC4/Dimming.c **** {
 631:.\Generated_Source\PSoC4/Dimming.c ****     return (Dimming_COUNTER_REG & Dimming_16BIT_MASK);
 632:.\Generated_Source\PSoC4/Dimming.c **** }
 633:.\Generated_Source\PSoC4/Dimming.c **** 
 634:.\Generated_Source\PSoC4/Dimming.c **** 
 635:.\Generated_Source\PSoC4/Dimming.c **** /*******************************************************************************
 636:.\Generated_Source\PSoC4/Dimming.c **** * Function Name: Dimming_SetCounterMode
 637:.\Generated_Source\PSoC4/Dimming.c **** ********************************************************************************
 638:.\Generated_Source\PSoC4/Dimming.c **** *
 639:.\Generated_Source\PSoC4/Dimming.c **** * Summary:
 640:.\Generated_Source\PSoC4/Dimming.c **** *  Sets the counter mode.  Applicable to all modes except Quadrature Decoder
 641:.\Generated_Source\PSoC4/Dimming.c **** *  and the PWM with a pseudo random output.
 642:.\Generated_Source\PSoC4/Dimming.c **** *
 643:.\Generated_Source\PSoC4/Dimming.c **** * Parameters:
 644:.\Generated_Source\PSoC4/Dimming.c **** *  counterMode: Enumerated counter type values
 645:.\Generated_Source\PSoC4/Dimming.c **** *   Values:
 646:.\Generated_Source\PSoC4/Dimming.c **** *     - Dimming_COUNT_UP       - Counts up
 647:.\Generated_Source\PSoC4/Dimming.c **** *     - Dimming_COUNT_DOWN     - Counts down
 648:.\Generated_Source\PSoC4/Dimming.c **** *     - Dimming_COUNT_UPDOWN0  - Counts up and down. Terminal count
 649:.\Generated_Source\PSoC4/Dimming.c **** *                                         generated when counter reaches 0
 650:.\Generated_Source\PSoC4/Dimming.c **** *     - Dimming_COUNT_UPDOWN1  - Counts up and down. Terminal count
 651:.\Generated_Source\PSoC4/Dimming.c **** *                                         generated both when counter reaches 0
 652:.\Generated_Source\PSoC4/Dimming.c **** *                                         and period
 653:.\Generated_Source\PSoC4/Dimming.c **** *
 654:.\Generated_Source\PSoC4/Dimming.c **** * Return:
 655:.\Generated_Source\PSoC4/Dimming.c **** *  None
 656:.\Generated_Source\PSoC4/Dimming.c **** *
 657:.\Generated_Source\PSoC4/Dimming.c **** *******************************************************************************/
 658:.\Generated_Source\PSoC4/Dimming.c **** void Dimming_SetCounterMode(uint32 counterMode)
 659:.\Generated_Source\PSoC4/Dimming.c **** {
 660:.\Generated_Source\PSoC4/Dimming.c ****     uint8 enableInterrupts;
 661:.\Generated_Source\PSoC4/Dimming.c **** 
 662:.\Generated_Source\PSoC4/Dimming.c ****     enableInterrupts = CyEnterCriticalSection();
 663:.\Generated_Source\PSoC4/Dimming.c **** 
 664:.\Generated_Source\PSoC4/Dimming.c ****     Dimming_CONTROL_REG &= (uint32)~Dimming_UPDOWN_MASK;
 665:.\Generated_Source\PSoC4/Dimming.c ****     Dimming_CONTROL_REG |= counterMode;
 666:.\Generated_Source\PSoC4/Dimming.c **** 
 667:.\Generated_Source\PSoC4/Dimming.c ****     CyExitCriticalSection(enableInterrupts);
 668:.\Generated_Source\PSoC4/Dimming.c **** }
 669:.\Generated_Source\PSoC4/Dimming.c **** 
ARM GAS  C:\Users\syhaines\AppData\Local\Temp\ccsJlByc.s 			page 14


 670:.\Generated_Source\PSoC4/Dimming.c **** 
 671:.\Generated_Source\PSoC4/Dimming.c **** /*******************************************************************************
 672:.\Generated_Source\PSoC4/Dimming.c **** * Function Name: Dimming_WritePeriod
 673:.\Generated_Source\PSoC4/Dimming.c **** ********************************************************************************
 674:.\Generated_Source\PSoC4/Dimming.c **** *
 675:.\Generated_Source\PSoC4/Dimming.c **** * Summary:
 676:.\Generated_Source\PSoC4/Dimming.c **** *  Writes the 16 bit period register with the new period value.
 677:.\Generated_Source\PSoC4/Dimming.c **** *  To cause the counter to count for N cycles this register should be written
 678:.\Generated_Source\PSoC4/Dimming.c **** *  with N-1 (counts from 0 to period inclusive).
 679:.\Generated_Source\PSoC4/Dimming.c **** *
 680:.\Generated_Source\PSoC4/Dimming.c **** * Parameters:
 681:.\Generated_Source\PSoC4/Dimming.c **** *  period: Period value
 682:.\Generated_Source\PSoC4/Dimming.c **** *
 683:.\Generated_Source\PSoC4/Dimming.c **** * Return:
 684:.\Generated_Source\PSoC4/Dimming.c **** *  None
 685:.\Generated_Source\PSoC4/Dimming.c **** *
 686:.\Generated_Source\PSoC4/Dimming.c **** *******************************************************************************/
 687:.\Generated_Source\PSoC4/Dimming.c **** void Dimming_WritePeriod(uint32 period)
 688:.\Generated_Source\PSoC4/Dimming.c **** {
 689:.\Generated_Source\PSoC4/Dimming.c ****     Dimming_PERIOD_REG = (period & Dimming_16BIT_MASK);
 690:.\Generated_Source\PSoC4/Dimming.c **** }
 691:.\Generated_Source\PSoC4/Dimming.c **** 
 692:.\Generated_Source\PSoC4/Dimming.c **** 
 693:.\Generated_Source\PSoC4/Dimming.c **** /*******************************************************************************
 694:.\Generated_Source\PSoC4/Dimming.c **** * Function Name: Dimming_ReadPeriod
 695:.\Generated_Source\PSoC4/Dimming.c **** ********************************************************************************
 696:.\Generated_Source\PSoC4/Dimming.c **** *
 697:.\Generated_Source\PSoC4/Dimming.c **** * Summary:
 698:.\Generated_Source\PSoC4/Dimming.c **** *  Reads the 16 bit period register.
 699:.\Generated_Source\PSoC4/Dimming.c **** *
 700:.\Generated_Source\PSoC4/Dimming.c **** * Parameters:
 701:.\Generated_Source\PSoC4/Dimming.c **** *  None
 702:.\Generated_Source\PSoC4/Dimming.c **** *
 703:.\Generated_Source\PSoC4/Dimming.c **** * Return:
 704:.\Generated_Source\PSoC4/Dimming.c **** *  Period value
 705:.\Generated_Source\PSoC4/Dimming.c **** *
 706:.\Generated_Source\PSoC4/Dimming.c **** *******************************************************************************/
 707:.\Generated_Source\PSoC4/Dimming.c **** uint32 Dimming_ReadPeriod(void)
 708:.\Generated_Source\PSoC4/Dimming.c **** {
 709:.\Generated_Source\PSoC4/Dimming.c ****     return (Dimming_PERIOD_REG & Dimming_16BIT_MASK);
 710:.\Generated_Source\PSoC4/Dimming.c **** }
 711:.\Generated_Source\PSoC4/Dimming.c **** 
 712:.\Generated_Source\PSoC4/Dimming.c **** 
 713:.\Generated_Source\PSoC4/Dimming.c **** /*******************************************************************************
 714:.\Generated_Source\PSoC4/Dimming.c **** * Function Name: Dimming_SetCompareSwap
 715:.\Generated_Source\PSoC4/Dimming.c **** ********************************************************************************
 716:.\Generated_Source\PSoC4/Dimming.c **** *
 717:.\Generated_Source\PSoC4/Dimming.c **** * Summary:
 718:.\Generated_Source\PSoC4/Dimming.c **** *  Writes the register that controls whether the compare registers are
 719:.\Generated_Source\PSoC4/Dimming.c **** *  swapped. When enabled in the Timer/Counter mode(without capture) the swap
 720:.\Generated_Source\PSoC4/Dimming.c **** *  occurs at a TC event. In the PWM mode the swap occurs at the next TC event
 721:.\Generated_Source\PSoC4/Dimming.c **** *  following a hardware switch event.
 722:.\Generated_Source\PSoC4/Dimming.c **** *
 723:.\Generated_Source\PSoC4/Dimming.c **** * Parameters:
 724:.\Generated_Source\PSoC4/Dimming.c **** *  swapEnable
 725:.\Generated_Source\PSoC4/Dimming.c **** *   Values:
 726:.\Generated_Source\PSoC4/Dimming.c **** *     - 0 - Disable swap
ARM GAS  C:\Users\syhaines\AppData\Local\Temp\ccsJlByc.s 			page 15


 727:.\Generated_Source\PSoC4/Dimming.c **** *     - 1 - Enable swap
 728:.\Generated_Source\PSoC4/Dimming.c **** *
 729:.\Generated_Source\PSoC4/Dimming.c **** * Return:
 730:.\Generated_Source\PSoC4/Dimming.c **** *  None
 731:.\Generated_Source\PSoC4/Dimming.c **** *
 732:.\Generated_Source\PSoC4/Dimming.c **** *******************************************************************************/
 733:.\Generated_Source\PSoC4/Dimming.c **** void Dimming_SetCompareSwap(uint32 swapEnable)
 734:.\Generated_Source\PSoC4/Dimming.c **** {
 735:.\Generated_Source\PSoC4/Dimming.c ****     uint8 enableInterrupts;
 736:.\Generated_Source\PSoC4/Dimming.c **** 
 737:.\Generated_Source\PSoC4/Dimming.c ****     enableInterrupts = CyEnterCriticalSection();
 738:.\Generated_Source\PSoC4/Dimming.c **** 
 739:.\Generated_Source\PSoC4/Dimming.c ****     Dimming_CONTROL_REG &= (uint32)~Dimming_RELOAD_CC_MASK;
 740:.\Generated_Source\PSoC4/Dimming.c ****     Dimming_CONTROL_REG |= (swapEnable & Dimming_1BIT_MASK);
 741:.\Generated_Source\PSoC4/Dimming.c **** 
 742:.\Generated_Source\PSoC4/Dimming.c ****     CyExitCriticalSection(enableInterrupts);
 743:.\Generated_Source\PSoC4/Dimming.c **** }
 744:.\Generated_Source\PSoC4/Dimming.c **** 
 745:.\Generated_Source\PSoC4/Dimming.c **** 
 746:.\Generated_Source\PSoC4/Dimming.c **** /*******************************************************************************
 747:.\Generated_Source\PSoC4/Dimming.c **** * Function Name: Dimming_WritePeriodBuf
 748:.\Generated_Source\PSoC4/Dimming.c **** ********************************************************************************
 749:.\Generated_Source\PSoC4/Dimming.c **** *
 750:.\Generated_Source\PSoC4/Dimming.c **** * Summary:
 751:.\Generated_Source\PSoC4/Dimming.c **** *  Writes the 16 bit period buf register with the new period value.
 752:.\Generated_Source\PSoC4/Dimming.c **** *
 753:.\Generated_Source\PSoC4/Dimming.c **** * Parameters:
 754:.\Generated_Source\PSoC4/Dimming.c **** *  periodBuf: Period value
 755:.\Generated_Source\PSoC4/Dimming.c **** *
 756:.\Generated_Source\PSoC4/Dimming.c **** * Return:
 757:.\Generated_Source\PSoC4/Dimming.c **** *  None
 758:.\Generated_Source\PSoC4/Dimming.c **** *
 759:.\Generated_Source\PSoC4/Dimming.c **** *******************************************************************************/
 760:.\Generated_Source\PSoC4/Dimming.c **** void Dimming_WritePeriodBuf(uint32 periodBuf)
 761:.\Generated_Source\PSoC4/Dimming.c **** {
 762:.\Generated_Source\PSoC4/Dimming.c ****     Dimming_PERIOD_BUF_REG = (periodBuf & Dimming_16BIT_MASK);
 763:.\Generated_Source\PSoC4/Dimming.c **** }
 764:.\Generated_Source\PSoC4/Dimming.c **** 
 765:.\Generated_Source\PSoC4/Dimming.c **** 
 766:.\Generated_Source\PSoC4/Dimming.c **** /*******************************************************************************
 767:.\Generated_Source\PSoC4/Dimming.c **** * Function Name: Dimming_ReadPeriodBuf
 768:.\Generated_Source\PSoC4/Dimming.c **** ********************************************************************************
 769:.\Generated_Source\PSoC4/Dimming.c **** *
 770:.\Generated_Source\PSoC4/Dimming.c **** * Summary:
 771:.\Generated_Source\PSoC4/Dimming.c **** *  Reads the 16 bit period buf register.
 772:.\Generated_Source\PSoC4/Dimming.c **** *
 773:.\Generated_Source\PSoC4/Dimming.c **** * Parameters:
 774:.\Generated_Source\PSoC4/Dimming.c **** *  None
 775:.\Generated_Source\PSoC4/Dimming.c **** *
 776:.\Generated_Source\PSoC4/Dimming.c **** * Return:
 777:.\Generated_Source\PSoC4/Dimming.c **** *  Period value
 778:.\Generated_Source\PSoC4/Dimming.c **** *
 779:.\Generated_Source\PSoC4/Dimming.c **** *******************************************************************************/
 780:.\Generated_Source\PSoC4/Dimming.c **** uint32 Dimming_ReadPeriodBuf(void)
 781:.\Generated_Source\PSoC4/Dimming.c **** {
 782:.\Generated_Source\PSoC4/Dimming.c ****     return (Dimming_PERIOD_BUF_REG & Dimming_16BIT_MASK);
 783:.\Generated_Source\PSoC4/Dimming.c **** }
ARM GAS  C:\Users\syhaines\AppData\Local\Temp\ccsJlByc.s 			page 16


 784:.\Generated_Source\PSoC4/Dimming.c **** 
 785:.\Generated_Source\PSoC4/Dimming.c **** 
 786:.\Generated_Source\PSoC4/Dimming.c **** /*******************************************************************************
 787:.\Generated_Source\PSoC4/Dimming.c **** * Function Name: Dimming_SetPeriodSwap
 788:.\Generated_Source\PSoC4/Dimming.c **** ********************************************************************************
 789:.\Generated_Source\PSoC4/Dimming.c **** *
 790:.\Generated_Source\PSoC4/Dimming.c **** * Summary:
 791:.\Generated_Source\PSoC4/Dimming.c **** *  Writes the register that controls whether the period registers are
 792:.\Generated_Source\PSoC4/Dimming.c **** *  swapped. When enabled in Timer/Counter mode the swap occurs at a TC event.
 793:.\Generated_Source\PSoC4/Dimming.c **** *  In the PWM mode the swap occurs at the next TC event following a hardware
 794:.\Generated_Source\PSoC4/Dimming.c **** *  switch event.
 795:.\Generated_Source\PSoC4/Dimming.c **** *
 796:.\Generated_Source\PSoC4/Dimming.c **** * Parameters:
 797:.\Generated_Source\PSoC4/Dimming.c **** *  swapEnable
 798:.\Generated_Source\PSoC4/Dimming.c **** *   Values:
 799:.\Generated_Source\PSoC4/Dimming.c **** *     - 0 - Disable swap
 800:.\Generated_Source\PSoC4/Dimming.c **** *     - 1 - Enable swap
 801:.\Generated_Source\PSoC4/Dimming.c **** *
 802:.\Generated_Source\PSoC4/Dimming.c **** * Return:
 803:.\Generated_Source\PSoC4/Dimming.c **** *  None
 804:.\Generated_Source\PSoC4/Dimming.c **** *
 805:.\Generated_Source\PSoC4/Dimming.c **** *******************************************************************************/
 806:.\Generated_Source\PSoC4/Dimming.c **** void Dimming_SetPeriodSwap(uint32 swapEnable)
 807:.\Generated_Source\PSoC4/Dimming.c **** {
 808:.\Generated_Source\PSoC4/Dimming.c ****     uint8 enableInterrupts;
 809:.\Generated_Source\PSoC4/Dimming.c **** 
 810:.\Generated_Source\PSoC4/Dimming.c ****     enableInterrupts = CyEnterCriticalSection();
 811:.\Generated_Source\PSoC4/Dimming.c **** 
 812:.\Generated_Source\PSoC4/Dimming.c ****     Dimming_CONTROL_REG &= (uint32)~Dimming_RELOAD_PERIOD_MASK;
 813:.\Generated_Source\PSoC4/Dimming.c ****     Dimming_CONTROL_REG |= ((uint32)((swapEnable & Dimming_1BIT_MASK) <<
 814:.\Generated_Source\PSoC4/Dimming.c ****                                                             Dimming_RELOAD_PERIOD_SHIFT));
 815:.\Generated_Source\PSoC4/Dimming.c **** 
 816:.\Generated_Source\PSoC4/Dimming.c ****     CyExitCriticalSection(enableInterrupts);
 817:.\Generated_Source\PSoC4/Dimming.c **** }
 818:.\Generated_Source\PSoC4/Dimming.c **** 
 819:.\Generated_Source\PSoC4/Dimming.c **** 
 820:.\Generated_Source\PSoC4/Dimming.c **** /*******************************************************************************
 821:.\Generated_Source\PSoC4/Dimming.c **** * Function Name: Dimming_WriteCompare
 822:.\Generated_Source\PSoC4/Dimming.c **** ********************************************************************************
 823:.\Generated_Source\PSoC4/Dimming.c **** *
 824:.\Generated_Source\PSoC4/Dimming.c **** * Summary:
 825:.\Generated_Source\PSoC4/Dimming.c **** *  Writes the 16 bit compare register with the new compare value. Not
 826:.\Generated_Source\PSoC4/Dimming.c **** *  applicable for Timer/Counter with Capture or in Quadrature Decoder modes.
 827:.\Generated_Source\PSoC4/Dimming.c **** *
 828:.\Generated_Source\PSoC4/Dimming.c **** * Parameters:
 829:.\Generated_Source\PSoC4/Dimming.c **** *  compare: Compare value
 830:.\Generated_Source\PSoC4/Dimming.c **** *
 831:.\Generated_Source\PSoC4/Dimming.c **** * Return:
 832:.\Generated_Source\PSoC4/Dimming.c **** *  None
 833:.\Generated_Source\PSoC4/Dimming.c **** *
 834:.\Generated_Source\PSoC4/Dimming.c **** *******************************************************************************/
 835:.\Generated_Source\PSoC4/Dimming.c **** void Dimming_WriteCompare(uint32 compare)
 836:.\Generated_Source\PSoC4/Dimming.c **** {
 837:.\Generated_Source\PSoC4/Dimming.c ****     #if (Dimming_CY_TCPWM_4000)
 838:.\Generated_Source\PSoC4/Dimming.c ****         uint32 currentMode;
 839:.\Generated_Source\PSoC4/Dimming.c ****     #endif /* (Dimming_CY_TCPWM_4000) */
 840:.\Generated_Source\PSoC4/Dimming.c **** 
ARM GAS  C:\Users\syhaines\AppData\Local\Temp\ccsJlByc.s 			page 17


 841:.\Generated_Source\PSoC4/Dimming.c ****     #if (Dimming_CY_TCPWM_4000)
 842:.\Generated_Source\PSoC4/Dimming.c ****         currentMode = ((Dimming_CONTROL_REG & Dimming_UPDOWN_MASK) >> Dimming_UPDOWN_SHIFT);
 843:.\Generated_Source\PSoC4/Dimming.c **** 
 844:.\Generated_Source\PSoC4/Dimming.c ****         if (((uint32)Dimming__COUNT_DOWN == currentMode) && (0xFFFFu != compare))
 845:.\Generated_Source\PSoC4/Dimming.c ****         {
 846:.\Generated_Source\PSoC4/Dimming.c ****             compare++;
 847:.\Generated_Source\PSoC4/Dimming.c ****         }
 848:.\Generated_Source\PSoC4/Dimming.c ****         else if (((uint32)Dimming__COUNT_UP == currentMode) && (0u != compare))
 849:.\Generated_Source\PSoC4/Dimming.c ****         {
 850:.\Generated_Source\PSoC4/Dimming.c ****             compare--;
 851:.\Generated_Source\PSoC4/Dimming.c ****         }
 852:.\Generated_Source\PSoC4/Dimming.c ****         else
 853:.\Generated_Source\PSoC4/Dimming.c ****         {
 854:.\Generated_Source\PSoC4/Dimming.c ****         }
 855:.\Generated_Source\PSoC4/Dimming.c ****         
 856:.\Generated_Source\PSoC4/Dimming.c ****     
 857:.\Generated_Source\PSoC4/Dimming.c ****     #endif /* (Dimming_CY_TCPWM_4000) */
 858:.\Generated_Source\PSoC4/Dimming.c ****     
 859:.\Generated_Source\PSoC4/Dimming.c ****     Dimming_COMP_CAP_REG = (compare & Dimming_16BIT_MASK);
 860:.\Generated_Source\PSoC4/Dimming.c **** }
 861:.\Generated_Source\PSoC4/Dimming.c **** 
 862:.\Generated_Source\PSoC4/Dimming.c **** 
 863:.\Generated_Source\PSoC4/Dimming.c **** /*******************************************************************************
 864:.\Generated_Source\PSoC4/Dimming.c **** * Function Name: Dimming_ReadCompare
 865:.\Generated_Source\PSoC4/Dimming.c **** ********************************************************************************
 866:.\Generated_Source\PSoC4/Dimming.c **** *
 867:.\Generated_Source\PSoC4/Dimming.c **** * Summary:
 868:.\Generated_Source\PSoC4/Dimming.c **** *  Reads the compare register. Not applicable for Timer/Counter with Capture
 869:.\Generated_Source\PSoC4/Dimming.c **** *  or in Quadrature Decoder modes.
 870:.\Generated_Source\PSoC4/Dimming.c **** *
 871:.\Generated_Source\PSoC4/Dimming.c **** * Parameters:
 872:.\Generated_Source\PSoC4/Dimming.c **** *  None
 873:.\Generated_Source\PSoC4/Dimming.c **** *
 874:.\Generated_Source\PSoC4/Dimming.c **** * Return:
 875:.\Generated_Source\PSoC4/Dimming.c **** *  Compare value
 876:.\Generated_Source\PSoC4/Dimming.c **** *
 877:.\Generated_Source\PSoC4/Dimming.c **** *******************************************************************************/
 878:.\Generated_Source\PSoC4/Dimming.c **** uint32 Dimming_ReadCompare(void)
 879:.\Generated_Source\PSoC4/Dimming.c **** {
 880:.\Generated_Source\PSoC4/Dimming.c ****     #if (Dimming_CY_TCPWM_4000)
 881:.\Generated_Source\PSoC4/Dimming.c ****         uint32 currentMode;
 882:.\Generated_Source\PSoC4/Dimming.c ****         uint32 regVal;
 883:.\Generated_Source\PSoC4/Dimming.c ****     #endif /* (Dimming_CY_TCPWM_4000) */
 884:.\Generated_Source\PSoC4/Dimming.c **** 
 885:.\Generated_Source\PSoC4/Dimming.c ****     #if (Dimming_CY_TCPWM_4000)
 886:.\Generated_Source\PSoC4/Dimming.c ****         currentMode = ((Dimming_CONTROL_REG & Dimming_UPDOWN_MASK) >> Dimming_UPDOWN_SHIFT);
 887:.\Generated_Source\PSoC4/Dimming.c ****         
 888:.\Generated_Source\PSoC4/Dimming.c ****         regVal = Dimming_COMP_CAP_REG;
 889:.\Generated_Source\PSoC4/Dimming.c ****         
 890:.\Generated_Source\PSoC4/Dimming.c ****         if (((uint32)Dimming__COUNT_DOWN == currentMode) && (0u != regVal))
 891:.\Generated_Source\PSoC4/Dimming.c ****         {
 892:.\Generated_Source\PSoC4/Dimming.c ****             regVal--;
 893:.\Generated_Source\PSoC4/Dimming.c ****         }
 894:.\Generated_Source\PSoC4/Dimming.c ****         else if (((uint32)Dimming__COUNT_UP == currentMode) && (0xFFFFu != regVal))
 895:.\Generated_Source\PSoC4/Dimming.c ****         {
 896:.\Generated_Source\PSoC4/Dimming.c ****             regVal++;
 897:.\Generated_Source\PSoC4/Dimming.c ****         }
ARM GAS  C:\Users\syhaines\AppData\Local\Temp\ccsJlByc.s 			page 18


 898:.\Generated_Source\PSoC4/Dimming.c ****         else
 899:.\Generated_Source\PSoC4/Dimming.c ****         {
 900:.\Generated_Source\PSoC4/Dimming.c ****         }
 901:.\Generated_Source\PSoC4/Dimming.c **** 
 902:.\Generated_Source\PSoC4/Dimming.c ****         return (regVal & Dimming_16BIT_MASK);
 903:.\Generated_Source\PSoC4/Dimming.c ****     #else
 904:.\Generated_Source\PSoC4/Dimming.c ****         return (Dimming_COMP_CAP_REG & Dimming_16BIT_MASK);
 905:.\Generated_Source\PSoC4/Dimming.c ****     #endif /* (Dimming_CY_TCPWM_4000) */
 906:.\Generated_Source\PSoC4/Dimming.c **** }
 907:.\Generated_Source\PSoC4/Dimming.c **** 
 908:.\Generated_Source\PSoC4/Dimming.c **** 
 909:.\Generated_Source\PSoC4/Dimming.c **** /*******************************************************************************
 910:.\Generated_Source\PSoC4/Dimming.c **** * Function Name: Dimming_WriteCompareBuf
 911:.\Generated_Source\PSoC4/Dimming.c **** ********************************************************************************
 912:.\Generated_Source\PSoC4/Dimming.c **** *
 913:.\Generated_Source\PSoC4/Dimming.c **** * Summary:
 914:.\Generated_Source\PSoC4/Dimming.c **** *  Writes the 16 bit compare buffer register with the new compare value. Not
 915:.\Generated_Source\PSoC4/Dimming.c **** *  applicable for Timer/Counter with Capture or in Quadrature Decoder modes.
 916:.\Generated_Source\PSoC4/Dimming.c **** *
 917:.\Generated_Source\PSoC4/Dimming.c **** * Parameters:
 918:.\Generated_Source\PSoC4/Dimming.c **** *  compareBuf: Compare value
 919:.\Generated_Source\PSoC4/Dimming.c **** *
 920:.\Generated_Source\PSoC4/Dimming.c **** * Return:
 921:.\Generated_Source\PSoC4/Dimming.c **** *  None
 922:.\Generated_Source\PSoC4/Dimming.c **** *
 923:.\Generated_Source\PSoC4/Dimming.c **** *******************************************************************************/
 924:.\Generated_Source\PSoC4/Dimming.c **** void Dimming_WriteCompareBuf(uint32 compareBuf)
 925:.\Generated_Source\PSoC4/Dimming.c **** {
 926:.\Generated_Source\PSoC4/Dimming.c ****     #if (Dimming_CY_TCPWM_4000)
 927:.\Generated_Source\PSoC4/Dimming.c ****         uint32 currentMode;
 928:.\Generated_Source\PSoC4/Dimming.c ****     #endif /* (Dimming_CY_TCPWM_4000) */
 929:.\Generated_Source\PSoC4/Dimming.c **** 
 930:.\Generated_Source\PSoC4/Dimming.c ****     #if (Dimming_CY_TCPWM_4000)
 931:.\Generated_Source\PSoC4/Dimming.c ****         currentMode = ((Dimming_CONTROL_REG & Dimming_UPDOWN_MASK) >> Dimming_UPDOWN_SHIFT);
 932:.\Generated_Source\PSoC4/Dimming.c **** 
 933:.\Generated_Source\PSoC4/Dimming.c ****         if (((uint32)Dimming__COUNT_DOWN == currentMode) && (0xFFFFu != compareBuf))
 934:.\Generated_Source\PSoC4/Dimming.c ****         {
 935:.\Generated_Source\PSoC4/Dimming.c ****             compareBuf++;
 936:.\Generated_Source\PSoC4/Dimming.c ****         }
 937:.\Generated_Source\PSoC4/Dimming.c ****         else if (((uint32)Dimming__COUNT_UP == currentMode) && (0u != compareBuf))
 938:.\Generated_Source\PSoC4/Dimming.c ****         {
 939:.\Generated_Source\PSoC4/Dimming.c ****             compareBuf --;
 940:.\Generated_Source\PSoC4/Dimming.c ****         }
 941:.\Generated_Source\PSoC4/Dimming.c ****         else
 942:.\Generated_Source\PSoC4/Dimming.c ****         {
 943:.\Generated_Source\PSoC4/Dimming.c ****         }
 944:.\Generated_Source\PSoC4/Dimming.c ****     #endif /* (Dimming_CY_TCPWM_4000) */
 945:.\Generated_Source\PSoC4/Dimming.c ****     
 946:.\Generated_Source\PSoC4/Dimming.c ****     Dimming_COMP_CAP_BUF_REG = (compareBuf & Dimming_16BIT_MASK);
 947:.\Generated_Source\PSoC4/Dimming.c **** }
 948:.\Generated_Source\PSoC4/Dimming.c **** 
 949:.\Generated_Source\PSoC4/Dimming.c **** 
 950:.\Generated_Source\PSoC4/Dimming.c **** /*******************************************************************************
 951:.\Generated_Source\PSoC4/Dimming.c **** * Function Name: Dimming_ReadCompareBuf
 952:.\Generated_Source\PSoC4/Dimming.c **** ********************************************************************************
 953:.\Generated_Source\PSoC4/Dimming.c **** *
 954:.\Generated_Source\PSoC4/Dimming.c **** * Summary:
ARM GAS  C:\Users\syhaines\AppData\Local\Temp\ccsJlByc.s 			page 19


 955:.\Generated_Source\PSoC4/Dimming.c **** *  Reads the compare buffer register. Not applicable for Timer/Counter with
 956:.\Generated_Source\PSoC4/Dimming.c **** *  Capture or in Quadrature Decoder modes.
 957:.\Generated_Source\PSoC4/Dimming.c **** *
 958:.\Generated_Source\PSoC4/Dimming.c **** * Parameters:
 959:.\Generated_Source\PSoC4/Dimming.c **** *  None
 960:.\Generated_Source\PSoC4/Dimming.c **** *
 961:.\Generated_Source\PSoC4/Dimming.c **** * Return:
 962:.\Generated_Source\PSoC4/Dimming.c **** *  Compare buffer value
 963:.\Generated_Source\PSoC4/Dimming.c **** *
 964:.\Generated_Source\PSoC4/Dimming.c **** *******************************************************************************/
 965:.\Generated_Source\PSoC4/Dimming.c **** uint32 Dimming_ReadCompareBuf(void)
 966:.\Generated_Source\PSoC4/Dimming.c **** {
 967:.\Generated_Source\PSoC4/Dimming.c ****     #if (Dimming_CY_TCPWM_4000)
 968:.\Generated_Source\PSoC4/Dimming.c ****         uint32 currentMode;
 969:.\Generated_Source\PSoC4/Dimming.c ****         uint32 regVal;
 970:.\Generated_Source\PSoC4/Dimming.c ****     #endif /* (Dimming_CY_TCPWM_4000) */
 971:.\Generated_Source\PSoC4/Dimming.c **** 
 972:.\Generated_Source\PSoC4/Dimming.c ****     #if (Dimming_CY_TCPWM_4000)
 973:.\Generated_Source\PSoC4/Dimming.c ****         currentMode = ((Dimming_CONTROL_REG & Dimming_UPDOWN_MASK) >> Dimming_UPDOWN_SHIFT);
 974:.\Generated_Source\PSoC4/Dimming.c **** 
 975:.\Generated_Source\PSoC4/Dimming.c ****         regVal = Dimming_COMP_CAP_BUF_REG;
 976:.\Generated_Source\PSoC4/Dimming.c ****         
 977:.\Generated_Source\PSoC4/Dimming.c ****         if (((uint32)Dimming__COUNT_DOWN == currentMode) && (0u != regVal))
 978:.\Generated_Source\PSoC4/Dimming.c ****         {
 979:.\Generated_Source\PSoC4/Dimming.c ****             regVal--;
 980:.\Generated_Source\PSoC4/Dimming.c ****         }
 981:.\Generated_Source\PSoC4/Dimming.c ****         else if (((uint32)Dimming__COUNT_UP == currentMode) && (0xFFFFu != regVal))
 982:.\Generated_Source\PSoC4/Dimming.c ****         {
 983:.\Generated_Source\PSoC4/Dimming.c ****             regVal++;
 984:.\Generated_Source\PSoC4/Dimming.c ****         }
 985:.\Generated_Source\PSoC4/Dimming.c ****         else
 986:.\Generated_Source\PSoC4/Dimming.c ****         {
 987:.\Generated_Source\PSoC4/Dimming.c ****         }
 988:.\Generated_Source\PSoC4/Dimming.c **** 
 989:.\Generated_Source\PSoC4/Dimming.c ****         return (regVal & Dimming_16BIT_MASK);
 990:.\Generated_Source\PSoC4/Dimming.c ****     #else
 991:.\Generated_Source\PSoC4/Dimming.c ****         return (Dimming_COMP_CAP_BUF_REG & Dimming_16BIT_MASK);
 992:.\Generated_Source\PSoC4/Dimming.c ****     #endif /* (Dimming_CY_TCPWM_4000) */
 993:.\Generated_Source\PSoC4/Dimming.c **** }
 994:.\Generated_Source\PSoC4/Dimming.c **** 
 995:.\Generated_Source\PSoC4/Dimming.c **** 
 996:.\Generated_Source\PSoC4/Dimming.c **** /*******************************************************************************
 997:.\Generated_Source\PSoC4/Dimming.c **** * Function Name: Dimming_ReadCapture
 998:.\Generated_Source\PSoC4/Dimming.c **** ********************************************************************************
 999:.\Generated_Source\PSoC4/Dimming.c **** *
1000:.\Generated_Source\PSoC4/Dimming.c **** * Summary:
1001:.\Generated_Source\PSoC4/Dimming.c **** *  Reads the captured counter value. This API is applicable only for
1002:.\Generated_Source\PSoC4/Dimming.c **** *  Timer/Counter with the capture mode and Quadrature Decoder modes.
1003:.\Generated_Source\PSoC4/Dimming.c **** *
1004:.\Generated_Source\PSoC4/Dimming.c **** * Parameters:
1005:.\Generated_Source\PSoC4/Dimming.c **** *  None
1006:.\Generated_Source\PSoC4/Dimming.c **** *
1007:.\Generated_Source\PSoC4/Dimming.c **** * Return:
1008:.\Generated_Source\PSoC4/Dimming.c **** *  Capture value
1009:.\Generated_Source\PSoC4/Dimming.c **** *
1010:.\Generated_Source\PSoC4/Dimming.c **** *******************************************************************************/
1011:.\Generated_Source\PSoC4/Dimming.c **** uint32 Dimming_ReadCapture(void)
ARM GAS  C:\Users\syhaines\AppData\Local\Temp\ccsJlByc.s 			page 20


1012:.\Generated_Source\PSoC4/Dimming.c **** {
1013:.\Generated_Source\PSoC4/Dimming.c ****     return (Dimming_COMP_CAP_REG & Dimming_16BIT_MASK);
1014:.\Generated_Source\PSoC4/Dimming.c **** }
1015:.\Generated_Source\PSoC4/Dimming.c **** 
1016:.\Generated_Source\PSoC4/Dimming.c **** 
1017:.\Generated_Source\PSoC4/Dimming.c **** /*******************************************************************************
1018:.\Generated_Source\PSoC4/Dimming.c **** * Function Name: Dimming_ReadCaptureBuf
1019:.\Generated_Source\PSoC4/Dimming.c **** ********************************************************************************
1020:.\Generated_Source\PSoC4/Dimming.c **** *
1021:.\Generated_Source\PSoC4/Dimming.c **** * Summary:
1022:.\Generated_Source\PSoC4/Dimming.c **** *  Reads the capture buffer register. This API is applicable only for
1023:.\Generated_Source\PSoC4/Dimming.c **** *  Timer/Counter with the capture mode and Quadrature Decoder modes.
1024:.\Generated_Source\PSoC4/Dimming.c **** *
1025:.\Generated_Source\PSoC4/Dimming.c **** * Parameters:
1026:.\Generated_Source\PSoC4/Dimming.c **** *  None
1027:.\Generated_Source\PSoC4/Dimming.c **** *
1028:.\Generated_Source\PSoC4/Dimming.c **** * Return:
1029:.\Generated_Source\PSoC4/Dimming.c **** *  Capture buffer value
1030:.\Generated_Source\PSoC4/Dimming.c **** *
1031:.\Generated_Source\PSoC4/Dimming.c **** *******************************************************************************/
1032:.\Generated_Source\PSoC4/Dimming.c **** uint32 Dimming_ReadCaptureBuf(void)
1033:.\Generated_Source\PSoC4/Dimming.c **** {
1034:.\Generated_Source\PSoC4/Dimming.c ****     return (Dimming_COMP_CAP_BUF_REG & Dimming_16BIT_MASK);
1035:.\Generated_Source\PSoC4/Dimming.c **** }
1036:.\Generated_Source\PSoC4/Dimming.c **** 
1037:.\Generated_Source\PSoC4/Dimming.c **** 
1038:.\Generated_Source\PSoC4/Dimming.c **** /*******************************************************************************
1039:.\Generated_Source\PSoC4/Dimming.c **** * Function Name: Dimming_SetCaptureMode
1040:.\Generated_Source\PSoC4/Dimming.c **** ********************************************************************************
1041:.\Generated_Source\PSoC4/Dimming.c **** *
1042:.\Generated_Source\PSoC4/Dimming.c **** * Summary:
1043:.\Generated_Source\PSoC4/Dimming.c **** *  Sets the capture trigger mode. For PWM mode this is the switch input.
1044:.\Generated_Source\PSoC4/Dimming.c **** *  This input is not applicable to the Timer/Counter without Capture and
1045:.\Generated_Source\PSoC4/Dimming.c **** *  Quadrature Decoder modes.
1046:.\Generated_Source\PSoC4/Dimming.c **** *
1047:.\Generated_Source\PSoC4/Dimming.c **** * Parameters:
1048:.\Generated_Source\PSoC4/Dimming.c **** *  triggerMode: Enumerated trigger mode value
1049:.\Generated_Source\PSoC4/Dimming.c **** *   Values:
1050:.\Generated_Source\PSoC4/Dimming.c **** *     - Dimming_TRIG_LEVEL     - Level
1051:.\Generated_Source\PSoC4/Dimming.c **** *     - Dimming_TRIG_RISING    - Rising edge
1052:.\Generated_Source\PSoC4/Dimming.c **** *     - Dimming_TRIG_FALLING   - Falling edge
1053:.\Generated_Source\PSoC4/Dimming.c **** *     - Dimming_TRIG_BOTH      - Both rising and falling edge
1054:.\Generated_Source\PSoC4/Dimming.c **** *
1055:.\Generated_Source\PSoC4/Dimming.c **** * Return:
1056:.\Generated_Source\PSoC4/Dimming.c **** *  None
1057:.\Generated_Source\PSoC4/Dimming.c **** *
1058:.\Generated_Source\PSoC4/Dimming.c **** *******************************************************************************/
1059:.\Generated_Source\PSoC4/Dimming.c **** void Dimming_SetCaptureMode(uint32 triggerMode)
1060:.\Generated_Source\PSoC4/Dimming.c **** {
1061:.\Generated_Source\PSoC4/Dimming.c ****     uint8 enableInterrupts;
1062:.\Generated_Source\PSoC4/Dimming.c **** 
1063:.\Generated_Source\PSoC4/Dimming.c ****     enableInterrupts = CyEnterCriticalSection();
1064:.\Generated_Source\PSoC4/Dimming.c **** 
1065:.\Generated_Source\PSoC4/Dimming.c ****     Dimming_TRIG_CONTROL1_REG &= (uint32)~Dimming_CAPTURE_MASK;
1066:.\Generated_Source\PSoC4/Dimming.c ****     Dimming_TRIG_CONTROL1_REG |= triggerMode;
1067:.\Generated_Source\PSoC4/Dimming.c **** 
1068:.\Generated_Source\PSoC4/Dimming.c ****     CyExitCriticalSection(enableInterrupts);
ARM GAS  C:\Users\syhaines\AppData\Local\Temp\ccsJlByc.s 			page 21


1069:.\Generated_Source\PSoC4/Dimming.c **** }
1070:.\Generated_Source\PSoC4/Dimming.c **** 
1071:.\Generated_Source\PSoC4/Dimming.c **** 
1072:.\Generated_Source\PSoC4/Dimming.c **** /*******************************************************************************
1073:.\Generated_Source\PSoC4/Dimming.c **** * Function Name: Dimming_SetReloadMode
1074:.\Generated_Source\PSoC4/Dimming.c **** ********************************************************************************
1075:.\Generated_Source\PSoC4/Dimming.c **** *
1076:.\Generated_Source\PSoC4/Dimming.c **** * Summary:
1077:.\Generated_Source\PSoC4/Dimming.c **** *  Sets the reload trigger mode. For Quadrature Decoder mode this is the index
1078:.\Generated_Source\PSoC4/Dimming.c **** *  input.
1079:.\Generated_Source\PSoC4/Dimming.c **** *
1080:.\Generated_Source\PSoC4/Dimming.c **** * Parameters:
1081:.\Generated_Source\PSoC4/Dimming.c **** *  triggerMode: Enumerated trigger mode value
1082:.\Generated_Source\PSoC4/Dimming.c **** *   Values:
1083:.\Generated_Source\PSoC4/Dimming.c **** *     - Dimming_TRIG_LEVEL     - Level
1084:.\Generated_Source\PSoC4/Dimming.c **** *     - Dimming_TRIG_RISING    - Rising edge
1085:.\Generated_Source\PSoC4/Dimming.c **** *     - Dimming_TRIG_FALLING   - Falling edge
1086:.\Generated_Source\PSoC4/Dimming.c **** *     - Dimming_TRIG_BOTH      - Both rising and falling edge
1087:.\Generated_Source\PSoC4/Dimming.c **** *
1088:.\Generated_Source\PSoC4/Dimming.c **** * Return:
1089:.\Generated_Source\PSoC4/Dimming.c **** *  None
1090:.\Generated_Source\PSoC4/Dimming.c **** *
1091:.\Generated_Source\PSoC4/Dimming.c **** *******************************************************************************/
1092:.\Generated_Source\PSoC4/Dimming.c **** void Dimming_SetReloadMode(uint32 triggerMode)
1093:.\Generated_Source\PSoC4/Dimming.c **** {
1094:.\Generated_Source\PSoC4/Dimming.c ****     uint8 enableInterrupts;
1095:.\Generated_Source\PSoC4/Dimming.c **** 
1096:.\Generated_Source\PSoC4/Dimming.c ****     enableInterrupts = CyEnterCriticalSection();
1097:.\Generated_Source\PSoC4/Dimming.c **** 
1098:.\Generated_Source\PSoC4/Dimming.c ****     Dimming_TRIG_CONTROL1_REG &= (uint32)~Dimming_RELOAD_MASK;
1099:.\Generated_Source\PSoC4/Dimming.c ****     Dimming_TRIG_CONTROL1_REG |= ((uint32)(triggerMode << Dimming_RELOAD_SHIFT));
1100:.\Generated_Source\PSoC4/Dimming.c **** 
1101:.\Generated_Source\PSoC4/Dimming.c ****     CyExitCriticalSection(enableInterrupts);
1102:.\Generated_Source\PSoC4/Dimming.c **** }
1103:.\Generated_Source\PSoC4/Dimming.c **** 
1104:.\Generated_Source\PSoC4/Dimming.c **** 
1105:.\Generated_Source\PSoC4/Dimming.c **** /*******************************************************************************
1106:.\Generated_Source\PSoC4/Dimming.c **** * Function Name: Dimming_SetStartMode
1107:.\Generated_Source\PSoC4/Dimming.c **** ********************************************************************************
1108:.\Generated_Source\PSoC4/Dimming.c **** *
1109:.\Generated_Source\PSoC4/Dimming.c **** * Summary:
1110:.\Generated_Source\PSoC4/Dimming.c **** *  Sets the start trigger mode. For Quadrature Decoder mode this is the
1111:.\Generated_Source\PSoC4/Dimming.c **** *  phiB input.
1112:.\Generated_Source\PSoC4/Dimming.c **** *
1113:.\Generated_Source\PSoC4/Dimming.c **** * Parameters:
1114:.\Generated_Source\PSoC4/Dimming.c **** *  triggerMode: Enumerated trigger mode value
1115:.\Generated_Source\PSoC4/Dimming.c **** *   Values:
1116:.\Generated_Source\PSoC4/Dimming.c **** *     - Dimming_TRIG_LEVEL     - Level
1117:.\Generated_Source\PSoC4/Dimming.c **** *     - Dimming_TRIG_RISING    - Rising edge
1118:.\Generated_Source\PSoC4/Dimming.c **** *     - Dimming_TRIG_FALLING   - Falling edge
1119:.\Generated_Source\PSoC4/Dimming.c **** *     - Dimming_TRIG_BOTH      - Both rising and falling edge
1120:.\Generated_Source\PSoC4/Dimming.c **** *
1121:.\Generated_Source\PSoC4/Dimming.c **** * Return:
1122:.\Generated_Source\PSoC4/Dimming.c **** *  None
1123:.\Generated_Source\PSoC4/Dimming.c **** *
1124:.\Generated_Source\PSoC4/Dimming.c **** *******************************************************************************/
1125:.\Generated_Source\PSoC4/Dimming.c **** void Dimming_SetStartMode(uint32 triggerMode)
ARM GAS  C:\Users\syhaines\AppData\Local\Temp\ccsJlByc.s 			page 22


1126:.\Generated_Source\PSoC4/Dimming.c **** {
1127:.\Generated_Source\PSoC4/Dimming.c ****     uint8 enableInterrupts;
1128:.\Generated_Source\PSoC4/Dimming.c **** 
1129:.\Generated_Source\PSoC4/Dimming.c ****     enableInterrupts = CyEnterCriticalSection();
1130:.\Generated_Source\PSoC4/Dimming.c **** 
1131:.\Generated_Source\PSoC4/Dimming.c ****     Dimming_TRIG_CONTROL1_REG &= (uint32)~Dimming_START_MASK;
1132:.\Generated_Source\PSoC4/Dimming.c ****     Dimming_TRIG_CONTROL1_REG |= ((uint32)(triggerMode << Dimming_START_SHIFT));
1133:.\Generated_Source\PSoC4/Dimming.c **** 
1134:.\Generated_Source\PSoC4/Dimming.c ****     CyExitCriticalSection(enableInterrupts);
1135:.\Generated_Source\PSoC4/Dimming.c **** }
1136:.\Generated_Source\PSoC4/Dimming.c **** 
1137:.\Generated_Source\PSoC4/Dimming.c **** 
1138:.\Generated_Source\PSoC4/Dimming.c **** /*******************************************************************************
1139:.\Generated_Source\PSoC4/Dimming.c **** * Function Name: Dimming_SetStopMode
1140:.\Generated_Source\PSoC4/Dimming.c **** ********************************************************************************
1141:.\Generated_Source\PSoC4/Dimming.c **** *
1142:.\Generated_Source\PSoC4/Dimming.c **** * Summary:
1143:.\Generated_Source\PSoC4/Dimming.c **** *  Sets the stop trigger mode. For PWM mode this is the kill input.
1144:.\Generated_Source\PSoC4/Dimming.c **** *
1145:.\Generated_Source\PSoC4/Dimming.c **** * Parameters:
1146:.\Generated_Source\PSoC4/Dimming.c **** *  triggerMode: Enumerated trigger mode value
1147:.\Generated_Source\PSoC4/Dimming.c **** *   Values:
1148:.\Generated_Source\PSoC4/Dimming.c **** *     - Dimming_TRIG_LEVEL     - Level
1149:.\Generated_Source\PSoC4/Dimming.c **** *     - Dimming_TRIG_RISING    - Rising edge
1150:.\Generated_Source\PSoC4/Dimming.c **** *     - Dimming_TRIG_FALLING   - Falling edge
1151:.\Generated_Source\PSoC4/Dimming.c **** *     - Dimming_TRIG_BOTH      - Both rising and falling edge
1152:.\Generated_Source\PSoC4/Dimming.c **** *
1153:.\Generated_Source\PSoC4/Dimming.c **** * Return:
1154:.\Generated_Source\PSoC4/Dimming.c **** *  None
1155:.\Generated_Source\PSoC4/Dimming.c **** *
1156:.\Generated_Source\PSoC4/Dimming.c **** *******************************************************************************/
1157:.\Generated_Source\PSoC4/Dimming.c **** void Dimming_SetStopMode(uint32 triggerMode)
1158:.\Generated_Source\PSoC4/Dimming.c **** {
1159:.\Generated_Source\PSoC4/Dimming.c ****     uint8 enableInterrupts;
1160:.\Generated_Source\PSoC4/Dimming.c **** 
1161:.\Generated_Source\PSoC4/Dimming.c ****     enableInterrupts = CyEnterCriticalSection();
1162:.\Generated_Source\PSoC4/Dimming.c **** 
1163:.\Generated_Source\PSoC4/Dimming.c ****     Dimming_TRIG_CONTROL1_REG &= (uint32)~Dimming_STOP_MASK;
1164:.\Generated_Source\PSoC4/Dimming.c ****     Dimming_TRIG_CONTROL1_REG |= ((uint32)(triggerMode << Dimming_STOP_SHIFT));
1165:.\Generated_Source\PSoC4/Dimming.c **** 
1166:.\Generated_Source\PSoC4/Dimming.c ****     CyExitCriticalSection(enableInterrupts);
1167:.\Generated_Source\PSoC4/Dimming.c **** }
1168:.\Generated_Source\PSoC4/Dimming.c **** 
1169:.\Generated_Source\PSoC4/Dimming.c **** 
1170:.\Generated_Source\PSoC4/Dimming.c **** /*******************************************************************************
1171:.\Generated_Source\PSoC4/Dimming.c **** * Function Name: Dimming_SetCountMode
1172:.\Generated_Source\PSoC4/Dimming.c **** ********************************************************************************
1173:.\Generated_Source\PSoC4/Dimming.c **** *
1174:.\Generated_Source\PSoC4/Dimming.c **** * Summary:
1175:.\Generated_Source\PSoC4/Dimming.c **** *  Sets the count trigger mode. For Quadrature Decoder mode this is the phiA
1176:.\Generated_Source\PSoC4/Dimming.c **** *  input.
1177:.\Generated_Source\PSoC4/Dimming.c **** *
1178:.\Generated_Source\PSoC4/Dimming.c **** * Parameters:
1179:.\Generated_Source\PSoC4/Dimming.c **** *  triggerMode: Enumerated trigger mode value
1180:.\Generated_Source\PSoC4/Dimming.c **** *   Values:
1181:.\Generated_Source\PSoC4/Dimming.c **** *     - Dimming_TRIG_LEVEL     - Level
1182:.\Generated_Source\PSoC4/Dimming.c **** *     - Dimming_TRIG_RISING    - Rising edge
ARM GAS  C:\Users\syhaines\AppData\Local\Temp\ccsJlByc.s 			page 23


1183:.\Generated_Source\PSoC4/Dimming.c **** *     - Dimming_TRIG_FALLING   - Falling edge
1184:.\Generated_Source\PSoC4/Dimming.c **** *     - Dimming_TRIG_BOTH      - Both rising and falling edge
1185:.\Generated_Source\PSoC4/Dimming.c **** *
1186:.\Generated_Source\PSoC4/Dimming.c **** * Return:
1187:.\Generated_Source\PSoC4/Dimming.c **** *  None
1188:.\Generated_Source\PSoC4/Dimming.c **** *
1189:.\Generated_Source\PSoC4/Dimming.c **** *******************************************************************************/
1190:.\Generated_Source\PSoC4/Dimming.c **** void Dimming_SetCountMode(uint32 triggerMode)
1191:.\Generated_Source\PSoC4/Dimming.c **** {
1192:.\Generated_Source\PSoC4/Dimming.c ****     uint8 enableInterrupts;
1193:.\Generated_Source\PSoC4/Dimming.c **** 
1194:.\Generated_Source\PSoC4/Dimming.c ****     enableInterrupts = CyEnterCriticalSection();
1195:.\Generated_Source\PSoC4/Dimming.c **** 
1196:.\Generated_Source\PSoC4/Dimming.c ****     Dimming_TRIG_CONTROL1_REG &= (uint32)~Dimming_COUNT_MASK;
1197:.\Generated_Source\PSoC4/Dimming.c ****     Dimming_TRIG_CONTROL1_REG |= ((uint32)(triggerMode << Dimming_COUNT_SHIFT));
1198:.\Generated_Source\PSoC4/Dimming.c **** 
1199:.\Generated_Source\PSoC4/Dimming.c ****     CyExitCriticalSection(enableInterrupts);
1200:.\Generated_Source\PSoC4/Dimming.c **** }
1201:.\Generated_Source\PSoC4/Dimming.c **** 
1202:.\Generated_Source\PSoC4/Dimming.c **** 
1203:.\Generated_Source\PSoC4/Dimming.c **** /*******************************************************************************
1204:.\Generated_Source\PSoC4/Dimming.c **** * Function Name: Dimming_TriggerCommand
1205:.\Generated_Source\PSoC4/Dimming.c **** ********************************************************************************
1206:.\Generated_Source\PSoC4/Dimming.c **** *
1207:.\Generated_Source\PSoC4/Dimming.c **** * Summary:
1208:.\Generated_Source\PSoC4/Dimming.c **** *  Triggers the designated command to occur on the designated TCPWM instances.
1209:.\Generated_Source\PSoC4/Dimming.c **** *  The mask can be used to apply this command simultaneously to more than one
1210:.\Generated_Source\PSoC4/Dimming.c **** *  instance.  This allows multiple TCPWM instances to be synchronized.
1211:.\Generated_Source\PSoC4/Dimming.c **** *
1212:.\Generated_Source\PSoC4/Dimming.c **** * Parameters:
1213:.\Generated_Source\PSoC4/Dimming.c **** *  mask: A combination of mask bits for each instance of the TCPWM that the
1214:.\Generated_Source\PSoC4/Dimming.c **** *        command should apply to.  This function from one instance can be used
1215:.\Generated_Source\PSoC4/Dimming.c **** *        to apply the command to any of the instances in the design.
1216:.\Generated_Source\PSoC4/Dimming.c **** *        The mask value for a specific instance is available with the MASK
1217:.\Generated_Source\PSoC4/Dimming.c **** *        define.
1218:.\Generated_Source\PSoC4/Dimming.c **** *  command: Enumerated command values. Capture command only applicable for
1219:.\Generated_Source\PSoC4/Dimming.c **** *           Timer/Counter with Capture and PWM modes.
1220:.\Generated_Source\PSoC4/Dimming.c **** *   Values:
1221:.\Generated_Source\PSoC4/Dimming.c **** *     - Dimming_CMD_CAPTURE    - Trigger Capture command
1222:.\Generated_Source\PSoC4/Dimming.c **** *     - Dimming_CMD_RELOAD     - Trigger Reload command
1223:.\Generated_Source\PSoC4/Dimming.c **** *     - Dimming_CMD_STOP       - Trigger Stop command
1224:.\Generated_Source\PSoC4/Dimming.c **** *     - Dimming_CMD_START      - Trigger Start command
1225:.\Generated_Source\PSoC4/Dimming.c **** *
1226:.\Generated_Source\PSoC4/Dimming.c **** * Return:
1227:.\Generated_Source\PSoC4/Dimming.c **** *  None
1228:.\Generated_Source\PSoC4/Dimming.c **** *
1229:.\Generated_Source\PSoC4/Dimming.c **** *******************************************************************************/
1230:.\Generated_Source\PSoC4/Dimming.c **** void Dimming_TriggerCommand(uint32 mask, uint32 command)
1231:.\Generated_Source\PSoC4/Dimming.c **** {
1232:.\Generated_Source\PSoC4/Dimming.c ****     uint8 enableInterrupts;
1233:.\Generated_Source\PSoC4/Dimming.c **** 
1234:.\Generated_Source\PSoC4/Dimming.c ****     enableInterrupts = CyEnterCriticalSection();
1235:.\Generated_Source\PSoC4/Dimming.c **** 
1236:.\Generated_Source\PSoC4/Dimming.c ****     Dimming_COMMAND_REG = ((uint32)(mask << command));
1237:.\Generated_Source\PSoC4/Dimming.c **** 
1238:.\Generated_Source\PSoC4/Dimming.c ****     CyExitCriticalSection(enableInterrupts);
1239:.\Generated_Source\PSoC4/Dimming.c **** }
ARM GAS  C:\Users\syhaines\AppData\Local\Temp\ccsJlByc.s 			page 24


1240:.\Generated_Source\PSoC4/Dimming.c **** 
1241:.\Generated_Source\PSoC4/Dimming.c **** 
1242:.\Generated_Source\PSoC4/Dimming.c **** /*******************************************************************************
1243:.\Generated_Source\PSoC4/Dimming.c **** * Function Name: Dimming_ReadStatus
1244:.\Generated_Source\PSoC4/Dimming.c **** ********************************************************************************
1245:.\Generated_Source\PSoC4/Dimming.c **** *
1246:.\Generated_Source\PSoC4/Dimming.c **** * Summary:
1247:.\Generated_Source\PSoC4/Dimming.c **** *  Reads the status of the Dimming.
1248:.\Generated_Source\PSoC4/Dimming.c **** *
1249:.\Generated_Source\PSoC4/Dimming.c **** * Parameters:
1250:.\Generated_Source\PSoC4/Dimming.c **** *  None
1251:.\Generated_Source\PSoC4/Dimming.c **** *
1252:.\Generated_Source\PSoC4/Dimming.c **** * Return:
1253:.\Generated_Source\PSoC4/Dimming.c **** *  Status
1254:.\Generated_Source\PSoC4/Dimming.c **** *   Values:
1255:.\Generated_Source\PSoC4/Dimming.c **** *     - Dimming_STATUS_DOWN    - Set if counting down
1256:.\Generated_Source\PSoC4/Dimming.c **** *     - Dimming_STATUS_RUNNING - Set if counter is running
1257:.\Generated_Source\PSoC4/Dimming.c **** *
1258:.\Generated_Source\PSoC4/Dimming.c **** *******************************************************************************/
1259:.\Generated_Source\PSoC4/Dimming.c **** uint32 Dimming_ReadStatus(void)
1260:.\Generated_Source\PSoC4/Dimming.c **** {
1261:.\Generated_Source\PSoC4/Dimming.c ****     return ((Dimming_STATUS_REG >> Dimming_RUNNING_STATUS_SHIFT) |
1262:.\Generated_Source\PSoC4/Dimming.c ****             (Dimming_STATUS_REG & Dimming_STATUS_DOWN));
1263:.\Generated_Source\PSoC4/Dimming.c **** }
1264:.\Generated_Source\PSoC4/Dimming.c **** 
1265:.\Generated_Source\PSoC4/Dimming.c **** 
1266:.\Generated_Source\PSoC4/Dimming.c **** /*******************************************************************************
1267:.\Generated_Source\PSoC4/Dimming.c **** * Function Name: Dimming_SetInterruptMode
1268:.\Generated_Source\PSoC4/Dimming.c **** ********************************************************************************
1269:.\Generated_Source\PSoC4/Dimming.c **** *
1270:.\Generated_Source\PSoC4/Dimming.c **** * Summary:
1271:.\Generated_Source\PSoC4/Dimming.c **** *  Sets the interrupt mask to control which interrupt
1272:.\Generated_Source\PSoC4/Dimming.c **** *  requests generate the interrupt signal.
1273:.\Generated_Source\PSoC4/Dimming.c **** *
1274:.\Generated_Source\PSoC4/Dimming.c **** * Parameters:
1275:.\Generated_Source\PSoC4/Dimming.c **** *   interruptMask: Mask of bits to be enabled
1276:.\Generated_Source\PSoC4/Dimming.c **** *   Values:
1277:.\Generated_Source\PSoC4/Dimming.c **** *     - Dimming_INTR_MASK_TC       - Terminal count mask
1278:.\Generated_Source\PSoC4/Dimming.c **** *     - Dimming_INTR_MASK_CC_MATCH - Compare count / capture mask
1279:.\Generated_Source\PSoC4/Dimming.c **** *
1280:.\Generated_Source\PSoC4/Dimming.c **** * Return:
1281:.\Generated_Source\PSoC4/Dimming.c **** *  None
1282:.\Generated_Source\PSoC4/Dimming.c **** *
1283:.\Generated_Source\PSoC4/Dimming.c **** *******************************************************************************/
1284:.\Generated_Source\PSoC4/Dimming.c **** void Dimming_SetInterruptMode(uint32 interruptMask)
1285:.\Generated_Source\PSoC4/Dimming.c **** {
1286:.\Generated_Source\PSoC4/Dimming.c ****     Dimming_INTERRUPT_MASK_REG =  interruptMask;
  68              		.loc 1 1286 0
  69 0020 094B     		ldr	r3, .L2+12
  70 0022 0B3A     		sub	r2, r2, #11
  71 0024 1A60     		str	r2, [r3]
  72              	.LBE15:
  73              	.LBE14:
 129:.\Generated_Source\PSoC4/Dimming.c ****             #endif  /* ( Dimming_PWM_LEFT == Dimming_PWM_ALIGN) */
  74              		.loc 1 129 0
  75 0026 094B     		ldr	r3, .L2+16
  76 0028 3032     		add	r2, r2, #48
ARM GAS  C:\Users\syhaines\AppData\Local\Temp\ccsJlByc.s 			page 25


  77 002a 1A60     		str	r2, [r3]
  78              	.LVL2:
  79              	.LBB16:
  80              	.LBB17:
 689:.\Generated_Source\PSoC4/Dimming.c **** }
  81              		.loc 1 689 0
  82 002c FA22     		mov	r2, #250
  83 002e 084B     		ldr	r3, .L2+20
  84 0030 9200     		lsl	r2, r2, #2
  85 0032 1A60     		str	r2, [r3]
  86              	.LVL3:
  87              	.LBE17:
  88              	.LBE16:
  89              	.LBB18:
  90              	.LBB19:
 859:.\Generated_Source\PSoC4/Dimming.c **** }
  91              		.loc 1 859 0
  92 0034 074A     		ldr	r2, .L2+24
  93 0036 084B     		ldr	r3, .L2+28
  94 0038 1A60     		str	r2, [r3]
  95              	.LBE19:
  96              	.LBE18:
 160:.\Generated_Source\PSoC4/Dimming.c **** 
  97              		.loc 1 160 0
  98 003a 7047     		bx	lr
  99              	.L3:
 100              		.align	2
 101              	.L2:
 102 003c 40010540 		.word	1074069824
 103 0040 48010540 		.word	1074069832
 104 0044 64010540 		.word	1074069860
 105 0048 78010540 		.word	1074069880
 106 004c 68010540 		.word	1074069864
 107 0050 54010540 		.word	1074069844
 108 0054 21020000 		.word	545
 109 0058 4C010540 		.word	1074069836
 110              		.cfi_endproc
 111              	.LFE0:
 112              		.size	Dimming_Init, .-Dimming_Init
 113              		.section	.text.Dimming_Stop,"ax",%progbits
 114              		.align	1
 115              		.global	Dimming_Stop
 116              		.code	16
 117              		.thumb_func
 118              		.type	Dimming_Stop, %function
 119              	Dimming_Stop:
 120              	.LFB3:
 251:.\Generated_Source\PSoC4/Dimming.c ****     uint8 enableInterrupts;
 121              		.loc 1 251 0
 122              		.cfi_startproc
 123 0000 08B5     		push	{r3, lr}
 124              		.cfi_def_cfa_offset 8
 125              		.cfi_offset 3, -8
 126              		.cfi_offset 14, -4
 254:.\Generated_Source\PSoC4/Dimming.c **** 
 127              		.loc 1 254 0
 128 0002 FFF7FEFF 		bl	CyEnterCriticalSection
ARM GAS  C:\Users\syhaines\AppData\Local\Temp\ccsJlByc.s 			page 26


 129              	.LVL4:
 256:.\Generated_Source\PSoC4/Dimming.c **** 
 130              		.loc 1 256 0
 131 0006 0221     		mov	r1, #2
 132 0008 034A     		ldr	r2, .L5
 259:.\Generated_Source\PSoC4/Dimming.c **** 
 133              		.loc 1 259 0
 134              		@ sp needed
 256:.\Generated_Source\PSoC4/Dimming.c **** 
 135              		.loc 1 256 0
 136 000a 1368     		ldr	r3, [r2]
 137 000c 8B43     		bic	r3, r1
 138 000e 1360     		str	r3, [r2]
 258:.\Generated_Source\PSoC4/Dimming.c **** }
 139              		.loc 1 258 0
 140 0010 FFF7FEFF 		bl	CyExitCriticalSection
 141              	.LVL5:
 259:.\Generated_Source\PSoC4/Dimming.c **** 
 142              		.loc 1 259 0
 143 0014 08BD     		pop	{r3, pc}
 144              	.L6:
 145 0016 C046     		.align	2
 146              	.L5:
 147 0018 00000540 		.word	1074069504
 148              		.cfi_endproc
 149              	.LFE3:
 150              		.size	Dimming_Stop, .-Dimming_Stop
 151              		.section	.text.Dimming_SetMode,"ax",%progbits
 152              		.align	1
 153              		.global	Dimming_SetMode
 154              		.code	16
 155              		.thumb_func
 156              		.type	Dimming_SetMode, %function
 157              	Dimming_SetMode:
 158              	.LFB4:
 288:.\Generated_Source\PSoC4/Dimming.c ****     uint8 enableInterrupts;
 159              		.loc 1 288 0
 160              		.cfi_startproc
 161              	.LVL6:
 162 0000 10B5     		push	{r4, lr}
 163              		.cfi_def_cfa_offset 8
 164              		.cfi_offset 4, -8
 165              		.cfi_offset 14, -4
 288:.\Generated_Source\PSoC4/Dimming.c ****     uint8 enableInterrupts;
 166              		.loc 1 288 0
 167 0002 041C     		mov	r4, r0
 291:.\Generated_Source\PSoC4/Dimming.c **** 
 168              		.loc 1 291 0
 169 0004 FFF7FEFF 		bl	CyEnterCriticalSection
 170              	.LVL7:
 293:.\Generated_Source\PSoC4/Dimming.c ****     Dimming_CONTROL_REG |= mode;
 171              		.loc 1 293 0
 172 0008 054B     		ldr	r3, .L8
 173 000a 064A     		ldr	r2, .L8+4
 174 000c 1968     		ldr	r1, [r3]
 297:.\Generated_Source\PSoC4/Dimming.c **** 
 175              		.loc 1 297 0
ARM GAS  C:\Users\syhaines\AppData\Local\Temp\ccsJlByc.s 			page 27


 176              		@ sp needed
 293:.\Generated_Source\PSoC4/Dimming.c ****     Dimming_CONTROL_REG |= mode;
 177              		.loc 1 293 0
 178 000e 0A40     		and	r2, r1
 179 0010 1A60     		str	r2, [r3]
 294:.\Generated_Source\PSoC4/Dimming.c **** 
 180              		.loc 1 294 0
 181 0012 1A68     		ldr	r2, [r3]
 182 0014 2243     		orr	r2, r4
 183 0016 1A60     		str	r2, [r3]
 296:.\Generated_Source\PSoC4/Dimming.c **** }
 184              		.loc 1 296 0
 185 0018 FFF7FEFF 		bl	CyExitCriticalSection
 186              	.LVL8:
 187              	.LVL9:
 297:.\Generated_Source\PSoC4/Dimming.c **** 
 188              		.loc 1 297 0
 189 001c 10BD     		pop	{r4, pc}
 190              	.L9:
 191 001e C046     		.align	2
 192              	.L8:
 193 0020 40010540 		.word	1074069824
 194 0024 FFFFFFF8 		.word	-117440513
 195              		.cfi_endproc
 196              	.LFE4:
 197              		.size	Dimming_SetMode, .-Dimming_SetMode
 198              		.section	.text.Dimming_SetQDMode,"ax",%progbits
 199              		.align	1
 200              		.global	Dimming_SetQDMode
 201              		.code	16
 202              		.thumb_func
 203              		.type	Dimming_SetQDMode, %function
 204              	Dimming_SetQDMode:
 205              	.LFB5:
 321:.\Generated_Source\PSoC4/Dimming.c ****     uint8 enableInterrupts;
 206              		.loc 1 321 0
 207              		.cfi_startproc
 208              	.LVL10:
 209 0000 10B5     		push	{r4, lr}
 210              		.cfi_def_cfa_offset 8
 211              		.cfi_offset 4, -8
 212              		.cfi_offset 14, -4
 321:.\Generated_Source\PSoC4/Dimming.c ****     uint8 enableInterrupts;
 213              		.loc 1 321 0
 214 0002 041C     		mov	r4, r0
 324:.\Generated_Source\PSoC4/Dimming.c **** 
 215              		.loc 1 324 0
 216 0004 FFF7FEFF 		bl	CyEnterCriticalSection
 217              	.LVL11:
 326:.\Generated_Source\PSoC4/Dimming.c ****     Dimming_CONTROL_REG |= qdMode;
 218              		.loc 1 326 0
 219 0008 054B     		ldr	r3, .L11
 220 000a 064A     		ldr	r2, .L11+4
 221 000c 1968     		ldr	r1, [r3]
 330:.\Generated_Source\PSoC4/Dimming.c **** 
 222              		.loc 1 330 0
 223              		@ sp needed
ARM GAS  C:\Users\syhaines\AppData\Local\Temp\ccsJlByc.s 			page 28


 326:.\Generated_Source\PSoC4/Dimming.c ****     Dimming_CONTROL_REG |= qdMode;
 224              		.loc 1 326 0
 225 000e 0A40     		and	r2, r1
 226 0010 1A60     		str	r2, [r3]
 327:.\Generated_Source\PSoC4/Dimming.c **** 
 227              		.loc 1 327 0
 228 0012 1A68     		ldr	r2, [r3]
 229 0014 2243     		orr	r2, r4
 230 0016 1A60     		str	r2, [r3]
 329:.\Generated_Source\PSoC4/Dimming.c **** }
 231              		.loc 1 329 0
 232 0018 FFF7FEFF 		bl	CyExitCriticalSection
 233              	.LVL12:
 234              	.LVL13:
 330:.\Generated_Source\PSoC4/Dimming.c **** 
 235              		.loc 1 330 0
 236 001c 10BD     		pop	{r4, pc}
 237              	.L12:
 238 001e C046     		.align	2
 239              	.L11:
 240 0020 40010540 		.word	1074069824
 241 0024 FFFF8FFF 		.word	-7340033
 242              		.cfi_endproc
 243              	.LFE5:
 244              		.size	Dimming_SetQDMode, .-Dimming_SetQDMode
 245              		.section	.text.Dimming_SetPrescaler,"ax",%progbits
 246              		.align	1
 247              		.global	Dimming_SetPrescaler
 248              		.code	16
 249              		.thumb_func
 250              		.type	Dimming_SetPrescaler, %function
 251              	Dimming_SetPrescaler:
 252              	.LFB6:
 358:.\Generated_Source\PSoC4/Dimming.c ****     uint8 enableInterrupts;
 253              		.loc 1 358 0
 254              		.cfi_startproc
 255              	.LVL14:
 256 0000 10B5     		push	{r4, lr}
 257              		.cfi_def_cfa_offset 8
 258              		.cfi_offset 4, -8
 259              		.cfi_offset 14, -4
 358:.\Generated_Source\PSoC4/Dimming.c ****     uint8 enableInterrupts;
 260              		.loc 1 358 0
 261 0002 041C     		mov	r4, r0
 361:.\Generated_Source\PSoC4/Dimming.c **** 
 262              		.loc 1 361 0
 263 0004 FFF7FEFF 		bl	CyEnterCriticalSection
 264              	.LVL15:
 363:.\Generated_Source\PSoC4/Dimming.c ****     Dimming_CONTROL_REG |= prescaler;
 265              		.loc 1 363 0
 266 0008 054B     		ldr	r3, .L14
 267 000a 064A     		ldr	r2, .L14+4
 268 000c 1968     		ldr	r1, [r3]
 367:.\Generated_Source\PSoC4/Dimming.c **** 
 269              		.loc 1 367 0
 270              		@ sp needed
 363:.\Generated_Source\PSoC4/Dimming.c ****     Dimming_CONTROL_REG |= prescaler;
ARM GAS  C:\Users\syhaines\AppData\Local\Temp\ccsJlByc.s 			page 29


 271              		.loc 1 363 0
 272 000e 0A40     		and	r2, r1
 273 0010 1A60     		str	r2, [r3]
 364:.\Generated_Source\PSoC4/Dimming.c **** 
 274              		.loc 1 364 0
 275 0012 1A68     		ldr	r2, [r3]
 276 0014 2243     		orr	r2, r4
 277 0016 1A60     		str	r2, [r3]
 366:.\Generated_Source\PSoC4/Dimming.c **** }
 278              		.loc 1 366 0
 279 0018 FFF7FEFF 		bl	CyExitCriticalSection
 280              	.LVL16:
 281              	.LVL17:
 367:.\Generated_Source\PSoC4/Dimming.c **** 
 282              		.loc 1 367 0
 283 001c 10BD     		pop	{r4, pc}
 284              	.L15:
 285 001e C046     		.align	2
 286              	.L14:
 287 0020 40010540 		.word	1074069824
 288 0024 FF00FFFF 		.word	-65281
 289              		.cfi_endproc
 290              	.LFE6:
 291              		.size	Dimming_SetPrescaler, .-Dimming_SetPrescaler
 292              		.section	.text.Dimming_SetOneShot,"ax",%progbits
 293              		.align	1
 294              		.global	Dimming_SetOneShot
 295              		.code	16
 296              		.thumb_func
 297              		.type	Dimming_SetOneShot, %function
 298              	Dimming_SetOneShot:
 299              	.LFB7:
 390:.\Generated_Source\PSoC4/Dimming.c ****     uint8 enableInterrupts;
 300              		.loc 1 390 0
 301              		.cfi_startproc
 302              	.LVL18:
 303 0000 10B5     		push	{r4, lr}
 304              		.cfi_def_cfa_offset 8
 305              		.cfi_offset 4, -8
 306              		.cfi_offset 14, -4
 390:.\Generated_Source\PSoC4/Dimming.c ****     uint8 enableInterrupts;
 307              		.loc 1 390 0
 308 0002 041C     		mov	r4, r0
 393:.\Generated_Source\PSoC4/Dimming.c **** 
 309              		.loc 1 393 0
 310 0004 FFF7FEFF 		bl	CyEnterCriticalSection
 311              	.LVL19:
 395:.\Generated_Source\PSoC4/Dimming.c ****     Dimming_CONTROL_REG |= ((uint32)((oneShotEnable & Dimming_1BIT_MASK) <<
 312              		.loc 1 395 0
 313 0008 064A     		ldr	r2, .L17
 314 000a 074B     		ldr	r3, .L17+4
 315 000c 1168     		ldr	r1, [r2]
 400:.\Generated_Source\PSoC4/Dimming.c **** 
 316              		.loc 1 400 0
 317              		@ sp needed
 395:.\Generated_Source\PSoC4/Dimming.c ****     Dimming_CONTROL_REG |= ((uint32)((oneShotEnable & Dimming_1BIT_MASK) <<
 318              		.loc 1 395 0
ARM GAS  C:\Users\syhaines\AppData\Local\Temp\ccsJlByc.s 			page 30


 319 000e 0B40     		and	r3, r1
 320 0010 1360     		str	r3, [r2]
 396:.\Generated_Source\PSoC4/Dimming.c ****                                                                Dimming_ONESHOT_SHIFT));
 321              		.loc 1 396 0
 322 0012 0123     		mov	r3, #1
 323 0014 1168     		ldr	r1, [r2]
 324 0016 2340     		and	r3, r4
 325 0018 9B04     		lsl	r3, r3, #18
 326 001a 0B43     		orr	r3, r1
 327 001c 1360     		str	r3, [r2]
 399:.\Generated_Source\PSoC4/Dimming.c **** }
 328              		.loc 1 399 0
 329 001e FFF7FEFF 		bl	CyExitCriticalSection
 330              	.LVL20:
 331              	.LVL21:
 400:.\Generated_Source\PSoC4/Dimming.c **** 
 332              		.loc 1 400 0
 333 0022 10BD     		pop	{r4, pc}
 334              	.L18:
 335              		.align	2
 336              	.L17:
 337 0024 40010540 		.word	1074069824
 338 0028 FFFFFBFF 		.word	-262145
 339              		.cfi_endproc
 340              	.LFE7:
 341              		.size	Dimming_SetOneShot, .-Dimming_SetOneShot
 342              		.section	.text.Dimming_SetPWMMode,"ax",%progbits
 343              		.align	1
 344              		.global	Dimming_SetPWMMode
 345              		.code	16
 346              		.thumb_func
 347              		.type	Dimming_SetPWMMode, %function
 348              	Dimming_SetPWMMode:
 349              	.LFB8:
 444:.\Generated_Source\PSoC4/Dimming.c ****     Dimming_TRIG_CONTROL2_REG = (modeMask & Dimming_6BIT_MASK);
 350              		.loc 1 444 0
 351              		.cfi_startproc
 352              	.LVL22:
 445:.\Generated_Source\PSoC4/Dimming.c **** }
 353              		.loc 1 445 0
 354 0000 3F23     		mov	r3, #63
 355 0002 1840     		and	r0, r3
 356              	.LVL23:
 357 0004 014B     		ldr	r3, .L20
 446:.\Generated_Source\PSoC4/Dimming.c **** 
 358              		.loc 1 446 0
 359              		@ sp needed
 445:.\Generated_Source\PSoC4/Dimming.c **** }
 360              		.loc 1 445 0
 361 0006 1860     		str	r0, [r3]
 446:.\Generated_Source\PSoC4/Dimming.c **** 
 362              		.loc 1 446 0
 363 0008 7047     		bx	lr
 364              	.L21:
 365 000a C046     		.align	2
 366              	.L20:
 367 000c 68010540 		.word	1074069864
ARM GAS  C:\Users\syhaines\AppData\Local\Temp\ccsJlByc.s 			page 31


 368              		.cfi_endproc
 369              	.LFE8:
 370              		.size	Dimming_SetPWMMode, .-Dimming_SetPWMMode
 371              		.section	.text.Dimming_SetPWMSyncKill,"ax",%progbits
 372              		.align	1
 373              		.global	Dimming_SetPWMSyncKill
 374              		.code	16
 375              		.thumb_func
 376              		.type	Dimming_SetPWMSyncKill, %function
 377              	Dimming_SetPWMSyncKill:
 378              	.LFB9:
 480:.\Generated_Source\PSoC4/Dimming.c ****     uint8 enableInterrupts;
 379              		.loc 1 480 0
 380              		.cfi_startproc
 381              	.LVL24:
 382 0000 10B5     		push	{r4, lr}
 383              		.cfi_def_cfa_offset 8
 384              		.cfi_offset 4, -8
 385              		.cfi_offset 14, -4
 480:.\Generated_Source\PSoC4/Dimming.c ****     uint8 enableInterrupts;
 386              		.loc 1 480 0
 387 0002 041C     		mov	r4, r0
 483:.\Generated_Source\PSoC4/Dimming.c **** 
 388              		.loc 1 483 0
 389 0004 FFF7FEFF 		bl	CyEnterCriticalSection
 390              	.LVL25:
 485:.\Generated_Source\PSoC4/Dimming.c ****     Dimming_CONTROL_REG |= ((uint32)((syncKillEnable & Dimming_1BIT_MASK)  <<
 391              		.loc 1 485 0
 392 0008 0421     		mov	r1, #4
 393 000a 064A     		ldr	r2, .L23
 490:.\Generated_Source\PSoC4/Dimming.c **** 
 394              		.loc 1 490 0
 395              		@ sp needed
 485:.\Generated_Source\PSoC4/Dimming.c ****     Dimming_CONTROL_REG |= ((uint32)((syncKillEnable & Dimming_1BIT_MASK)  <<
 396              		.loc 1 485 0
 397 000c 1368     		ldr	r3, [r2]
 398 000e 8B43     		bic	r3, r1
 399 0010 1360     		str	r3, [r2]
 486:.\Generated_Source\PSoC4/Dimming.c ****                                                Dimming_PWM_SYNC_KILL_SHIFT));
 400              		.loc 1 486 0
 401 0012 0123     		mov	r3, #1
 402 0014 1168     		ldr	r1, [r2]
 403 0016 2340     		and	r3, r4
 404 0018 9B00     		lsl	r3, r3, #2
 405 001a 0B43     		orr	r3, r1
 406 001c 1360     		str	r3, [r2]
 489:.\Generated_Source\PSoC4/Dimming.c **** }
 407              		.loc 1 489 0
 408 001e FFF7FEFF 		bl	CyExitCriticalSection
 409              	.LVL26:
 410              	.LVL27:
 490:.\Generated_Source\PSoC4/Dimming.c **** 
 411              		.loc 1 490 0
 412 0022 10BD     		pop	{r4, pc}
 413              	.L24:
 414              		.align	2
 415              	.L23:
ARM GAS  C:\Users\syhaines\AppData\Local\Temp\ccsJlByc.s 			page 32


 416 0024 40010540 		.word	1074069824
 417              		.cfi_endproc
 418              	.LFE9:
 419              		.size	Dimming_SetPWMSyncKill, .-Dimming_SetPWMSyncKill
 420              		.section	.text.Dimming_SetPWMStopOnKill,"ax",%progbits
 421              		.align	1
 422              		.global	Dimming_SetPWMStopOnKill
 423              		.code	16
 424              		.thumb_func
 425              		.type	Dimming_SetPWMStopOnKill, %function
 426              	Dimming_SetPWMStopOnKill:
 427              	.LFB10:
 514:.\Generated_Source\PSoC4/Dimming.c ****     uint8 enableInterrupts;
 428              		.loc 1 514 0
 429              		.cfi_startproc
 430              	.LVL28:
 431 0000 10B5     		push	{r4, lr}
 432              		.cfi_def_cfa_offset 8
 433              		.cfi_offset 4, -8
 434              		.cfi_offset 14, -4
 514:.\Generated_Source\PSoC4/Dimming.c ****     uint8 enableInterrupts;
 435              		.loc 1 514 0
 436 0002 041C     		mov	r4, r0
 517:.\Generated_Source\PSoC4/Dimming.c **** 
 437              		.loc 1 517 0
 438 0004 FFF7FEFF 		bl	CyEnterCriticalSection
 439              	.LVL29:
 519:.\Generated_Source\PSoC4/Dimming.c ****     Dimming_CONTROL_REG |= ((uint32)((stopOnKillEnable & Dimming_1BIT_MASK)  <<
 440              		.loc 1 519 0
 441 0008 0821     		mov	r1, #8
 442 000a 064A     		ldr	r2, .L26
 524:.\Generated_Source\PSoC4/Dimming.c **** 
 443              		.loc 1 524 0
 444              		@ sp needed
 519:.\Generated_Source\PSoC4/Dimming.c ****     Dimming_CONTROL_REG |= ((uint32)((stopOnKillEnable & Dimming_1BIT_MASK)  <<
 445              		.loc 1 519 0
 446 000c 1368     		ldr	r3, [r2]
 447 000e 8B43     		bic	r3, r1
 448 0010 1360     		str	r3, [r2]
 520:.\Generated_Source\PSoC4/Dimming.c ****                                                          Dimming_PWM_STOP_KILL_SHIFT));
 449              		.loc 1 520 0
 450 0012 0123     		mov	r3, #1
 451 0014 1168     		ldr	r1, [r2]
 452 0016 2340     		and	r3, r4
 453 0018 DB00     		lsl	r3, r3, #3
 454 001a 0B43     		orr	r3, r1
 455 001c 1360     		str	r3, [r2]
 523:.\Generated_Source\PSoC4/Dimming.c **** }
 456              		.loc 1 523 0
 457 001e FFF7FEFF 		bl	CyExitCriticalSection
 458              	.LVL30:
 459              	.LVL31:
 524:.\Generated_Source\PSoC4/Dimming.c **** 
 460              		.loc 1 524 0
 461 0022 10BD     		pop	{r4, pc}
 462              	.L27:
 463              		.align	2
ARM GAS  C:\Users\syhaines\AppData\Local\Temp\ccsJlByc.s 			page 33


 464              	.L26:
 465 0024 40010540 		.word	1074069824
 466              		.cfi_endproc
 467              	.LFE10:
 468              		.size	Dimming_SetPWMStopOnKill, .-Dimming_SetPWMStopOnKill
 469              		.section	.text.Dimming_SetPWMDeadTime,"ax",%progbits
 470              		.align	1
 471              		.global	Dimming_SetPWMDeadTime
 472              		.code	16
 473              		.thumb_func
 474              		.type	Dimming_SetPWMDeadTime, %function
 475              	Dimming_SetPWMDeadTime:
 476              	.LFB11:
 547:.\Generated_Source\PSoC4/Dimming.c ****     uint8 enableInterrupts;
 477              		.loc 1 547 0
 478              		.cfi_startproc
 479              	.LVL32:
 480 0000 10B5     		push	{r4, lr}
 481              		.cfi_def_cfa_offset 8
 482              		.cfi_offset 4, -8
 483              		.cfi_offset 14, -4
 547:.\Generated_Source\PSoC4/Dimming.c ****     uint8 enableInterrupts;
 484              		.loc 1 547 0
 485 0002 041C     		mov	r4, r0
 550:.\Generated_Source\PSoC4/Dimming.c **** 
 486              		.loc 1 550 0
 487 0004 FFF7FEFF 		bl	CyEnterCriticalSection
 488              	.LVL33:
 552:.\Generated_Source\PSoC4/Dimming.c ****     Dimming_CONTROL_REG |= ((uint32)((deadTime & Dimming_8BIT_MASK) <<
 489              		.loc 1 552 0
 490 0008 064B     		ldr	r3, .L29
 491 000a 074A     		ldr	r2, .L29+4
 492 000c 1968     		ldr	r1, [r3]
 553:.\Generated_Source\PSoC4/Dimming.c ****                                                           Dimming_PRESCALER_SHIFT));
 493              		.loc 1 553 0
 494 000e 2406     		lsl	r4, r4, #24
 495              	.LVL34:
 552:.\Generated_Source\PSoC4/Dimming.c ****     Dimming_CONTROL_REG |= ((uint32)((deadTime & Dimming_8BIT_MASK) <<
 496              		.loc 1 552 0
 497 0010 0A40     		and	r2, r1
 498 0012 1A60     		str	r2, [r3]
 553:.\Generated_Source\PSoC4/Dimming.c ****                                                           Dimming_PRESCALER_SHIFT));
 499              		.loc 1 553 0
 500 0014 1A68     		ldr	r2, [r3]
 501 0016 240C     		lsr	r4, r4, #16
 502 0018 1443     		orr	r4, r2
 503 001a 1C60     		str	r4, [r3]
 556:.\Generated_Source\PSoC4/Dimming.c **** }
 504              		.loc 1 556 0
 505 001c FFF7FEFF 		bl	CyExitCriticalSection
 506              	.LVL35:
 557:.\Generated_Source\PSoC4/Dimming.c **** 
 507              		.loc 1 557 0
 508              		@ sp needed
 509 0020 10BD     		pop	{r4, pc}
 510              	.L30:
 511 0022 C046     		.align	2
ARM GAS  C:\Users\syhaines\AppData\Local\Temp\ccsJlByc.s 			page 34


 512              	.L29:
 513 0024 40010540 		.word	1074069824
 514 0028 FF00FFFF 		.word	-65281
 515              		.cfi_endproc
 516              	.LFE11:
 517              		.size	Dimming_SetPWMDeadTime, .-Dimming_SetPWMDeadTime
 518              		.section	.text.Dimming_SetPWMInvert,"ax",%progbits
 519              		.align	1
 520              		.global	Dimming_SetPWMInvert
 521              		.code	16
 522              		.thumb_func
 523              		.type	Dimming_SetPWMInvert, %function
 524              	Dimming_SetPWMInvert:
 525              	.LFB12:
 580:.\Generated_Source\PSoC4/Dimming.c ****     uint8 enableInterrupts;
 526              		.loc 1 580 0
 527              		.cfi_startproc
 528              	.LVL36:
 529 0000 10B5     		push	{r4, lr}
 530              		.cfi_def_cfa_offset 8
 531              		.cfi_offset 4, -8
 532              		.cfi_offset 14, -4
 580:.\Generated_Source\PSoC4/Dimming.c ****     uint8 enableInterrupts;
 533              		.loc 1 580 0
 534 0002 041C     		mov	r4, r0
 583:.\Generated_Source\PSoC4/Dimming.c **** 
 535              		.loc 1 583 0
 536 0004 FFF7FEFF 		bl	CyEnterCriticalSection
 537              	.LVL37:
 585:.\Generated_Source\PSoC4/Dimming.c ****     Dimming_CONTROL_REG |= mask;
 538              		.loc 1 585 0
 539 0008 054B     		ldr	r3, .L32
 540 000a 064A     		ldr	r2, .L32+4
 541 000c 1968     		ldr	r1, [r3]
 589:.\Generated_Source\PSoC4/Dimming.c **** 
 542              		.loc 1 589 0
 543              		@ sp needed
 585:.\Generated_Source\PSoC4/Dimming.c ****     Dimming_CONTROL_REG |= mask;
 544              		.loc 1 585 0
 545 000e 0A40     		and	r2, r1
 546 0010 1A60     		str	r2, [r3]
 586:.\Generated_Source\PSoC4/Dimming.c **** 
 547              		.loc 1 586 0
 548 0012 1A68     		ldr	r2, [r3]
 549 0014 2243     		orr	r2, r4
 550 0016 1A60     		str	r2, [r3]
 588:.\Generated_Source\PSoC4/Dimming.c **** }
 551              		.loc 1 588 0
 552 0018 FFF7FEFF 		bl	CyExitCriticalSection
 553              	.LVL38:
 554              	.LVL39:
 589:.\Generated_Source\PSoC4/Dimming.c **** 
 555              		.loc 1 589 0
 556 001c 10BD     		pop	{r4, pc}
 557              	.L33:
 558 001e C046     		.align	2
 559              	.L32:
ARM GAS  C:\Users\syhaines\AppData\Local\Temp\ccsJlByc.s 			page 35


 560 0020 40010540 		.word	1074069824
 561 0024 FFFFCFFF 		.word	-3145729
 562              		.cfi_endproc
 563              	.LFE12:
 564              		.size	Dimming_SetPWMInvert, .-Dimming_SetPWMInvert
 565              		.section	.text.Dimming_WriteCounter,"ax",%progbits
 566              		.align	1
 567              		.global	Dimming_WriteCounter
 568              		.code	16
 569              		.thumb_func
 570              		.type	Dimming_WriteCounter, %function
 571              	Dimming_WriteCounter:
 572              	.LFB13:
 610:.\Generated_Source\PSoC4/Dimming.c ****     Dimming_COUNTER_REG = (count & Dimming_16BIT_MASK);
 573              		.loc 1 610 0
 574              		.cfi_startproc
 575              	.LVL40:
 611:.\Generated_Source\PSoC4/Dimming.c **** }
 576              		.loc 1 611 0
 577 0000 014B     		ldr	r3, .L35
 578 0002 80B2     		uxth	r0, r0
 579              	.LVL41:
 580 0004 1860     		str	r0, [r3]
 612:.\Generated_Source\PSoC4/Dimming.c **** 
 581              		.loc 1 612 0
 582              		@ sp needed
 583 0006 7047     		bx	lr
 584              	.L36:
 585              		.align	2
 586              	.L35:
 587 0008 48010540 		.word	1074069832
 588              		.cfi_endproc
 589              	.LFE13:
 590              		.size	Dimming_WriteCounter, .-Dimming_WriteCounter
 591              		.section	.text.Dimming_ReadCounter,"ax",%progbits
 592              		.align	1
 593              		.global	Dimming_ReadCounter
 594              		.code	16
 595              		.thumb_func
 596              		.type	Dimming_ReadCounter, %function
 597              	Dimming_ReadCounter:
 598              	.LFB14:
 630:.\Generated_Source\PSoC4/Dimming.c ****     return (Dimming_COUNTER_REG & Dimming_16BIT_MASK);
 599              		.loc 1 630 0
 600              		.cfi_startproc
 631:.\Generated_Source\PSoC4/Dimming.c **** }
 601              		.loc 1 631 0
 602 0000 014B     		ldr	r3, .L38
 632:.\Generated_Source\PSoC4/Dimming.c **** 
 603              		.loc 1 632 0
 604              		@ sp needed
 631:.\Generated_Source\PSoC4/Dimming.c **** }
 605              		.loc 1 631 0
 606 0002 1868     		ldr	r0, [r3]
 607 0004 80B2     		uxth	r0, r0
 632:.\Generated_Source\PSoC4/Dimming.c **** 
 608              		.loc 1 632 0
ARM GAS  C:\Users\syhaines\AppData\Local\Temp\ccsJlByc.s 			page 36


 609 0006 7047     		bx	lr
 610              	.L39:
 611              		.align	2
 612              	.L38:
 613 0008 48010540 		.word	1074069832
 614              		.cfi_endproc
 615              	.LFE14:
 616              		.size	Dimming_ReadCounter, .-Dimming_ReadCounter
 617              		.section	.text.Dimming_SetCounterMode,"ax",%progbits
 618              		.align	1
 619              		.global	Dimming_SetCounterMode
 620              		.code	16
 621              		.thumb_func
 622              		.type	Dimming_SetCounterMode, %function
 623              	Dimming_SetCounterMode:
 624              	.LFB15:
 659:.\Generated_Source\PSoC4/Dimming.c ****     uint8 enableInterrupts;
 625              		.loc 1 659 0
 626              		.cfi_startproc
 627              	.LVL42:
 628 0000 10B5     		push	{r4, lr}
 629              		.cfi_def_cfa_offset 8
 630              		.cfi_offset 4, -8
 631              		.cfi_offset 14, -4
 659:.\Generated_Source\PSoC4/Dimming.c ****     uint8 enableInterrupts;
 632              		.loc 1 659 0
 633 0002 041C     		mov	r4, r0
 662:.\Generated_Source\PSoC4/Dimming.c **** 
 634              		.loc 1 662 0
 635 0004 FFF7FEFF 		bl	CyEnterCriticalSection
 636              	.LVL43:
 664:.\Generated_Source\PSoC4/Dimming.c ****     Dimming_CONTROL_REG |= counterMode;
 637              		.loc 1 664 0
 638 0008 054B     		ldr	r3, .L41
 639 000a 064A     		ldr	r2, .L41+4
 640 000c 1968     		ldr	r1, [r3]
 668:.\Generated_Source\PSoC4/Dimming.c **** 
 641              		.loc 1 668 0
 642              		@ sp needed
 664:.\Generated_Source\PSoC4/Dimming.c ****     Dimming_CONTROL_REG |= counterMode;
 643              		.loc 1 664 0
 644 000e 0A40     		and	r2, r1
 645 0010 1A60     		str	r2, [r3]
 665:.\Generated_Source\PSoC4/Dimming.c **** 
 646              		.loc 1 665 0
 647 0012 1A68     		ldr	r2, [r3]
 648 0014 2243     		orr	r2, r4
 649 0016 1A60     		str	r2, [r3]
 667:.\Generated_Source\PSoC4/Dimming.c **** }
 650              		.loc 1 667 0
 651 0018 FFF7FEFF 		bl	CyExitCriticalSection
 652              	.LVL44:
 653              	.LVL45:
 668:.\Generated_Source\PSoC4/Dimming.c **** 
 654              		.loc 1 668 0
 655 001c 10BD     		pop	{r4, pc}
 656              	.L42:
ARM GAS  C:\Users\syhaines\AppData\Local\Temp\ccsJlByc.s 			page 37


 657 001e C046     		.align	2
 658              	.L41:
 659 0020 40010540 		.word	1074069824
 660 0024 FFFFFCFF 		.word	-196609
 661              		.cfi_endproc
 662              	.LFE15:
 663              		.size	Dimming_SetCounterMode, .-Dimming_SetCounterMode
 664              		.section	.text.Dimming_WritePeriod,"ax",%progbits
 665              		.align	1
 666              		.global	Dimming_WritePeriod
 667              		.code	16
 668              		.thumb_func
 669              		.type	Dimming_WritePeriod, %function
 670              	Dimming_WritePeriod:
 671              	.LFB16:
 688:.\Generated_Source\PSoC4/Dimming.c ****     Dimming_PERIOD_REG = (period & Dimming_16BIT_MASK);
 672              		.loc 1 688 0
 673              		.cfi_startproc
 674              	.LVL46:
 689:.\Generated_Source\PSoC4/Dimming.c **** }
 675              		.loc 1 689 0
 676 0000 014B     		ldr	r3, .L44
 677 0002 80B2     		uxth	r0, r0
 678              	.LVL47:
 679 0004 1860     		str	r0, [r3]
 690:.\Generated_Source\PSoC4/Dimming.c **** 
 680              		.loc 1 690 0
 681              		@ sp needed
 682 0006 7047     		bx	lr
 683              	.L45:
 684              		.align	2
 685              	.L44:
 686 0008 54010540 		.word	1074069844
 687              		.cfi_endproc
 688              	.LFE16:
 689              		.size	Dimming_WritePeriod, .-Dimming_WritePeriod
 690              		.section	.text.Dimming_ReadPeriod,"ax",%progbits
 691              		.align	1
 692              		.global	Dimming_ReadPeriod
 693              		.code	16
 694              		.thumb_func
 695              		.type	Dimming_ReadPeriod, %function
 696              	Dimming_ReadPeriod:
 697              	.LFB17:
 708:.\Generated_Source\PSoC4/Dimming.c ****     return (Dimming_PERIOD_REG & Dimming_16BIT_MASK);
 698              		.loc 1 708 0
 699              		.cfi_startproc
 709:.\Generated_Source\PSoC4/Dimming.c **** }
 700              		.loc 1 709 0
 701 0000 014B     		ldr	r3, .L47
 710:.\Generated_Source\PSoC4/Dimming.c **** 
 702              		.loc 1 710 0
 703              		@ sp needed
 709:.\Generated_Source\PSoC4/Dimming.c **** }
 704              		.loc 1 709 0
 705 0002 1868     		ldr	r0, [r3]
 706 0004 80B2     		uxth	r0, r0
ARM GAS  C:\Users\syhaines\AppData\Local\Temp\ccsJlByc.s 			page 38


 710:.\Generated_Source\PSoC4/Dimming.c **** 
 707              		.loc 1 710 0
 708 0006 7047     		bx	lr
 709              	.L48:
 710              		.align	2
 711              	.L47:
 712 0008 54010540 		.word	1074069844
 713              		.cfi_endproc
 714              	.LFE17:
 715              		.size	Dimming_ReadPeriod, .-Dimming_ReadPeriod
 716              		.section	.text.Dimming_SetCompareSwap,"ax",%progbits
 717              		.align	1
 718              		.global	Dimming_SetCompareSwap
 719              		.code	16
 720              		.thumb_func
 721              		.type	Dimming_SetCompareSwap, %function
 722              	Dimming_SetCompareSwap:
 723              	.LFB18:
 734:.\Generated_Source\PSoC4/Dimming.c ****     uint8 enableInterrupts;
 724              		.loc 1 734 0
 725              		.cfi_startproc
 726              	.LVL48:
 727 0000 10B5     		push	{r4, lr}
 728              		.cfi_def_cfa_offset 8
 729              		.cfi_offset 4, -8
 730              		.cfi_offset 14, -4
 734:.\Generated_Source\PSoC4/Dimming.c ****     uint8 enableInterrupts;
 731              		.loc 1 734 0
 732 0002 041C     		mov	r4, r0
 737:.\Generated_Source\PSoC4/Dimming.c **** 
 733              		.loc 1 737 0
 734 0004 FFF7FEFF 		bl	CyEnterCriticalSection
 735              	.LVL49:
 739:.\Generated_Source\PSoC4/Dimming.c ****     Dimming_CONTROL_REG |= (swapEnable & Dimming_1BIT_MASK);
 736              		.loc 1 739 0
 737 0008 0122     		mov	r2, #1
 738 000a 054B     		ldr	r3, .L50
 743:.\Generated_Source\PSoC4/Dimming.c **** 
 739              		.loc 1 743 0
 740              		@ sp needed
 739:.\Generated_Source\PSoC4/Dimming.c ****     Dimming_CONTROL_REG |= (swapEnable & Dimming_1BIT_MASK);
 741              		.loc 1 739 0
 742 000c 1968     		ldr	r1, [r3]
 743 000e 9143     		bic	r1, r2
 744 0010 1960     		str	r1, [r3]
 740:.\Generated_Source\PSoC4/Dimming.c **** 
 745              		.loc 1 740 0
 746 0012 1968     		ldr	r1, [r3]
 747 0014 2240     		and	r2, r4
 748 0016 0A43     		orr	r2, r1
 749 0018 1A60     		str	r2, [r3]
 742:.\Generated_Source\PSoC4/Dimming.c **** }
 750              		.loc 1 742 0
 751 001a FFF7FEFF 		bl	CyExitCriticalSection
 752              	.LVL50:
 753              	.LVL51:
 743:.\Generated_Source\PSoC4/Dimming.c **** 
ARM GAS  C:\Users\syhaines\AppData\Local\Temp\ccsJlByc.s 			page 39


 754              		.loc 1 743 0
 755 001e 10BD     		pop	{r4, pc}
 756              	.L51:
 757              		.align	2
 758              	.L50:
 759 0020 40010540 		.word	1074069824
 760              		.cfi_endproc
 761              	.LFE18:
 762              		.size	Dimming_SetCompareSwap, .-Dimming_SetCompareSwap
 763              		.section	.text.Dimming_WritePeriodBuf,"ax",%progbits
 764              		.align	1
 765              		.global	Dimming_WritePeriodBuf
 766              		.code	16
 767              		.thumb_func
 768              		.type	Dimming_WritePeriodBuf, %function
 769              	Dimming_WritePeriodBuf:
 770              	.LFB19:
 761:.\Generated_Source\PSoC4/Dimming.c ****     Dimming_PERIOD_BUF_REG = (periodBuf & Dimming_16BIT_MASK);
 771              		.loc 1 761 0
 772              		.cfi_startproc
 773              	.LVL52:
 762:.\Generated_Source\PSoC4/Dimming.c **** }
 774              		.loc 1 762 0
 775 0000 014B     		ldr	r3, .L53
 776 0002 80B2     		uxth	r0, r0
 777              	.LVL53:
 778 0004 1860     		str	r0, [r3]
 763:.\Generated_Source\PSoC4/Dimming.c **** 
 779              		.loc 1 763 0
 780              		@ sp needed
 781 0006 7047     		bx	lr
 782              	.L54:
 783              		.align	2
 784              	.L53:
 785 0008 58010540 		.word	1074069848
 786              		.cfi_endproc
 787              	.LFE19:
 788              		.size	Dimming_WritePeriodBuf, .-Dimming_WritePeriodBuf
 789              		.section	.text.Dimming_ReadPeriodBuf,"ax",%progbits
 790              		.align	1
 791              		.global	Dimming_ReadPeriodBuf
 792              		.code	16
 793              		.thumb_func
 794              		.type	Dimming_ReadPeriodBuf, %function
 795              	Dimming_ReadPeriodBuf:
 796              	.LFB20:
 781:.\Generated_Source\PSoC4/Dimming.c ****     return (Dimming_PERIOD_BUF_REG & Dimming_16BIT_MASK);
 797              		.loc 1 781 0
 798              		.cfi_startproc
 782:.\Generated_Source\PSoC4/Dimming.c **** }
 799              		.loc 1 782 0
 800 0000 014B     		ldr	r3, .L56
 783:.\Generated_Source\PSoC4/Dimming.c **** 
 801              		.loc 1 783 0
 802              		@ sp needed
 782:.\Generated_Source\PSoC4/Dimming.c **** }
 803              		.loc 1 782 0
ARM GAS  C:\Users\syhaines\AppData\Local\Temp\ccsJlByc.s 			page 40


 804 0002 1868     		ldr	r0, [r3]
 805 0004 80B2     		uxth	r0, r0
 783:.\Generated_Source\PSoC4/Dimming.c **** 
 806              		.loc 1 783 0
 807 0006 7047     		bx	lr
 808              	.L57:
 809              		.align	2
 810              	.L56:
 811 0008 58010540 		.word	1074069848
 812              		.cfi_endproc
 813              	.LFE20:
 814              		.size	Dimming_ReadPeriodBuf, .-Dimming_ReadPeriodBuf
 815              		.section	.text.Dimming_SetPeriodSwap,"ax",%progbits
 816              		.align	1
 817              		.global	Dimming_SetPeriodSwap
 818              		.code	16
 819              		.thumb_func
 820              		.type	Dimming_SetPeriodSwap, %function
 821              	Dimming_SetPeriodSwap:
 822              	.LFB21:
 807:.\Generated_Source\PSoC4/Dimming.c ****     uint8 enableInterrupts;
 823              		.loc 1 807 0
 824              		.cfi_startproc
 825              	.LVL54:
 826 0000 10B5     		push	{r4, lr}
 827              		.cfi_def_cfa_offset 8
 828              		.cfi_offset 4, -8
 829              		.cfi_offset 14, -4
 807:.\Generated_Source\PSoC4/Dimming.c ****     uint8 enableInterrupts;
 830              		.loc 1 807 0
 831 0002 041C     		mov	r4, r0
 810:.\Generated_Source\PSoC4/Dimming.c **** 
 832              		.loc 1 810 0
 833 0004 FFF7FEFF 		bl	CyEnterCriticalSection
 834              	.LVL55:
 812:.\Generated_Source\PSoC4/Dimming.c ****     Dimming_CONTROL_REG |= ((uint32)((swapEnable & Dimming_1BIT_MASK) <<
 835              		.loc 1 812 0
 836 0008 0221     		mov	r1, #2
 837 000a 064A     		ldr	r2, .L59
 817:.\Generated_Source\PSoC4/Dimming.c **** 
 838              		.loc 1 817 0
 839              		@ sp needed
 812:.\Generated_Source\PSoC4/Dimming.c ****     Dimming_CONTROL_REG |= ((uint32)((swapEnable & Dimming_1BIT_MASK) <<
 840              		.loc 1 812 0
 841 000c 1368     		ldr	r3, [r2]
 842 000e 8B43     		bic	r3, r1
 843 0010 1360     		str	r3, [r2]
 813:.\Generated_Source\PSoC4/Dimming.c ****                                                             Dimming_RELOAD_PERIOD_SHIFT));
 844              		.loc 1 813 0
 845 0012 0123     		mov	r3, #1
 846 0014 1168     		ldr	r1, [r2]
 847 0016 2340     		and	r3, r4
 848 0018 5B00     		lsl	r3, r3, #1
 849 001a 0B43     		orr	r3, r1
 850 001c 1360     		str	r3, [r2]
 816:.\Generated_Source\PSoC4/Dimming.c **** }
 851              		.loc 1 816 0
ARM GAS  C:\Users\syhaines\AppData\Local\Temp\ccsJlByc.s 			page 41


 852 001e FFF7FEFF 		bl	CyExitCriticalSection
 853              	.LVL56:
 854              	.LVL57:
 817:.\Generated_Source\PSoC4/Dimming.c **** 
 855              		.loc 1 817 0
 856 0022 10BD     		pop	{r4, pc}
 857              	.L60:
 858              		.align	2
 859              	.L59:
 860 0024 40010540 		.word	1074069824
 861              		.cfi_endproc
 862              	.LFE21:
 863              		.size	Dimming_SetPeriodSwap, .-Dimming_SetPeriodSwap
 864              		.section	.text.Dimming_WriteCompare,"ax",%progbits
 865              		.align	1
 866              		.global	Dimming_WriteCompare
 867              		.code	16
 868              		.thumb_func
 869              		.type	Dimming_WriteCompare, %function
 870              	Dimming_WriteCompare:
 871              	.LFB22:
 836:.\Generated_Source\PSoC4/Dimming.c ****     #if (Dimming_CY_TCPWM_4000)
 872              		.loc 1 836 0
 873              		.cfi_startproc
 874              	.LVL58:
 859:.\Generated_Source\PSoC4/Dimming.c **** }
 875              		.loc 1 859 0
 876 0000 014B     		ldr	r3, .L62
 877 0002 80B2     		uxth	r0, r0
 878              	.LVL59:
 879 0004 1860     		str	r0, [r3]
 860:.\Generated_Source\PSoC4/Dimming.c **** 
 880              		.loc 1 860 0
 881              		@ sp needed
 882 0006 7047     		bx	lr
 883              	.L63:
 884              		.align	2
 885              	.L62:
 886 0008 4C010540 		.word	1074069836
 887              		.cfi_endproc
 888              	.LFE22:
 889              		.size	Dimming_WriteCompare, .-Dimming_WriteCompare
 890              		.section	.text.Dimming_ReadCompare,"ax",%progbits
 891              		.align	1
 892              		.global	Dimming_ReadCompare
 893              		.code	16
 894              		.thumb_func
 895              		.type	Dimming_ReadCompare, %function
 896              	Dimming_ReadCompare:
 897              	.LFB23:
 879:.\Generated_Source\PSoC4/Dimming.c ****     #if (Dimming_CY_TCPWM_4000)
 898              		.loc 1 879 0
 899              		.cfi_startproc
 904:.\Generated_Source\PSoC4/Dimming.c ****     #endif /* (Dimming_CY_TCPWM_4000) */
 900              		.loc 1 904 0
 901 0000 014B     		ldr	r3, .L65
 906:.\Generated_Source\PSoC4/Dimming.c **** 
ARM GAS  C:\Users\syhaines\AppData\Local\Temp\ccsJlByc.s 			page 42


 902              		.loc 1 906 0
 903              		@ sp needed
 904:.\Generated_Source\PSoC4/Dimming.c ****     #endif /* (Dimming_CY_TCPWM_4000) */
 904              		.loc 1 904 0
 905 0002 1868     		ldr	r0, [r3]
 906 0004 80B2     		uxth	r0, r0
 906:.\Generated_Source\PSoC4/Dimming.c **** 
 907              		.loc 1 906 0
 908 0006 7047     		bx	lr
 909              	.L66:
 910              		.align	2
 911              	.L65:
 912 0008 4C010540 		.word	1074069836
 913              		.cfi_endproc
 914              	.LFE23:
 915              		.size	Dimming_ReadCompare, .-Dimming_ReadCompare
 916              		.section	.text.Dimming_WriteCompareBuf,"ax",%progbits
 917              		.align	1
 918              		.global	Dimming_WriteCompareBuf
 919              		.code	16
 920              		.thumb_func
 921              		.type	Dimming_WriteCompareBuf, %function
 922              	Dimming_WriteCompareBuf:
 923              	.LFB24:
 925:.\Generated_Source\PSoC4/Dimming.c ****     #if (Dimming_CY_TCPWM_4000)
 924              		.loc 1 925 0
 925              		.cfi_startproc
 926              	.LVL60:
 946:.\Generated_Source\PSoC4/Dimming.c **** }
 927              		.loc 1 946 0
 928 0000 014B     		ldr	r3, .L68
 929 0002 80B2     		uxth	r0, r0
 930              	.LVL61:
 931 0004 1860     		str	r0, [r3]
 947:.\Generated_Source\PSoC4/Dimming.c **** 
 932              		.loc 1 947 0
 933              		@ sp needed
 934 0006 7047     		bx	lr
 935              	.L69:
 936              		.align	2
 937              	.L68:
 938 0008 50010540 		.word	1074069840
 939              		.cfi_endproc
 940              	.LFE24:
 941              		.size	Dimming_WriteCompareBuf, .-Dimming_WriteCompareBuf
 942              		.section	.text.Dimming_ReadCompareBuf,"ax",%progbits
 943              		.align	1
 944              		.global	Dimming_ReadCompareBuf
 945              		.code	16
 946              		.thumb_func
 947              		.type	Dimming_ReadCompareBuf, %function
 948              	Dimming_ReadCompareBuf:
 949              	.LFB25:
 966:.\Generated_Source\PSoC4/Dimming.c ****     #if (Dimming_CY_TCPWM_4000)
 950              		.loc 1 966 0
 951              		.cfi_startproc
 991:.\Generated_Source\PSoC4/Dimming.c ****     #endif /* (Dimming_CY_TCPWM_4000) */
ARM GAS  C:\Users\syhaines\AppData\Local\Temp\ccsJlByc.s 			page 43


 952              		.loc 1 991 0
 953 0000 014B     		ldr	r3, .L71
 993:.\Generated_Source\PSoC4/Dimming.c **** 
 954              		.loc 1 993 0
 955              		@ sp needed
 991:.\Generated_Source\PSoC4/Dimming.c ****     #endif /* (Dimming_CY_TCPWM_4000) */
 956              		.loc 1 991 0
 957 0002 1868     		ldr	r0, [r3]
 958 0004 80B2     		uxth	r0, r0
 993:.\Generated_Source\PSoC4/Dimming.c **** 
 959              		.loc 1 993 0
 960 0006 7047     		bx	lr
 961              	.L72:
 962              		.align	2
 963              	.L71:
 964 0008 50010540 		.word	1074069840
 965              		.cfi_endproc
 966              	.LFE25:
 967              		.size	Dimming_ReadCompareBuf, .-Dimming_ReadCompareBuf
 968              		.section	.text.Dimming_ReadCapture,"ax",%progbits
 969              		.align	1
 970              		.global	Dimming_ReadCapture
 971              		.code	16
 972              		.thumb_func
 973              		.type	Dimming_ReadCapture, %function
 974              	Dimming_ReadCapture:
 975              	.LFB26:
1012:.\Generated_Source\PSoC4/Dimming.c ****     return (Dimming_COMP_CAP_REG & Dimming_16BIT_MASK);
 976              		.loc 1 1012 0
 977              		.cfi_startproc
1013:.\Generated_Source\PSoC4/Dimming.c **** }
 978              		.loc 1 1013 0
 979 0000 014B     		ldr	r3, .L74
1014:.\Generated_Source\PSoC4/Dimming.c **** 
 980              		.loc 1 1014 0
 981              		@ sp needed
1013:.\Generated_Source\PSoC4/Dimming.c **** }
 982              		.loc 1 1013 0
 983 0002 1868     		ldr	r0, [r3]
 984 0004 80B2     		uxth	r0, r0
1014:.\Generated_Source\PSoC4/Dimming.c **** 
 985              		.loc 1 1014 0
 986 0006 7047     		bx	lr
 987              	.L75:
 988              		.align	2
 989              	.L74:
 990 0008 4C010540 		.word	1074069836
 991              		.cfi_endproc
 992              	.LFE26:
 993              		.size	Dimming_ReadCapture, .-Dimming_ReadCapture
 994              		.section	.text.Dimming_ReadCaptureBuf,"ax",%progbits
 995              		.align	1
 996              		.global	Dimming_ReadCaptureBuf
 997              		.code	16
 998              		.thumb_func
 999              		.type	Dimming_ReadCaptureBuf, %function
 1000              	Dimming_ReadCaptureBuf:
ARM GAS  C:\Users\syhaines\AppData\Local\Temp\ccsJlByc.s 			page 44


 1001              	.LFB27:
1033:.\Generated_Source\PSoC4/Dimming.c ****     return (Dimming_COMP_CAP_BUF_REG & Dimming_16BIT_MASK);
 1002              		.loc 1 1033 0
 1003              		.cfi_startproc
1034:.\Generated_Source\PSoC4/Dimming.c **** }
 1004              		.loc 1 1034 0
 1005 0000 014B     		ldr	r3, .L77
1035:.\Generated_Source\PSoC4/Dimming.c **** 
 1006              		.loc 1 1035 0
 1007              		@ sp needed
1034:.\Generated_Source\PSoC4/Dimming.c **** }
 1008              		.loc 1 1034 0
 1009 0002 1868     		ldr	r0, [r3]
 1010 0004 80B2     		uxth	r0, r0
1035:.\Generated_Source\PSoC4/Dimming.c **** 
 1011              		.loc 1 1035 0
 1012 0006 7047     		bx	lr
 1013              	.L78:
 1014              		.align	2
 1015              	.L77:
 1016 0008 50010540 		.word	1074069840
 1017              		.cfi_endproc
 1018              	.LFE27:
 1019              		.size	Dimming_ReadCaptureBuf, .-Dimming_ReadCaptureBuf
 1020              		.section	.text.Dimming_SetCaptureMode,"ax",%progbits
 1021              		.align	1
 1022              		.global	Dimming_SetCaptureMode
 1023              		.code	16
 1024              		.thumb_func
 1025              		.type	Dimming_SetCaptureMode, %function
 1026              	Dimming_SetCaptureMode:
 1027              	.LFB28:
1060:.\Generated_Source\PSoC4/Dimming.c ****     uint8 enableInterrupts;
 1028              		.loc 1 1060 0
 1029              		.cfi_startproc
 1030              	.LVL62:
 1031 0000 10B5     		push	{r4, lr}
 1032              		.cfi_def_cfa_offset 8
 1033              		.cfi_offset 4, -8
 1034              		.cfi_offset 14, -4
1060:.\Generated_Source\PSoC4/Dimming.c ****     uint8 enableInterrupts;
 1035              		.loc 1 1060 0
 1036 0002 041C     		mov	r4, r0
1063:.\Generated_Source\PSoC4/Dimming.c **** 
 1037              		.loc 1 1063 0
 1038 0004 FFF7FEFF 		bl	CyEnterCriticalSection
 1039              	.LVL63:
1065:.\Generated_Source\PSoC4/Dimming.c ****     Dimming_TRIG_CONTROL1_REG |= triggerMode;
 1040              		.loc 1 1065 0
 1041 0008 0321     		mov	r1, #3
 1042 000a 054B     		ldr	r3, .L80
1069:.\Generated_Source\PSoC4/Dimming.c **** 
 1043              		.loc 1 1069 0
 1044              		@ sp needed
1065:.\Generated_Source\PSoC4/Dimming.c ****     Dimming_TRIG_CONTROL1_REG |= triggerMode;
 1045              		.loc 1 1065 0
 1046 000c 1A68     		ldr	r2, [r3]
ARM GAS  C:\Users\syhaines\AppData\Local\Temp\ccsJlByc.s 			page 45


 1047 000e 8A43     		bic	r2, r1
 1048 0010 1A60     		str	r2, [r3]
1066:.\Generated_Source\PSoC4/Dimming.c **** 
 1049              		.loc 1 1066 0
 1050 0012 1A68     		ldr	r2, [r3]
 1051 0014 2243     		orr	r2, r4
 1052 0016 1A60     		str	r2, [r3]
1068:.\Generated_Source\PSoC4/Dimming.c **** }
 1053              		.loc 1 1068 0
 1054 0018 FFF7FEFF 		bl	CyExitCriticalSection
 1055              	.LVL64:
 1056              	.LVL65:
1069:.\Generated_Source\PSoC4/Dimming.c **** 
 1057              		.loc 1 1069 0
 1058 001c 10BD     		pop	{r4, pc}
 1059              	.L81:
 1060 001e C046     		.align	2
 1061              	.L80:
 1062 0020 64010540 		.word	1074069860
 1063              		.cfi_endproc
 1064              	.LFE28:
 1065              		.size	Dimming_SetCaptureMode, .-Dimming_SetCaptureMode
 1066              		.section	.text.Dimming_SetReloadMode,"ax",%progbits
 1067              		.align	1
 1068              		.global	Dimming_SetReloadMode
 1069              		.code	16
 1070              		.thumb_func
 1071              		.type	Dimming_SetReloadMode, %function
 1072              	Dimming_SetReloadMode:
 1073              	.LFB29:
1093:.\Generated_Source\PSoC4/Dimming.c ****     uint8 enableInterrupts;
 1074              		.loc 1 1093 0
 1075              		.cfi_startproc
 1076              	.LVL66:
 1077 0000 10B5     		push	{r4, lr}
 1078              		.cfi_def_cfa_offset 8
 1079              		.cfi_offset 4, -8
 1080              		.cfi_offset 14, -4
1093:.\Generated_Source\PSoC4/Dimming.c ****     uint8 enableInterrupts;
 1081              		.loc 1 1093 0
 1082 0002 041C     		mov	r4, r0
1096:.\Generated_Source\PSoC4/Dimming.c **** 
 1083              		.loc 1 1096 0
 1084 0004 FFF7FEFF 		bl	CyEnterCriticalSection
 1085              	.LVL67:
1098:.\Generated_Source\PSoC4/Dimming.c ****     Dimming_TRIG_CONTROL1_REG |= ((uint32)(triggerMode << Dimming_RELOAD_SHIFT));
 1086              		.loc 1 1098 0
 1087 0008 3021     		mov	r1, #48
 1088 000a 054B     		ldr	r3, .L83
1102:.\Generated_Source\PSoC4/Dimming.c **** 
 1089              		.loc 1 1102 0
 1090              		@ sp needed
1098:.\Generated_Source\PSoC4/Dimming.c ****     Dimming_TRIG_CONTROL1_REG |= ((uint32)(triggerMode << Dimming_RELOAD_SHIFT));
 1091              		.loc 1 1098 0
 1092 000c 1A68     		ldr	r2, [r3]
 1093 000e 8A43     		bic	r2, r1
 1094 0010 1A60     		str	r2, [r3]
ARM GAS  C:\Users\syhaines\AppData\Local\Temp\ccsJlByc.s 			page 46


1099:.\Generated_Source\PSoC4/Dimming.c **** 
 1095              		.loc 1 1099 0
 1096 0012 1968     		ldr	r1, [r3]
 1097 0014 2201     		lsl	r2, r4, #4
 1098 0016 0A43     		orr	r2, r1
 1099 0018 1A60     		str	r2, [r3]
1101:.\Generated_Source\PSoC4/Dimming.c **** }
 1100              		.loc 1 1101 0
 1101 001a FFF7FEFF 		bl	CyExitCriticalSection
 1102              	.LVL68:
 1103              	.LVL69:
1102:.\Generated_Source\PSoC4/Dimming.c **** 
 1104              		.loc 1 1102 0
 1105 001e 10BD     		pop	{r4, pc}
 1106              	.L84:
 1107              		.align	2
 1108              	.L83:
 1109 0020 64010540 		.word	1074069860
 1110              		.cfi_endproc
 1111              	.LFE29:
 1112              		.size	Dimming_SetReloadMode, .-Dimming_SetReloadMode
 1113              		.section	.text.Dimming_SetStartMode,"ax",%progbits
 1114              		.align	1
 1115              		.global	Dimming_SetStartMode
 1116              		.code	16
 1117              		.thumb_func
 1118              		.type	Dimming_SetStartMode, %function
 1119              	Dimming_SetStartMode:
 1120              	.LFB30:
1126:.\Generated_Source\PSoC4/Dimming.c ****     uint8 enableInterrupts;
 1121              		.loc 1 1126 0
 1122              		.cfi_startproc
 1123              	.LVL70:
 1124 0000 10B5     		push	{r4, lr}
 1125              		.cfi_def_cfa_offset 8
 1126              		.cfi_offset 4, -8
 1127              		.cfi_offset 14, -4
1126:.\Generated_Source\PSoC4/Dimming.c ****     uint8 enableInterrupts;
 1128              		.loc 1 1126 0
 1129 0002 041C     		mov	r4, r0
1129:.\Generated_Source\PSoC4/Dimming.c **** 
 1130              		.loc 1 1129 0
 1131 0004 FFF7FEFF 		bl	CyEnterCriticalSection
 1132              	.LVL71:
1131:.\Generated_Source\PSoC4/Dimming.c ****     Dimming_TRIG_CONTROL1_REG |= ((uint32)(triggerMode << Dimming_START_SHIFT));
 1133              		.loc 1 1131 0
 1134 0008 054B     		ldr	r3, .L86
 1135 000a 064A     		ldr	r2, .L86+4
 1136 000c 1968     		ldr	r1, [r3]
1135:.\Generated_Source\PSoC4/Dimming.c **** 
 1137              		.loc 1 1135 0
 1138              		@ sp needed
1131:.\Generated_Source\PSoC4/Dimming.c ****     Dimming_TRIG_CONTROL1_REG |= ((uint32)(triggerMode << Dimming_START_SHIFT));
 1139              		.loc 1 1131 0
 1140 000e 0A40     		and	r2, r1
 1141 0010 1A60     		str	r2, [r3]
1132:.\Generated_Source\PSoC4/Dimming.c **** 
ARM GAS  C:\Users\syhaines\AppData\Local\Temp\ccsJlByc.s 			page 47


 1142              		.loc 1 1132 0
 1143 0012 1968     		ldr	r1, [r3]
 1144 0014 2202     		lsl	r2, r4, #8
 1145 0016 0A43     		orr	r2, r1
 1146 0018 1A60     		str	r2, [r3]
1134:.\Generated_Source\PSoC4/Dimming.c **** }
 1147              		.loc 1 1134 0
 1148 001a FFF7FEFF 		bl	CyExitCriticalSection
 1149              	.LVL72:
 1150              	.LVL73:
1135:.\Generated_Source\PSoC4/Dimming.c **** 
 1151              		.loc 1 1135 0
 1152 001e 10BD     		pop	{r4, pc}
 1153              	.L87:
 1154              		.align	2
 1155              	.L86:
 1156 0020 64010540 		.word	1074069860
 1157 0024 FFFCFFFF 		.word	-769
 1158              		.cfi_endproc
 1159              	.LFE30:
 1160              		.size	Dimming_SetStartMode, .-Dimming_SetStartMode
 1161              		.section	.text.Dimming_SetStopMode,"ax",%progbits
 1162              		.align	1
 1163              		.global	Dimming_SetStopMode
 1164              		.code	16
 1165              		.thumb_func
 1166              		.type	Dimming_SetStopMode, %function
 1167              	Dimming_SetStopMode:
 1168              	.LFB31:
1158:.\Generated_Source\PSoC4/Dimming.c ****     uint8 enableInterrupts;
 1169              		.loc 1 1158 0
 1170              		.cfi_startproc
 1171              	.LVL74:
 1172 0000 10B5     		push	{r4, lr}
 1173              		.cfi_def_cfa_offset 8
 1174              		.cfi_offset 4, -8
 1175              		.cfi_offset 14, -4
1158:.\Generated_Source\PSoC4/Dimming.c ****     uint8 enableInterrupts;
 1176              		.loc 1 1158 0
 1177 0002 041C     		mov	r4, r0
1161:.\Generated_Source\PSoC4/Dimming.c **** 
 1178              		.loc 1 1161 0
 1179 0004 FFF7FEFF 		bl	CyEnterCriticalSection
 1180              	.LVL75:
1163:.\Generated_Source\PSoC4/Dimming.c ****     Dimming_TRIG_CONTROL1_REG |= ((uint32)(triggerMode << Dimming_STOP_SHIFT));
 1181              		.loc 1 1163 0
 1182 0008 C021     		mov	r1, #192
 1183 000a 054B     		ldr	r3, .L89
1167:.\Generated_Source\PSoC4/Dimming.c **** 
 1184              		.loc 1 1167 0
 1185              		@ sp needed
1163:.\Generated_Source\PSoC4/Dimming.c ****     Dimming_TRIG_CONTROL1_REG |= ((uint32)(triggerMode << Dimming_STOP_SHIFT));
 1186              		.loc 1 1163 0
 1187 000c 1A68     		ldr	r2, [r3]
 1188 000e 8A43     		bic	r2, r1
 1189 0010 1A60     		str	r2, [r3]
1164:.\Generated_Source\PSoC4/Dimming.c **** 
ARM GAS  C:\Users\syhaines\AppData\Local\Temp\ccsJlByc.s 			page 48


 1190              		.loc 1 1164 0
 1191 0012 1968     		ldr	r1, [r3]
 1192 0014 A201     		lsl	r2, r4, #6
 1193 0016 0A43     		orr	r2, r1
 1194 0018 1A60     		str	r2, [r3]
1166:.\Generated_Source\PSoC4/Dimming.c **** }
 1195              		.loc 1 1166 0
 1196 001a FFF7FEFF 		bl	CyExitCriticalSection
 1197              	.LVL76:
 1198              	.LVL77:
1167:.\Generated_Source\PSoC4/Dimming.c **** 
 1199              		.loc 1 1167 0
 1200 001e 10BD     		pop	{r4, pc}
 1201              	.L90:
 1202              		.align	2
 1203              	.L89:
 1204 0020 64010540 		.word	1074069860
 1205              		.cfi_endproc
 1206              	.LFE31:
 1207              		.size	Dimming_SetStopMode, .-Dimming_SetStopMode
 1208              		.section	.text.Dimming_SetCountMode,"ax",%progbits
 1209              		.align	1
 1210              		.global	Dimming_SetCountMode
 1211              		.code	16
 1212              		.thumb_func
 1213              		.type	Dimming_SetCountMode, %function
 1214              	Dimming_SetCountMode:
 1215              	.LFB32:
1191:.\Generated_Source\PSoC4/Dimming.c ****     uint8 enableInterrupts;
 1216              		.loc 1 1191 0
 1217              		.cfi_startproc
 1218              	.LVL78:
 1219 0000 10B5     		push	{r4, lr}
 1220              		.cfi_def_cfa_offset 8
 1221              		.cfi_offset 4, -8
 1222              		.cfi_offset 14, -4
1191:.\Generated_Source\PSoC4/Dimming.c ****     uint8 enableInterrupts;
 1223              		.loc 1 1191 0
 1224 0002 041C     		mov	r4, r0
1194:.\Generated_Source\PSoC4/Dimming.c **** 
 1225              		.loc 1 1194 0
 1226 0004 FFF7FEFF 		bl	CyEnterCriticalSection
 1227              	.LVL79:
1196:.\Generated_Source\PSoC4/Dimming.c ****     Dimming_TRIG_CONTROL1_REG |= ((uint32)(triggerMode << Dimming_COUNT_SHIFT));
 1228              		.loc 1 1196 0
 1229 0008 0C21     		mov	r1, #12
 1230 000a 054B     		ldr	r3, .L92
1200:.\Generated_Source\PSoC4/Dimming.c **** 
 1231              		.loc 1 1200 0
 1232              		@ sp needed
1196:.\Generated_Source\PSoC4/Dimming.c ****     Dimming_TRIG_CONTROL1_REG |= ((uint32)(triggerMode << Dimming_COUNT_SHIFT));
 1233              		.loc 1 1196 0
 1234 000c 1A68     		ldr	r2, [r3]
 1235 000e 8A43     		bic	r2, r1
 1236 0010 1A60     		str	r2, [r3]
1197:.\Generated_Source\PSoC4/Dimming.c **** 
 1237              		.loc 1 1197 0
ARM GAS  C:\Users\syhaines\AppData\Local\Temp\ccsJlByc.s 			page 49


 1238 0012 1968     		ldr	r1, [r3]
 1239 0014 A200     		lsl	r2, r4, #2
 1240 0016 0A43     		orr	r2, r1
 1241 0018 1A60     		str	r2, [r3]
1199:.\Generated_Source\PSoC4/Dimming.c **** }
 1242              		.loc 1 1199 0
 1243 001a FFF7FEFF 		bl	CyExitCriticalSection
 1244              	.LVL80:
 1245              	.LVL81:
1200:.\Generated_Source\PSoC4/Dimming.c **** 
 1246              		.loc 1 1200 0
 1247 001e 10BD     		pop	{r4, pc}
 1248              	.L93:
 1249              		.align	2
 1250              	.L92:
 1251 0020 64010540 		.word	1074069860
 1252              		.cfi_endproc
 1253              	.LFE32:
 1254              		.size	Dimming_SetCountMode, .-Dimming_SetCountMode
 1255              		.section	.text.Dimming_TriggerCommand,"ax",%progbits
 1256              		.align	1
 1257              		.global	Dimming_TriggerCommand
 1258              		.code	16
 1259              		.thumb_func
 1260              		.type	Dimming_TriggerCommand, %function
 1261              	Dimming_TriggerCommand:
 1262              	.LFB33:
1231:.\Generated_Source\PSoC4/Dimming.c ****     uint8 enableInterrupts;
 1263              		.loc 1 1231 0
 1264              		.cfi_startproc
 1265              	.LVL82:
 1266 0000 38B5     		push	{r3, r4, r5, lr}
 1267              		.cfi_def_cfa_offset 16
 1268              		.cfi_offset 3, -16
 1269              		.cfi_offset 4, -12
 1270              		.cfi_offset 5, -8
 1271              		.cfi_offset 14, -4
1231:.\Generated_Source\PSoC4/Dimming.c ****     uint8 enableInterrupts;
 1272              		.loc 1 1231 0
 1273 0002 0D1C     		mov	r5, r1
 1274 0004 041C     		mov	r4, r0
1236:.\Generated_Source\PSoC4/Dimming.c **** 
 1275              		.loc 1 1236 0
 1276 0006 AC40     		lsl	r4, r4, r5
1234:.\Generated_Source\PSoC4/Dimming.c **** 
 1277              		.loc 1 1234 0
 1278 0008 FFF7FEFF 		bl	CyEnterCriticalSection
 1279              	.LVL83:
1236:.\Generated_Source\PSoC4/Dimming.c **** 
 1280              		.loc 1 1236 0
 1281 000c 024B     		ldr	r3, .L95
1239:.\Generated_Source\PSoC4/Dimming.c **** 
 1282              		.loc 1 1239 0
 1283              		@ sp needed
1236:.\Generated_Source\PSoC4/Dimming.c **** 
 1284              		.loc 1 1236 0
 1285 000e 1C60     		str	r4, [r3]
ARM GAS  C:\Users\syhaines\AppData\Local\Temp\ccsJlByc.s 			page 50


1238:.\Generated_Source\PSoC4/Dimming.c **** }
 1286              		.loc 1 1238 0
 1287 0010 FFF7FEFF 		bl	CyExitCriticalSection
 1288              	.LVL84:
 1289              	.LVL85:
1239:.\Generated_Source\PSoC4/Dimming.c **** 
 1290              		.loc 1 1239 0
 1291 0014 38BD     		pop	{r3, r4, r5, pc}
 1292              	.L96:
 1293 0016 C046     		.align	2
 1294              	.L95:
 1295 0018 08000540 		.word	1074069512
 1296              		.cfi_endproc
 1297              	.LFE33:
 1298              		.size	Dimming_TriggerCommand, .-Dimming_TriggerCommand
 1299              		.section	.text.Dimming_Enable,"ax",%progbits
 1300              		.align	1
 1301              		.global	Dimming_Enable
 1302              		.code	16
 1303              		.thumb_func
 1304              		.type	Dimming_Enable, %function
 1305              	Dimming_Enable:
 1306              	.LFB1:
 178:.\Generated_Source\PSoC4/Dimming.c ****     uint8 enableInterrupts;
 1307              		.loc 1 178 0
 1308              		.cfi_startproc
 1309 0000 10B5     		push	{r4, lr}
 1310              		.cfi_def_cfa_offset 8
 1311              		.cfi_offset 4, -8
 1312              		.cfi_offset 14, -4
 182:.\Generated_Source\PSoC4/Dimming.c ****     CyExitCriticalSection(enableInterrupts);
 1313              		.loc 1 182 0
 1314 0002 0224     		mov	r4, #2
 181:.\Generated_Source\PSoC4/Dimming.c ****     Dimming_BLOCK_CONTROL_REG |= Dimming_MASK;
 1315              		.loc 1 181 0
 1316 0004 FFF7FEFF 		bl	CyEnterCriticalSection
 1317              	.LVL86:
 182:.\Generated_Source\PSoC4/Dimming.c ****     CyExitCriticalSection(enableInterrupts);
 1318              		.loc 1 182 0
 1319 0008 054A     		ldr	r2, .L98
 197:.\Generated_Source\PSoC4/Dimming.c **** 
 1320              		.loc 1 197 0
 1321              		@ sp needed
 182:.\Generated_Source\PSoC4/Dimming.c ****     CyExitCriticalSection(enableInterrupts);
 1322              		.loc 1 182 0
 1323 000a 1368     		ldr	r3, [r2]
 1324 000c 2343     		orr	r3, r4
 1325 000e 1360     		str	r3, [r2]
 183:.\Generated_Source\PSoC4/Dimming.c **** 
 1326              		.loc 1 183 0
 1327 0010 FFF7FEFF 		bl	CyExitCriticalSection
 1328              	.LVL87:
 188:.\Generated_Source\PSoC4/Dimming.c ****         #endif /* (0u == Dimming_PWM_START_SIGNAL_PRESENT) */
 1329              		.loc 1 188 0
 1330 0014 201C     		mov	r0, r4
 1331 0016 1821     		mov	r1, #24
 1332 0018 FFF7FEFF 		bl	Dimming_TriggerCommand
ARM GAS  C:\Users\syhaines\AppData\Local\Temp\ccsJlByc.s 			page 51


 1333              	.LVL88:
 197:.\Generated_Source\PSoC4/Dimming.c **** 
 1334              		.loc 1 197 0
 1335 001c 10BD     		pop	{r4, pc}
 1336              	.L99:
 1337 001e C046     		.align	2
 1338              	.L98:
 1339 0020 00000540 		.word	1074069504
 1340              		.cfi_endproc
 1341              	.LFE1:
 1342              		.size	Dimming_Enable, .-Dimming_Enable
 1343              		.section	.text.Dimming_Start,"ax",%progbits
 1344              		.align	1
 1345              		.global	Dimming_Start
 1346              		.code	16
 1347              		.thumb_func
 1348              		.type	Dimming_Start, %function
 1349              	Dimming_Start:
 1350              	.LFB2:
 225:.\Generated_Source\PSoC4/Dimming.c ****     if (0u == Dimming_initVar)
 1351              		.loc 1 225 0
 1352              		.cfi_startproc
 1353 0000 10B5     		push	{r4, lr}
 1354              		.cfi_def_cfa_offset 8
 1355              		.cfi_offset 4, -8
 1356              		.cfi_offset 14, -4
 226:.\Generated_Source\PSoC4/Dimming.c ****     {
 1357              		.loc 1 226 0
 1358 0002 054C     		ldr	r4, .L103
 1359 0004 2378     		ldrb	r3, [r4]
 1360 0006 002B     		cmp	r3, #0
 1361 0008 03D1     		bne	.L101
 228:.\Generated_Source\PSoC4/Dimming.c ****         Dimming_initVar = 1u;
 1362              		.loc 1 228 0
 1363 000a FFF7FEFF 		bl	Dimming_Init
 1364              	.LVL89:
 229:.\Generated_Source\PSoC4/Dimming.c ****     }
 1365              		.loc 1 229 0
 1366 000e 0123     		mov	r3, #1
 1367 0010 2370     		strb	r3, [r4]
 1368              	.L101:
 232:.\Generated_Source\PSoC4/Dimming.c **** }
 1369              		.loc 1 232 0
 1370 0012 FFF7FEFF 		bl	Dimming_Enable
 1371              	.LVL90:
 233:.\Generated_Source\PSoC4/Dimming.c **** 
 1372              		.loc 1 233 0
 1373              		@ sp needed
 1374 0016 10BD     		pop	{r4, pc}
 1375              	.L104:
 1376              		.align	2
 1377              	.L103:
 1378 0018 00000000 		.word	.LANCHOR0
 1379              		.cfi_endproc
 1380              	.LFE2:
 1381              		.size	Dimming_Start, .-Dimming_Start
 1382              		.section	.text.Dimming_ReadStatus,"ax",%progbits
ARM GAS  C:\Users\syhaines\AppData\Local\Temp\ccsJlByc.s 			page 52


 1383              		.align	1
 1384              		.global	Dimming_ReadStatus
 1385              		.code	16
 1386              		.thumb_func
 1387              		.type	Dimming_ReadStatus, %function
 1388              	Dimming_ReadStatus:
 1389              	.LFB34:
1260:.\Generated_Source\PSoC4/Dimming.c ****     return ((Dimming_STATUS_REG >> Dimming_RUNNING_STATUS_SHIFT) |
 1390              		.loc 1 1260 0
 1391              		.cfi_startproc
1261:.\Generated_Source\PSoC4/Dimming.c ****             (Dimming_STATUS_REG & Dimming_STATUS_DOWN));
 1392              		.loc 1 1261 0
 1393 0000 034A     		ldr	r2, .L106
1263:.\Generated_Source\PSoC4/Dimming.c **** 
 1394              		.loc 1 1263 0
 1395              		@ sp needed
1261:.\Generated_Source\PSoC4/Dimming.c ****             (Dimming_STATUS_REG & Dimming_STATUS_DOWN));
 1396              		.loc 1 1261 0
 1397 0002 1368     		ldr	r3, [r2]
1262:.\Generated_Source\PSoC4/Dimming.c **** }
 1398              		.loc 1 1262 0
 1399 0004 1068     		ldr	r0, [r2]
 1400 0006 0122     		mov	r2, #1
1261:.\Generated_Source\PSoC4/Dimming.c ****             (Dimming_STATUS_REG & Dimming_STATUS_DOWN));
 1401              		.loc 1 1261 0
 1402 0008 9B0F     		lsr	r3, r3, #30
1262:.\Generated_Source\PSoC4/Dimming.c **** }
 1403              		.loc 1 1262 0
 1404 000a 1040     		and	r0, r2
1261:.\Generated_Source\PSoC4/Dimming.c ****             (Dimming_STATUS_REG & Dimming_STATUS_DOWN));
 1405              		.loc 1 1261 0
 1406 000c 1843     		orr	r0, r3
1263:.\Generated_Source\PSoC4/Dimming.c **** 
 1407              		.loc 1 1263 0
 1408 000e 7047     		bx	lr
 1409              	.L107:
 1410              		.align	2
 1411              	.L106:
 1412 0010 44010540 		.word	1074069828
 1413              		.cfi_endproc
 1414              	.LFE34:
 1415              		.size	Dimming_ReadStatus, .-Dimming_ReadStatus
 1416              		.section	.text.Dimming_SetInterruptMode,"ax",%progbits
 1417              		.align	1
 1418              		.global	Dimming_SetInterruptMode
 1419              		.code	16
 1420              		.thumb_func
 1421              		.type	Dimming_SetInterruptMode, %function
 1422              	Dimming_SetInterruptMode:
 1423              	.LFB35:
1285:.\Generated_Source\PSoC4/Dimming.c ****     Dimming_INTERRUPT_MASK_REG =  interruptMask;
 1424              		.loc 1 1285 0
 1425              		.cfi_startproc
 1426              	.LVL91:
 1427              		.loc 1 1286 0
 1428 0000 014B     		ldr	r3, .L109
1287:.\Generated_Source\PSoC4/Dimming.c **** }
ARM GAS  C:\Users\syhaines\AppData\Local\Temp\ccsJlByc.s 			page 53


 1429              		.loc 1 1287 0
 1430              		@ sp needed
1286:.\Generated_Source\PSoC4/Dimming.c **** }
 1431              		.loc 1 1286 0
 1432 0002 1860     		str	r0, [r3]
 1433              		.loc 1 1287 0
 1434 0004 7047     		bx	lr
 1435              	.L110:
 1436 0006 C046     		.align	2
 1437              	.L109:
 1438 0008 78010540 		.word	1074069880
 1439              		.cfi_endproc
 1440              	.LFE35:
 1441              		.size	Dimming_SetInterruptMode, .-Dimming_SetInterruptMode
 1442              		.section	.text.Dimming_GetInterruptSourceMasked,"ax",%progbits
 1443              		.align	1
 1444              		.global	Dimming_GetInterruptSourceMasked
 1445              		.code	16
 1446              		.thumb_func
 1447              		.type	Dimming_GetInterruptSourceMasked, %function
 1448              	Dimming_GetInterruptSourceMasked:
 1449              	.LFB36:
1288:.\Generated_Source\PSoC4/Dimming.c **** 
1289:.\Generated_Source\PSoC4/Dimming.c **** 
1290:.\Generated_Source\PSoC4/Dimming.c **** /*******************************************************************************
1291:.\Generated_Source\PSoC4/Dimming.c **** * Function Name: Dimming_GetInterruptSourceMasked
1292:.\Generated_Source\PSoC4/Dimming.c **** ********************************************************************************
1293:.\Generated_Source\PSoC4/Dimming.c **** *
1294:.\Generated_Source\PSoC4/Dimming.c **** * Summary:
1295:.\Generated_Source\PSoC4/Dimming.c **** *  Gets the interrupt requests masked by the interrupt mask.
1296:.\Generated_Source\PSoC4/Dimming.c **** *
1297:.\Generated_Source\PSoC4/Dimming.c **** * Parameters:
1298:.\Generated_Source\PSoC4/Dimming.c **** *   None
1299:.\Generated_Source\PSoC4/Dimming.c **** *
1300:.\Generated_Source\PSoC4/Dimming.c **** * Return:
1301:.\Generated_Source\PSoC4/Dimming.c **** *  Masked interrupt source
1302:.\Generated_Source\PSoC4/Dimming.c **** *   Values:
1303:.\Generated_Source\PSoC4/Dimming.c **** *     - Dimming_INTR_MASK_TC       - Terminal count mask
1304:.\Generated_Source\PSoC4/Dimming.c **** *     - Dimming_INTR_MASK_CC_MATCH - Compare count / capture mask
1305:.\Generated_Source\PSoC4/Dimming.c **** *
1306:.\Generated_Source\PSoC4/Dimming.c **** *******************************************************************************/
1307:.\Generated_Source\PSoC4/Dimming.c **** uint32 Dimming_GetInterruptSourceMasked(void)
1308:.\Generated_Source\PSoC4/Dimming.c **** {
 1450              		.loc 1 1308 0
 1451              		.cfi_startproc
1309:.\Generated_Source\PSoC4/Dimming.c ****     return (Dimming_INTERRUPT_MASKED_REG);
 1452              		.loc 1 1309 0
 1453 0000 014B     		ldr	r3, .L112
1310:.\Generated_Source\PSoC4/Dimming.c **** }
 1454              		.loc 1 1310 0
 1455              		@ sp needed
1309:.\Generated_Source\PSoC4/Dimming.c ****     return (Dimming_INTERRUPT_MASKED_REG);
 1456              		.loc 1 1309 0
 1457 0002 1868     		ldr	r0, [r3]
 1458              		.loc 1 1310 0
 1459 0004 7047     		bx	lr
 1460              	.L113:
ARM GAS  C:\Users\syhaines\AppData\Local\Temp\ccsJlByc.s 			page 54


 1461 0006 C046     		.align	2
 1462              	.L112:
 1463 0008 7C010540 		.word	1074069884
 1464              		.cfi_endproc
 1465              	.LFE36:
 1466              		.size	Dimming_GetInterruptSourceMasked, .-Dimming_GetInterruptSourceMasked
 1467              		.section	.text.Dimming_GetInterruptSource,"ax",%progbits
 1468              		.align	1
 1469              		.global	Dimming_GetInterruptSource
 1470              		.code	16
 1471              		.thumb_func
 1472              		.type	Dimming_GetInterruptSource, %function
 1473              	Dimming_GetInterruptSource:
 1474              	.LFB37:
1311:.\Generated_Source\PSoC4/Dimming.c **** 
1312:.\Generated_Source\PSoC4/Dimming.c **** 
1313:.\Generated_Source\PSoC4/Dimming.c **** /*******************************************************************************
1314:.\Generated_Source\PSoC4/Dimming.c **** * Function Name: Dimming_GetInterruptSource
1315:.\Generated_Source\PSoC4/Dimming.c **** ********************************************************************************
1316:.\Generated_Source\PSoC4/Dimming.c **** *
1317:.\Generated_Source\PSoC4/Dimming.c **** * Summary:
1318:.\Generated_Source\PSoC4/Dimming.c **** *  Gets the interrupt requests (without masking).
1319:.\Generated_Source\PSoC4/Dimming.c **** *
1320:.\Generated_Source\PSoC4/Dimming.c **** * Parameters:
1321:.\Generated_Source\PSoC4/Dimming.c **** *  None
1322:.\Generated_Source\PSoC4/Dimming.c **** *
1323:.\Generated_Source\PSoC4/Dimming.c **** * Return:
1324:.\Generated_Source\PSoC4/Dimming.c **** *  Interrupt request value
1325:.\Generated_Source\PSoC4/Dimming.c **** *   Values:
1326:.\Generated_Source\PSoC4/Dimming.c **** *     - Dimming_INTR_MASK_TC       - Terminal count mask
1327:.\Generated_Source\PSoC4/Dimming.c **** *     - Dimming_INTR_MASK_CC_MATCH - Compare count / capture mask
1328:.\Generated_Source\PSoC4/Dimming.c **** *
1329:.\Generated_Source\PSoC4/Dimming.c **** *******************************************************************************/
1330:.\Generated_Source\PSoC4/Dimming.c **** uint32 Dimming_GetInterruptSource(void)
1331:.\Generated_Source\PSoC4/Dimming.c **** {
 1475              		.loc 1 1331 0
 1476              		.cfi_startproc
1332:.\Generated_Source\PSoC4/Dimming.c ****     return (Dimming_INTERRUPT_REQ_REG);
 1477              		.loc 1 1332 0
 1478 0000 014B     		ldr	r3, .L115
1333:.\Generated_Source\PSoC4/Dimming.c **** }
 1479              		.loc 1 1333 0
 1480              		@ sp needed
1332:.\Generated_Source\PSoC4/Dimming.c ****     return (Dimming_INTERRUPT_REQ_REG);
 1481              		.loc 1 1332 0
 1482 0002 1868     		ldr	r0, [r3]
 1483              		.loc 1 1333 0
 1484 0004 7047     		bx	lr
 1485              	.L116:
 1486 0006 C046     		.align	2
 1487              	.L115:
 1488 0008 70010540 		.word	1074069872
 1489              		.cfi_endproc
 1490              	.LFE37:
 1491              		.size	Dimming_GetInterruptSource, .-Dimming_GetInterruptSource
 1492              		.section	.text.Dimming_ClearInterrupt,"ax",%progbits
 1493              		.align	1
ARM GAS  C:\Users\syhaines\AppData\Local\Temp\ccsJlByc.s 			page 55


 1494              		.global	Dimming_ClearInterrupt
 1495              		.code	16
 1496              		.thumb_func
 1497              		.type	Dimming_ClearInterrupt, %function
 1498              	Dimming_ClearInterrupt:
 1499              	.LFB38:
1334:.\Generated_Source\PSoC4/Dimming.c **** 
1335:.\Generated_Source\PSoC4/Dimming.c **** 
1336:.\Generated_Source\PSoC4/Dimming.c **** /*******************************************************************************
1337:.\Generated_Source\PSoC4/Dimming.c **** * Function Name: Dimming_ClearInterrupt
1338:.\Generated_Source\PSoC4/Dimming.c **** ********************************************************************************
1339:.\Generated_Source\PSoC4/Dimming.c **** *
1340:.\Generated_Source\PSoC4/Dimming.c **** * Summary:
1341:.\Generated_Source\PSoC4/Dimming.c **** *  Clears the interrupt request.
1342:.\Generated_Source\PSoC4/Dimming.c **** *
1343:.\Generated_Source\PSoC4/Dimming.c **** * Parameters:
1344:.\Generated_Source\PSoC4/Dimming.c **** *   interruptMask: Mask of interrupts to clear
1345:.\Generated_Source\PSoC4/Dimming.c **** *   Values:
1346:.\Generated_Source\PSoC4/Dimming.c **** *     - Dimming_INTR_MASK_TC       - Terminal count mask
1347:.\Generated_Source\PSoC4/Dimming.c **** *     - Dimming_INTR_MASK_CC_MATCH - Compare count / capture mask
1348:.\Generated_Source\PSoC4/Dimming.c **** *
1349:.\Generated_Source\PSoC4/Dimming.c **** * Return:
1350:.\Generated_Source\PSoC4/Dimming.c **** *  None
1351:.\Generated_Source\PSoC4/Dimming.c **** *
1352:.\Generated_Source\PSoC4/Dimming.c **** *******************************************************************************/
1353:.\Generated_Source\PSoC4/Dimming.c **** void Dimming_ClearInterrupt(uint32 interruptMask)
1354:.\Generated_Source\PSoC4/Dimming.c **** {
 1500              		.loc 1 1354 0
 1501              		.cfi_startproc
 1502              	.LVL92:
1355:.\Generated_Source\PSoC4/Dimming.c ****     Dimming_INTERRUPT_REQ_REG = interruptMask;
 1503              		.loc 1 1355 0
 1504 0000 014B     		ldr	r3, .L118
1356:.\Generated_Source\PSoC4/Dimming.c **** }
 1505              		.loc 1 1356 0
 1506              		@ sp needed
1355:.\Generated_Source\PSoC4/Dimming.c ****     Dimming_INTERRUPT_REQ_REG = interruptMask;
 1507              		.loc 1 1355 0
 1508 0002 1860     		str	r0, [r3]
 1509              		.loc 1 1356 0
 1510 0004 7047     		bx	lr
 1511              	.L119:
 1512 0006 C046     		.align	2
 1513              	.L118:
 1514 0008 70010540 		.word	1074069872
 1515              		.cfi_endproc
 1516              	.LFE38:
 1517              		.size	Dimming_ClearInterrupt, .-Dimming_ClearInterrupt
 1518              		.section	.text.Dimming_SetInterrupt,"ax",%progbits
 1519              		.align	1
 1520              		.global	Dimming_SetInterrupt
 1521              		.code	16
 1522              		.thumb_func
 1523              		.type	Dimming_SetInterrupt, %function
 1524              	Dimming_SetInterrupt:
 1525              	.LFB39:
1357:.\Generated_Source\PSoC4/Dimming.c **** 
ARM GAS  C:\Users\syhaines\AppData\Local\Temp\ccsJlByc.s 			page 56


1358:.\Generated_Source\PSoC4/Dimming.c **** 
1359:.\Generated_Source\PSoC4/Dimming.c **** /*******************************************************************************
1360:.\Generated_Source\PSoC4/Dimming.c **** * Function Name: Dimming_SetInterrupt
1361:.\Generated_Source\PSoC4/Dimming.c **** ********************************************************************************
1362:.\Generated_Source\PSoC4/Dimming.c **** *
1363:.\Generated_Source\PSoC4/Dimming.c **** * Summary:
1364:.\Generated_Source\PSoC4/Dimming.c **** *  Sets a software interrupt request.
1365:.\Generated_Source\PSoC4/Dimming.c **** *
1366:.\Generated_Source\PSoC4/Dimming.c **** * Parameters:
1367:.\Generated_Source\PSoC4/Dimming.c **** *   interruptMask: Mask of interrupts to set
1368:.\Generated_Source\PSoC4/Dimming.c **** *   Values:
1369:.\Generated_Source\PSoC4/Dimming.c **** *     - Dimming_INTR_MASK_TC       - Terminal count mask
1370:.\Generated_Source\PSoC4/Dimming.c **** *     - Dimming_INTR_MASK_CC_MATCH - Compare count / capture mask
1371:.\Generated_Source\PSoC4/Dimming.c **** *
1372:.\Generated_Source\PSoC4/Dimming.c **** * Return:
1373:.\Generated_Source\PSoC4/Dimming.c **** *  None
1374:.\Generated_Source\PSoC4/Dimming.c **** *
1375:.\Generated_Source\PSoC4/Dimming.c **** *******************************************************************************/
1376:.\Generated_Source\PSoC4/Dimming.c **** void Dimming_SetInterrupt(uint32 interruptMask)
1377:.\Generated_Source\PSoC4/Dimming.c **** {
 1526              		.loc 1 1377 0
 1527              		.cfi_startproc
 1528              	.LVL93:
1378:.\Generated_Source\PSoC4/Dimming.c ****     Dimming_INTERRUPT_SET_REG = interruptMask;
 1529              		.loc 1 1378 0
 1530 0000 014B     		ldr	r3, .L121
1379:.\Generated_Source\PSoC4/Dimming.c **** }
 1531              		.loc 1 1379 0
 1532              		@ sp needed
1378:.\Generated_Source\PSoC4/Dimming.c ****     Dimming_INTERRUPT_SET_REG = interruptMask;
 1533              		.loc 1 1378 0
 1534 0002 1860     		str	r0, [r3]
 1535              		.loc 1 1379 0
 1536 0004 7047     		bx	lr
 1537              	.L122:
 1538 0006 C046     		.align	2
 1539              	.L121:
 1540 0008 74010540 		.word	1074069876
 1541              		.cfi_endproc
 1542              	.LFE39:
 1543              		.size	Dimming_SetInterrupt, .-Dimming_SetInterrupt
 1544              		.global	Dimming_initVar
 1545              		.bss
 1546              		.set	.LANCHOR0,. + 0
 1547              		.type	Dimming_initVar, %object
 1548              		.size	Dimming_initVar, 1
 1549              	Dimming_initVar:
 1550 0000 00       		.space	1
 1551              		.text
 1552              	.Letext0:
 1553              		.file 2 ".\\Generated_Source\\PSoC4\\cytypes.h"
 1554              		.file 3 ".\\Generated_Source\\PSoC4\\CyLib.h"
 1555              		.section	.debug_info,"",%progbits
 1556              	.Ldebug_info0:
 1557 0000 59090000 		.4byte	0x959
 1558 0004 0400     		.2byte	0x4
 1559 0006 00000000 		.4byte	.Ldebug_abbrev0
ARM GAS  C:\Users\syhaines\AppData\Local\Temp\ccsJlByc.s 			page 57


 1560 000a 04       		.byte	0x4
 1561 000b 01       		.uleb128 0x1
 1562 000c 06000000 		.4byte	.LASF76
 1563 0010 01       		.byte	0x1
 1564 0011 89030000 		.4byte	.LASF77
 1565 0015 C3030000 		.4byte	.LASF78
 1566 0019 18000000 		.4byte	.Ldebug_ranges0+0x18
 1567 001d 00000000 		.4byte	0
 1568 0021 00000000 		.4byte	.Ldebug_line0
 1569 0025 02       		.uleb128 0x2
 1570 0026 01       		.byte	0x1
 1571 0027 06       		.byte	0x6
 1572 0028 61010000 		.4byte	.LASF0
 1573 002c 02       		.uleb128 0x2
 1574 002d 01       		.byte	0x1
 1575 002e 08       		.byte	0x8
 1576 002f 2D040000 		.4byte	.LASF1
 1577 0033 02       		.uleb128 0x2
 1578 0034 02       		.byte	0x2
 1579 0035 05       		.byte	0x5
 1580 0036 67040000 		.4byte	.LASF2
 1581 003a 02       		.uleb128 0x2
 1582 003b 02       		.byte	0x2
 1583 003c 07       		.byte	0x7
 1584 003d F7020000 		.4byte	.LASF3
 1585 0041 02       		.uleb128 0x2
 1586 0042 04       		.byte	0x4
 1587 0043 05       		.byte	0x5
 1588 0044 C7010000 		.4byte	.LASF4
 1589 0048 02       		.uleb128 0x2
 1590 0049 04       		.byte	0x4
 1591 004a 07       		.byte	0x7
 1592 004b 8D020000 		.4byte	.LASF5
 1593 004f 02       		.uleb128 0x2
 1594 0050 08       		.byte	0x8
 1595 0051 05       		.byte	0x5
 1596 0052 53010000 		.4byte	.LASF6
 1597 0056 02       		.uleb128 0x2
 1598 0057 08       		.byte	0x8
 1599 0058 07       		.byte	0x7
 1600 0059 1F010000 		.4byte	.LASF7
 1601 005d 03       		.uleb128 0x3
 1602 005e 04       		.byte	0x4
 1603 005f 05       		.byte	0x5
 1604 0060 696E7400 		.ascii	"int\000"
 1605 0064 02       		.uleb128 0x2
 1606 0065 04       		.byte	0x4
 1607 0066 07       		.byte	0x7
 1608 0067 78020000 		.4byte	.LASF8
 1609 006b 04       		.uleb128 0x4
 1610 006c DD010000 		.4byte	.LASF9
 1611 0070 02       		.byte	0x2
 1612 0071 A1       		.byte	0xa1
 1613 0072 2C000000 		.4byte	0x2c
 1614 0076 04       		.uleb128 0x4
 1615 0077 41020000 		.4byte	.LASF10
 1616 007b 02       		.byte	0x2
ARM GAS  C:\Users\syhaines\AppData\Local\Temp\ccsJlByc.s 			page 58


 1617 007c A3       		.byte	0xa3
 1618 007d 48000000 		.4byte	0x48
 1619 0081 02       		.uleb128 0x2
 1620 0082 04       		.byte	0x4
 1621 0083 04       		.byte	0x4
 1622 0084 FC030000 		.4byte	.LASF11
 1623 0088 02       		.uleb128 0x2
 1624 0089 08       		.byte	0x8
 1625 008a 04       		.byte	0x4
 1626 008b 0C020000 		.4byte	.LASF12
 1627 008f 02       		.uleb128 0x2
 1628 0090 01       		.byte	0x1
 1629 0091 08       		.byte	0x8
 1630 0092 BA040000 		.4byte	.LASF13
 1631 0096 05       		.uleb128 0x5
 1632 0097 67030000 		.4byte	.LASF14
 1633 009b 02       		.byte	0x2
 1634 009c 4D01     		.2byte	0x14d
 1635 009e A2000000 		.4byte	0xa2
 1636 00a2 06       		.uleb128 0x6
 1637 00a3 76000000 		.4byte	0x76
 1638 00a7 02       		.uleb128 0x2
 1639 00a8 04       		.byte	0x4
 1640 00a9 07       		.byte	0x7
 1641 00aa 80030000 		.4byte	.LASF15
 1642 00ae 07       		.uleb128 0x7
 1643 00af A9050000 		.4byte	.LASF16
 1644 00b3 01       		.byte	0x1
 1645 00b4 6102     		.2byte	0x261
 1646 00b6 01       		.byte	0x1
 1647 00b7 C8000000 		.4byte	0xc8
 1648 00bb 08       		.uleb128 0x8
 1649 00bc 00000000 		.4byte	.LASF18
 1650 00c0 01       		.byte	0x1
 1651 00c1 6102     		.2byte	0x261
 1652 00c3 76000000 		.4byte	0x76
 1653 00c7 00       		.byte	0
 1654 00c8 07       		.uleb128 0x7
 1655 00c9 2F030000 		.4byte	.LASF17
 1656 00cd 01       		.byte	0x1
 1657 00ce 0405     		.2byte	0x504
 1658 00d0 01       		.byte	0x1
 1659 00d1 E2000000 		.4byte	0xe2
 1660 00d5 08       		.uleb128 0x8
 1661 00d6 85040000 		.4byte	.LASF19
 1662 00da 01       		.byte	0x1
 1663 00db 0405     		.2byte	0x504
 1664 00dd 76000000 		.4byte	0x76
 1665 00e1 00       		.byte	0
 1666 00e2 07       		.uleb128 0x7
 1667 00e3 71040000 		.4byte	.LASF20
 1668 00e7 01       		.byte	0x1
 1669 00e8 AF02     		.2byte	0x2af
 1670 00ea 01       		.byte	0x1
 1671 00eb FC000000 		.4byte	0xfc
 1672 00ef 08       		.uleb128 0x8
 1673 00f0 18010000 		.4byte	.LASF21
ARM GAS  C:\Users\syhaines\AppData\Local\Temp\ccsJlByc.s 			page 59


 1674 00f4 01       		.byte	0x1
 1675 00f5 AF02     		.2byte	0x2af
 1676 00f7 76000000 		.4byte	0x76
 1677 00fb 00       		.byte	0
 1678 00fc 07       		.uleb128 0x7
 1679 00fd 09050000 		.4byte	.LASF22
 1680 0101 01       		.byte	0x1
 1681 0102 4303     		.2byte	0x343
 1682 0104 01       		.byte	0x1
 1683 0105 16010000 		.4byte	0x116
 1684 0109 08       		.uleb128 0x8
 1685 010a BB030000 		.4byte	.LASF23
 1686 010e 01       		.byte	0x1
 1687 010f 4303     		.2byte	0x343
 1688 0111 76000000 		.4byte	0x76
 1689 0115 00       		.byte	0
 1690 0116 09       		.uleb128 0x9
 1691 0117 D0010000 		.4byte	.LASF24
 1692 011b 01       		.byte	0x1
 1693 011c 26       		.byte	0x26
 1694 011d 00000000 		.4byte	.LFB0
 1695 0121 5C000000 		.4byte	.LFE0-.LFB0
 1696 0125 01       		.uleb128 0x1
 1697 0126 9C       		.byte	0x9c
 1698 0127 92010000 		.4byte	0x192
 1699 012b 0A       		.uleb128 0xa
 1700 012c AE000000 		.4byte	0xae
 1701 0130 0E000000 		.4byte	.LBB10
 1702 0134 00000000 		.4byte	.Ldebug_ranges0+0
 1703 0138 01       		.byte	0x1
 1704 0139 67       		.byte	0x67
 1705 013a 45010000 		.4byte	0x145
 1706 013e 0B       		.uleb128 0xb
 1707 013f BB000000 		.4byte	0xbb
 1708 0143 00       		.byte	0
 1709 0144 00       		.byte	0
 1710 0145 0C       		.uleb128 0xc
 1711 0146 C8000000 		.4byte	0xc8
 1712 014a 20000000 		.4byte	.LBB14
 1713 014e 06000000 		.4byte	.LBE14-.LBB14
 1714 0152 01       		.byte	0x1
 1715 0153 77       		.byte	0x77
 1716 0154 5F010000 		.4byte	0x15f
 1717 0158 0B       		.uleb128 0xb
 1718 0159 D5000000 		.4byte	0xd5
 1719 015d 01       		.byte	0x1
 1720 015e 00       		.byte	0
 1721 015f 0C       		.uleb128 0xc
 1722 0160 E2000000 		.4byte	0xe2
 1723 0164 2C000000 		.4byte	.LBB16
 1724 0168 08000000 		.4byte	.LBE16-.LBB16
 1725 016c 01       		.byte	0x1
 1726 016d 92       		.byte	0x92
 1727 016e 7A010000 		.4byte	0x17a
 1728 0172 0D       		.uleb128 0xd
 1729 0173 EF000000 		.4byte	0xef
 1730 0177 E803     		.2byte	0x3e8
ARM GAS  C:\Users\syhaines\AppData\Local\Temp\ccsJlByc.s 			page 60


 1731 0179 00       		.byte	0
 1732 017a 0E       		.uleb128 0xe
 1733 017b FC000000 		.4byte	0xfc
 1734 017f 34000000 		.4byte	.LBB18
 1735 0183 06000000 		.4byte	.LBE18-.LBB18
 1736 0187 01       		.byte	0x1
 1737 0188 93       		.byte	0x93
 1738 0189 0D       		.uleb128 0xd
 1739 018a 09010000 		.4byte	0x109
 1740 018e 2102     		.2byte	0x221
 1741 0190 00       		.byte	0
 1742 0191 00       		.byte	0
 1743 0192 09       		.uleb128 0x9
 1744 0193 F0040000 		.4byte	.LASF25
 1745 0197 01       		.byte	0x1
 1746 0198 FA       		.byte	0xfa
 1747 0199 00000000 		.4byte	.LFB3
 1748 019d 1C000000 		.4byte	.LFE3-.LFB3
 1749 01a1 01       		.uleb128 0x1
 1750 01a2 9C       		.byte	0x9c
 1751 01a3 C9010000 		.4byte	0x1c9
 1752 01a7 0F       		.uleb128 0xf
 1753 01a8 4D050000 		.4byte	.LASF27
 1754 01ac 01       		.byte	0x1
 1755 01ad FC       		.byte	0xfc
 1756 01ae 6B000000 		.4byte	0x6b
 1757 01b2 00000000 		.4byte	.LLST0
 1758 01b6 10       		.uleb128 0x10
 1759 01b7 06000000 		.4byte	.LVL4
 1760 01bb 44090000 		.4byte	0x944
 1761 01bf 10       		.uleb128 0x10
 1762 01c0 14000000 		.4byte	.LVL5
 1763 01c4 4F090000 		.4byte	0x94f
 1764 01c8 00       		.byte	0
 1765 01c9 11       		.uleb128 0x11
 1766 01ca 3D050000 		.4byte	.LASF26
 1767 01ce 01       		.byte	0x1
 1768 01cf 1F01     		.2byte	0x11f
 1769 01d1 00000000 		.4byte	.LFB4
 1770 01d5 28000000 		.4byte	.LFE4-.LFB4
 1771 01d9 01       		.uleb128 0x1
 1772 01da 9C       		.byte	0x9c
 1773 01db 12020000 		.4byte	0x212
 1774 01df 12       		.uleb128 0x12
 1775 01e0 BF040000 		.4byte	.LASF29
 1776 01e4 01       		.byte	0x1
 1777 01e5 1F01     		.2byte	0x11f
 1778 01e7 76000000 		.4byte	0x76
 1779 01eb 13000000 		.4byte	.LLST1
 1780 01ef 13       		.uleb128 0x13
 1781 01f0 4D050000 		.4byte	.LASF27
 1782 01f4 01       		.byte	0x1
 1783 01f5 2101     		.2byte	0x121
 1784 01f7 6B000000 		.4byte	0x6b
 1785 01fb 3F000000 		.4byte	.LLST2
 1786 01ff 10       		.uleb128 0x10
 1787 0200 08000000 		.4byte	.LVL7
ARM GAS  C:\Users\syhaines\AppData\Local\Temp\ccsJlByc.s 			page 61


 1788 0204 44090000 		.4byte	0x944
 1789 0208 10       		.uleb128 0x10
 1790 0209 1C000000 		.4byte	.LVL8
 1791 020d 4F090000 		.4byte	0x94f
 1792 0211 00       		.byte	0
 1793 0212 11       		.uleb128 0x11
 1794 0213 A8040000 		.4byte	.LASF28
 1795 0217 01       		.byte	0x1
 1796 0218 4001     		.2byte	0x140
 1797 021a 00000000 		.4byte	.LFB5
 1798 021e 28000000 		.4byte	.LFE5-.LFB5
 1799 0222 01       		.uleb128 0x1
 1800 0223 9C       		.byte	0x9c
 1801 0224 5B020000 		.4byte	0x25b
 1802 0228 12       		.uleb128 0x12
 1803 0229 36010000 		.4byte	.LASF30
 1804 022d 01       		.byte	0x1
 1805 022e 4001     		.2byte	0x140
 1806 0230 76000000 		.4byte	0x76
 1807 0234 52000000 		.4byte	.LLST3
 1808 0238 13       		.uleb128 0x13
 1809 0239 4D050000 		.4byte	.LASF27
 1810 023d 01       		.byte	0x1
 1811 023e 4201     		.2byte	0x142
 1812 0240 6B000000 		.4byte	0x6b
 1813 0244 7E000000 		.4byte	.LLST4
 1814 0248 10       		.uleb128 0x10
 1815 0249 08000000 		.4byte	.LVL11
 1816 024d 44090000 		.4byte	0x944
 1817 0251 10       		.uleb128 0x10
 1818 0252 1C000000 		.4byte	.LVL12
 1819 0256 4F090000 		.4byte	0x94f
 1820 025a 00       		.byte	0
 1821 025b 11       		.uleb128 0x11
 1822 025c 94050000 		.4byte	.LASF31
 1823 0260 01       		.byte	0x1
 1824 0261 6501     		.2byte	0x165
 1825 0263 00000000 		.4byte	.LFB6
 1826 0267 28000000 		.4byte	.LFE6-.LFB6
 1827 026b 01       		.uleb128 0x1
 1828 026c 9C       		.byte	0x9c
 1829 026d A4020000 		.4byte	0x2a4
 1830 0271 12       		.uleb128 0x12
 1831 0272 02040000 		.4byte	.LASF32
 1832 0276 01       		.byte	0x1
 1833 0277 6501     		.2byte	0x165
 1834 0279 76000000 		.4byte	0x76
 1835 027d 91000000 		.4byte	.LLST5
 1836 0281 13       		.uleb128 0x13
 1837 0282 4D050000 		.4byte	.LASF27
 1838 0286 01       		.byte	0x1
 1839 0287 6701     		.2byte	0x167
 1840 0289 6B000000 		.4byte	0x6b
 1841 028d BD000000 		.4byte	.LLST6
 1842 0291 10       		.uleb128 0x10
 1843 0292 08000000 		.4byte	.LVL15
 1844 0296 44090000 		.4byte	0x944
ARM GAS  C:\Users\syhaines\AppData\Local\Temp\ccsJlByc.s 			page 62


 1845 029a 10       		.uleb128 0x10
 1846 029b 1C000000 		.4byte	.LVL16
 1847 029f 4F090000 		.4byte	0x94f
 1848 02a3 00       		.byte	0
 1849 02a4 11       		.uleb128 0x11
 1850 02a5 6D030000 		.4byte	.LASF33
 1851 02a9 01       		.byte	0x1
 1852 02aa 8501     		.2byte	0x185
 1853 02ac 00000000 		.4byte	.LFB7
 1854 02b0 2C000000 		.4byte	.LFE7-.LFB7
 1855 02b4 01       		.uleb128 0x1
 1856 02b5 9C       		.byte	0x9c
 1857 02b6 ED020000 		.4byte	0x2ed
 1858 02ba 12       		.uleb128 0x12
 1859 02bb 21030000 		.4byte	.LASF34
 1860 02bf 01       		.byte	0x1
 1861 02c0 8501     		.2byte	0x185
 1862 02c2 76000000 		.4byte	0x76
 1863 02c6 D0000000 		.4byte	.LLST7
 1864 02ca 13       		.uleb128 0x13
 1865 02cb 4D050000 		.4byte	.LASF27
 1866 02cf 01       		.byte	0x1
 1867 02d0 8701     		.2byte	0x187
 1868 02d2 6B000000 		.4byte	0x6b
 1869 02d6 FC000000 		.4byte	.LLST8
 1870 02da 10       		.uleb128 0x10
 1871 02db 08000000 		.4byte	.LVL19
 1872 02df 44090000 		.4byte	0x944
 1873 02e3 10       		.uleb128 0x10
 1874 02e4 22000000 		.4byte	.LVL20
 1875 02e8 4F090000 		.4byte	0x94f
 1876 02ec 00       		.byte	0
 1877 02ed 11       		.uleb128 0x11
 1878 02ee A8020000 		.4byte	.LASF35
 1879 02f2 01       		.byte	0x1
 1880 02f3 BB01     		.2byte	0x1bb
 1881 02f5 00000000 		.4byte	.LFB8
 1882 02f9 10000000 		.4byte	.LFE8-.LFB8
 1883 02fd 01       		.uleb128 0x1
 1884 02fe 9C       		.byte	0x9c
 1885 02ff 14030000 		.4byte	0x314
 1886 0303 12       		.uleb128 0x12
 1887 0304 9F020000 		.4byte	.LASF36
 1888 0308 01       		.byte	0x1
 1889 0309 BB01     		.2byte	0x1bb
 1890 030b 76000000 		.4byte	0x76
 1891 030f 0F010000 		.4byte	.LLST9
 1892 0313 00       		.byte	0
 1893 0314 11       		.uleb128 0x11
 1894 0315 2A020000 		.4byte	.LASF37
 1895 0319 01       		.byte	0x1
 1896 031a DF01     		.2byte	0x1df
 1897 031c 00000000 		.4byte	.LFB9
 1898 0320 28000000 		.4byte	.LFE9-.LFB9
 1899 0324 01       		.uleb128 0x1
 1900 0325 9C       		.byte	0x9c
 1901 0326 5D030000 		.4byte	0x35d
ARM GAS  C:\Users\syhaines\AppData\Local\Temp\ccsJlByc.s 			page 63


 1902 032a 12       		.uleb128 0x12
 1903 032b AC030000 		.4byte	.LASF38
 1904 032f 01       		.byte	0x1
 1905 0330 DF01     		.2byte	0x1df
 1906 0332 76000000 		.4byte	0x76
 1907 0336 30010000 		.4byte	.LLST10
 1908 033a 13       		.uleb128 0x13
 1909 033b 4D050000 		.4byte	.LASF27
 1910 033f 01       		.byte	0x1
 1911 0340 E101     		.2byte	0x1e1
 1912 0342 6B000000 		.4byte	0x6b
 1913 0346 5C010000 		.4byte	.LLST11
 1914 034a 10       		.uleb128 0x10
 1915 034b 08000000 		.4byte	.LVL25
 1916 034f 44090000 		.4byte	0x944
 1917 0353 10       		.uleb128 0x10
 1918 0354 22000000 		.4byte	.LVL26
 1919 0358 4F090000 		.4byte	0x94f
 1920 035c 00       		.byte	0
 1921 035d 11       		.uleb128 0x11
 1922 035e AE010000 		.4byte	.LASF39
 1923 0362 01       		.byte	0x1
 1924 0363 0102     		.2byte	0x201
 1925 0365 00000000 		.4byte	.LFB10
 1926 0369 28000000 		.4byte	.LFE10-.LFB10
 1927 036d 01       		.uleb128 0x1
 1928 036e 9C       		.byte	0x9c
 1929 036f A6030000 		.4byte	0x3a6
 1930 0373 12       		.uleb128 0x12
 1931 0374 56040000 		.4byte	.LASF40
 1932 0378 01       		.byte	0x1
 1933 0379 0102     		.2byte	0x201
 1934 037b 76000000 		.4byte	0x76
 1935 037f 6F010000 		.4byte	.LLST12
 1936 0383 13       		.uleb128 0x13
 1937 0384 4D050000 		.4byte	.LASF27
 1938 0388 01       		.byte	0x1
 1939 0389 0302     		.2byte	0x203
 1940 038b 6B000000 		.4byte	0x6b
 1941 038f 9B010000 		.4byte	.LLST13
 1942 0393 10       		.uleb128 0x10
 1943 0394 08000000 		.4byte	.LVL29
 1944 0398 44090000 		.4byte	0x944
 1945 039c 10       		.uleb128 0x10
 1946 039d 22000000 		.4byte	.LVL30
 1947 03a1 4F090000 		.4byte	0x94f
 1948 03a5 00       		.byte	0
 1949 03a6 11       		.uleb128 0x11
 1950 03a7 13020000 		.4byte	.LASF41
 1951 03ab 01       		.byte	0x1
 1952 03ac 2202     		.2byte	0x222
 1953 03ae 00000000 		.4byte	.LFB11
 1954 03b2 2C000000 		.4byte	.LFE11-.LFB11
 1955 03b6 01       		.uleb128 0x1
 1956 03b7 9C       		.byte	0x9c
 1957 03b8 EF030000 		.4byte	0x3ef
 1958 03bc 12       		.uleb128 0x12
ARM GAS  C:\Users\syhaines\AppData\Local\Temp\ccsJlByc.s 			page 64


 1959 03bd 6F020000 		.4byte	.LASF42
 1960 03c1 01       		.byte	0x1
 1961 03c2 2202     		.2byte	0x222
 1962 03c4 76000000 		.4byte	0x76
 1963 03c8 AE010000 		.4byte	.LLST14
 1964 03cc 13       		.uleb128 0x13
 1965 03cd 4D050000 		.4byte	.LASF27
 1966 03d1 01       		.byte	0x1
 1967 03d2 2402     		.2byte	0x224
 1968 03d4 6B000000 		.4byte	0x6b
 1969 03d8 DA010000 		.4byte	.LLST15
 1970 03dc 10       		.uleb128 0x10
 1971 03dd 08000000 		.4byte	.LVL33
 1972 03e1 44090000 		.4byte	0x944
 1973 03e5 10       		.uleb128 0x10
 1974 03e6 20000000 		.4byte	.LVL35
 1975 03ea 4F090000 		.4byte	0x94f
 1976 03ee 00       		.byte	0
 1977 03ef 11       		.uleb128 0x11
 1978 03f0 03010000 		.4byte	.LASF43
 1979 03f4 01       		.byte	0x1
 1980 03f5 4302     		.2byte	0x243
 1981 03f7 00000000 		.4byte	.LFB12
 1982 03fb 28000000 		.4byte	.LFE12-.LFB12
 1983 03ff 01       		.uleb128 0x1
 1984 0400 9C       		.byte	0x9c
 1985 0401 38040000 		.4byte	0x438
 1986 0405 12       		.uleb128 0x12
 1987 0406 54020000 		.4byte	.LASF44
 1988 040a 01       		.byte	0x1
 1989 040b 4302     		.2byte	0x243
 1990 040d 76000000 		.4byte	0x76
 1991 0411 ED010000 		.4byte	.LLST16
 1992 0415 13       		.uleb128 0x13
 1993 0416 4D050000 		.4byte	.LASF27
 1994 041a 01       		.byte	0x1
 1995 041b 4502     		.2byte	0x245
 1996 041d 6B000000 		.4byte	0x6b
 1997 0421 19020000 		.4byte	.LLST17
 1998 0425 10       		.uleb128 0x10
 1999 0426 08000000 		.4byte	.LVL37
 2000 042a 44090000 		.4byte	0x944
 2001 042e 10       		.uleb128 0x10
 2002 042f 1C000000 		.4byte	.LVL38
 2003 0433 4F090000 		.4byte	0x94f
 2004 0437 00       		.byte	0
 2005 0438 14       		.uleb128 0x14
 2006 0439 AE000000 		.4byte	0xae
 2007 043d 00000000 		.4byte	.LFB13
 2008 0441 0C000000 		.4byte	.LFE13-.LFB13
 2009 0445 01       		.uleb128 0x1
 2010 0446 9C       		.byte	0x9c
 2011 0447 55040000 		.4byte	0x455
 2012 044b 15       		.uleb128 0x15
 2013 044c BB000000 		.4byte	0xbb
 2014 0450 2C020000 		.4byte	.LLST18
 2015 0454 00       		.byte	0
ARM GAS  C:\Users\syhaines\AppData\Local\Temp\ccsJlByc.s 			page 65


 2016 0455 16       		.uleb128 0x16
 2017 0456 C1000000 		.4byte	.LASF47
 2018 045a 01       		.byte	0x1
 2019 045b 7502     		.2byte	0x275
 2020 045d 76000000 		.4byte	0x76
 2021 0461 00000000 		.4byte	.LFB14
 2022 0465 0C000000 		.4byte	.LFE14-.LFB14
 2023 0469 01       		.uleb128 0x1
 2024 046a 9C       		.byte	0x9c
 2025 046b 11       		.uleb128 0x11
 2026 046c 5E050000 		.4byte	.LASF45
 2027 0470 01       		.byte	0x1
 2028 0471 9202     		.2byte	0x292
 2029 0473 00000000 		.4byte	.LFB15
 2030 0477 28000000 		.4byte	.LFE15-.LFB15
 2031 047b 01       		.uleb128 0x1
 2032 047c 9C       		.byte	0x9c
 2033 047d B4040000 		.4byte	0x4b4
 2034 0481 12       		.uleb128 0x12
 2035 0482 FD040000 		.4byte	.LASF46
 2036 0486 01       		.byte	0x1
 2037 0487 9202     		.2byte	0x292
 2038 0489 76000000 		.4byte	0x76
 2039 048d 4D020000 		.4byte	.LLST19
 2040 0491 13       		.uleb128 0x13
 2041 0492 4D050000 		.4byte	.LASF27
 2042 0496 01       		.byte	0x1
 2043 0497 9402     		.2byte	0x294
 2044 0499 6B000000 		.4byte	0x6b
 2045 049d 79020000 		.4byte	.LLST20
 2046 04a1 10       		.uleb128 0x10
 2047 04a2 08000000 		.4byte	.LVL43
 2048 04a6 44090000 		.4byte	0x944
 2049 04aa 10       		.uleb128 0x10
 2050 04ab 1C000000 		.4byte	.LVL44
 2051 04af 4F090000 		.4byte	0x94f
 2052 04b3 00       		.byte	0
 2053 04b4 14       		.uleb128 0x14
 2054 04b5 E2000000 		.4byte	0xe2
 2055 04b9 00000000 		.4byte	.LFB16
 2056 04bd 0C000000 		.4byte	.LFE16-.LFB16
 2057 04c1 01       		.uleb128 0x1
 2058 04c2 9C       		.byte	0x9c
 2059 04c3 D1040000 		.4byte	0x4d1
 2060 04c7 15       		.uleb128 0x15
 2061 04c8 EF000000 		.4byte	0xef
 2062 04cc 8C020000 		.4byte	.LLST21
 2063 04d0 00       		.byte	0
 2064 04d1 16       		.uleb128 0x16
 2065 04d2 9B010000 		.4byte	.LASF48
 2066 04d6 01       		.byte	0x1
 2067 04d7 C302     		.2byte	0x2c3
 2068 04d9 76000000 		.4byte	0x76
 2069 04dd 00000000 		.4byte	.LFB17
 2070 04e1 0C000000 		.4byte	.LFE17-.LFB17
 2071 04e5 01       		.uleb128 0x1
 2072 04e6 9C       		.byte	0x9c
ARM GAS  C:\Users\syhaines\AppData\Local\Temp\ccsJlByc.s 			page 66


 2073 04e7 11       		.uleb128 0x11
 2074 04e8 84010000 		.4byte	.LASF49
 2075 04ec 01       		.byte	0x1
 2076 04ed DD02     		.2byte	0x2dd
 2077 04ef 00000000 		.4byte	.LFB18
 2078 04f3 24000000 		.4byte	.LFE18-.LFB18
 2079 04f7 01       		.uleb128 0x1
 2080 04f8 9C       		.byte	0x9c
 2081 04f9 30050000 		.4byte	0x530
 2082 04fd 12       		.uleb128 0x12
 2083 04fe 89050000 		.4byte	.LASF50
 2084 0502 01       		.byte	0x1
 2085 0503 DD02     		.2byte	0x2dd
 2086 0505 76000000 		.4byte	0x76
 2087 0509 AD020000 		.4byte	.LLST22
 2088 050d 13       		.uleb128 0x13
 2089 050e 4D050000 		.4byte	.LASF27
 2090 0512 01       		.byte	0x1
 2091 0513 DF02     		.2byte	0x2df
 2092 0515 6B000000 		.4byte	0x6b
 2093 0519 D9020000 		.4byte	.LLST23
 2094 051d 10       		.uleb128 0x10
 2095 051e 08000000 		.4byte	.LVL49
 2096 0522 44090000 		.4byte	0x944
 2097 0526 10       		.uleb128 0x10
 2098 0527 1E000000 		.4byte	.LVL50
 2099 052b 4F090000 		.4byte	0x94f
 2100 052f 00       		.byte	0
 2101 0530 11       		.uleb128 0x11
 2102 0531 BE050000 		.4byte	.LASF51
 2103 0535 01       		.byte	0x1
 2104 0536 F802     		.2byte	0x2f8
 2105 0538 00000000 		.4byte	.LFB19
 2106 053c 0C000000 		.4byte	.LFE19-.LFB19
 2107 0540 01       		.uleb128 0x1
 2108 0541 9C       		.byte	0x9c
 2109 0542 57050000 		.4byte	0x557
 2110 0546 12       		.uleb128 0x12
 2111 0547 D5050000 		.4byte	.LASF52
 2112 054b 01       		.byte	0x1
 2113 054c F802     		.2byte	0x2f8
 2114 054e 76000000 		.4byte	0x76
 2115 0552 EC020000 		.4byte	.LLST24
 2116 0556 00       		.byte	0
 2117 0557 16       		.uleb128 0x16
 2118 0558 ED000000 		.4byte	.LASF53
 2119 055c 01       		.byte	0x1
 2120 055d 0C03     		.2byte	0x30c
 2121 055f 76000000 		.4byte	0x76
 2122 0563 00000000 		.4byte	.LFB20
 2123 0567 0C000000 		.4byte	.LFE20-.LFB20
 2124 056b 01       		.uleb128 0x1
 2125 056c 9C       		.byte	0x9c
 2126 056d 11       		.uleb128 0x11
 2127 056e 3D010000 		.4byte	.LASF54
 2128 0572 01       		.byte	0x1
 2129 0573 2603     		.2byte	0x326
ARM GAS  C:\Users\syhaines\AppData\Local\Temp\ccsJlByc.s 			page 67


 2130 0575 00000000 		.4byte	.LFB21
 2131 0579 28000000 		.4byte	.LFE21-.LFB21
 2132 057d 01       		.uleb128 0x1
 2133 057e 9C       		.byte	0x9c
 2134 057f B6050000 		.4byte	0x5b6
 2135 0583 12       		.uleb128 0x12
 2136 0584 89050000 		.4byte	.LASF50
 2137 0588 01       		.byte	0x1
 2138 0589 2603     		.2byte	0x326
 2139 058b 76000000 		.4byte	0x76
 2140 058f 0D030000 		.4byte	.LLST25
 2141 0593 13       		.uleb128 0x13
 2142 0594 4D050000 		.4byte	.LASF27
 2143 0598 01       		.byte	0x1
 2144 0599 2803     		.2byte	0x328
 2145 059b 6B000000 		.4byte	0x6b
 2146 059f 39030000 		.4byte	.LLST26
 2147 05a3 10       		.uleb128 0x10
 2148 05a4 08000000 		.4byte	.LVL55
 2149 05a8 44090000 		.4byte	0x944
 2150 05ac 10       		.uleb128 0x10
 2151 05ad 22000000 		.4byte	.LVL56
 2152 05b1 4F090000 		.4byte	0x94f
 2153 05b5 00       		.byte	0
 2154 05b6 14       		.uleb128 0x14
 2155 05b7 FC000000 		.4byte	0xfc
 2156 05bb 00000000 		.4byte	.LFB22
 2157 05bf 0C000000 		.4byte	.LFE22-.LFB22
 2158 05c3 01       		.uleb128 0x1
 2159 05c4 9C       		.byte	0x9c
 2160 05c5 D3050000 		.4byte	0x5d3
 2161 05c9 15       		.uleb128 0x15
 2162 05ca 09010000 		.4byte	0x109
 2163 05ce 4C030000 		.4byte	.LLST27
 2164 05d2 00       		.byte	0
 2165 05d3 16       		.uleb128 0x16
 2166 05d4 75050000 		.4byte	.LASF55
 2167 05d8 01       		.byte	0x1
 2168 05d9 6E03     		.2byte	0x36e
 2169 05db 76000000 		.4byte	0x76
 2170 05df 00000000 		.4byte	.LFB23
 2171 05e3 0C000000 		.4byte	.LFE23-.LFB23
 2172 05e7 01       		.uleb128 0x1
 2173 05e8 9C       		.byte	0x9c
 2174 05e9 11       		.uleb128 0x11
 2175 05ea D5000000 		.4byte	.LASF56
 2176 05ee 01       		.byte	0x1
 2177 05ef 9C03     		.2byte	0x39c
 2178 05f1 00000000 		.4byte	.LFB24
 2179 05f5 0C000000 		.4byte	.LFE24-.LFB24
 2180 05f9 01       		.uleb128 0x1
 2181 05fa 9C       		.byte	0x9c
 2182 05fb 10060000 		.4byte	0x610
 2183 05ff 12       		.uleb128 0x12
 2184 0600 32050000 		.4byte	.LASF57
 2185 0604 01       		.byte	0x1
 2186 0605 9C03     		.2byte	0x39c
ARM GAS  C:\Users\syhaines\AppData\Local\Temp\ccsJlByc.s 			page 68


 2187 0607 76000000 		.4byte	0x76
 2188 060b 6D030000 		.4byte	.LLST28
 2189 060f 00       		.byte	0
 2190 0610 16       		.uleb128 0x16
 2191 0611 6D010000 		.4byte	.LASF58
 2192 0615 01       		.byte	0x1
 2193 0616 C503     		.2byte	0x3c5
 2194 0618 76000000 		.4byte	0x76
 2195 061c 00000000 		.4byte	.LFB25
 2196 0620 0C000000 		.4byte	.LFE25-.LFB25
 2197 0624 01       		.uleb128 0x1
 2198 0625 9C       		.byte	0x9c
 2199 0626 16       		.uleb128 0x16
 2200 0627 1E050000 		.4byte	.LASF59
 2201 062b 01       		.byte	0x1
 2202 062c F303     		.2byte	0x3f3
 2203 062e 76000000 		.4byte	0x76
 2204 0632 00000000 		.4byte	.LFB26
 2205 0636 0C000000 		.4byte	.LFE26-.LFB26
 2206 063a 01       		.uleb128 0x1
 2207 063b 9C       		.byte	0x9c
 2208 063c 16       		.uleb128 0x16
 2209 063d C4040000 		.4byte	.LASF60
 2210 0641 01       		.byte	0x1
 2211 0642 0804     		.2byte	0x408
 2212 0644 76000000 		.4byte	0x76
 2213 0648 00000000 		.4byte	.LFB27
 2214 064c 0C000000 		.4byte	.LFE27-.LFB27
 2215 0650 01       		.uleb128 0x1
 2216 0651 9C       		.byte	0x9c
 2217 0652 11       		.uleb128 0x11
 2218 0653 AA000000 		.4byte	.LASF61
 2219 0657 01       		.byte	0x1
 2220 0658 2304     		.2byte	0x423
 2221 065a 00000000 		.4byte	.LFB28
 2222 065e 24000000 		.4byte	.LFE28-.LFB28
 2223 0662 01       		.uleb128 0x1
 2224 0663 9C       		.byte	0x9c
 2225 0664 9B060000 		.4byte	0x69b
 2226 0668 12       		.uleb128 0x12
 2227 0669 48020000 		.4byte	.LASF62
 2228 066d 01       		.byte	0x1
 2229 066e 2304     		.2byte	0x423
 2230 0670 76000000 		.4byte	0x76
 2231 0674 8E030000 		.4byte	.LLST29
 2232 0678 13       		.uleb128 0x13
 2233 0679 4D050000 		.4byte	.LASF27
 2234 067d 01       		.byte	0x1
 2235 067e 2504     		.2byte	0x425
 2236 0680 6B000000 		.4byte	0x6b
 2237 0684 BA030000 		.4byte	.LLST30
 2238 0688 10       		.uleb128 0x10
 2239 0689 08000000 		.4byte	.LVL63
 2240 068d 44090000 		.4byte	0x944
 2241 0691 10       		.uleb128 0x10
 2242 0692 1C000000 		.4byte	.LVL64
 2243 0696 4F090000 		.4byte	0x94f
ARM GAS  C:\Users\syhaines\AppData\Local\Temp\ccsJlByc.s 			page 69


 2244 069a 00       		.byte	0
 2245 069b 11       		.uleb128 0x11
 2246 069c 59020000 		.4byte	.LASF63
 2247 06a0 01       		.byte	0x1
 2248 06a1 4404     		.2byte	0x444
 2249 06a3 00000000 		.4byte	.LFB29
 2250 06a7 24000000 		.4byte	.LFE29-.LFB29
 2251 06ab 01       		.uleb128 0x1
 2252 06ac 9C       		.byte	0x9c
 2253 06ad E4060000 		.4byte	0x6e4
 2254 06b1 12       		.uleb128 0x12
 2255 06b2 48020000 		.4byte	.LASF62
 2256 06b6 01       		.byte	0x1
 2257 06b7 4404     		.2byte	0x444
 2258 06b9 76000000 		.4byte	0x76
 2259 06bd CD030000 		.4byte	.LLST31
 2260 06c1 13       		.uleb128 0x13
 2261 06c2 4D050000 		.4byte	.LASF27
 2262 06c6 01       		.byte	0x1
 2263 06c7 4604     		.2byte	0x446
 2264 06c9 6B000000 		.4byte	0x6b
 2265 06cd F9030000 		.4byte	.LLST32
 2266 06d1 10       		.uleb128 0x10
 2267 06d2 08000000 		.4byte	.LVL67
 2268 06d6 44090000 		.4byte	0x944
 2269 06da 10       		.uleb128 0x10
 2270 06db 1E000000 		.4byte	.LVL68
 2271 06df 4F090000 		.4byte	0x94f
 2272 06e3 00       		.byte	0
 2273 06e4 11       		.uleb128 0x11
 2274 06e5 DB040000 		.4byte	.LASF64
 2275 06e9 01       		.byte	0x1
 2276 06ea 6504     		.2byte	0x465
 2277 06ec 00000000 		.4byte	.LFB30
 2278 06f0 28000000 		.4byte	.LFE30-.LFB30
 2279 06f4 01       		.uleb128 0x1
 2280 06f5 9C       		.byte	0x9c
 2281 06f6 2D070000 		.4byte	0x72d
 2282 06fa 12       		.uleb128 0x12
 2283 06fb 48020000 		.4byte	.LASF62
 2284 06ff 01       		.byte	0x1
 2285 0700 6504     		.2byte	0x465
 2286 0702 76000000 		.4byte	0x76
 2287 0706 0C040000 		.4byte	.LLST33
 2288 070a 13       		.uleb128 0x13
 2289 070b 4D050000 		.4byte	.LASF27
 2290 070f 01       		.byte	0x1
 2291 0710 6704     		.2byte	0x467
 2292 0712 6B000000 		.4byte	0x6b
 2293 0716 38040000 		.4byte	.LLST34
 2294 071a 10       		.uleb128 0x10
 2295 071b 08000000 		.4byte	.LVL71
 2296 071f 44090000 		.4byte	0x944
 2297 0723 10       		.uleb128 0x10
 2298 0724 1E000000 		.4byte	.LVL72
 2299 0728 4F090000 		.4byte	0x94f
 2300 072c 00       		.byte	0
ARM GAS  C:\Users\syhaines\AppData\Local\Temp\ccsJlByc.s 			page 70


 2301 072d 11       		.uleb128 0x11
 2302 072e E3010000 		.4byte	.LASF65
 2303 0732 01       		.byte	0x1
 2304 0733 8504     		.2byte	0x485
 2305 0735 00000000 		.4byte	.LFB31
 2306 0739 24000000 		.4byte	.LFE31-.LFB31
 2307 073d 01       		.uleb128 0x1
 2308 073e 9C       		.byte	0x9c
 2309 073f 76070000 		.4byte	0x776
 2310 0743 12       		.uleb128 0x12
 2311 0744 48020000 		.4byte	.LASF62
 2312 0748 01       		.byte	0x1
 2313 0749 8504     		.2byte	0x485
 2314 074b 76000000 		.4byte	0x76
 2315 074f 4B040000 		.4byte	.LLST35
 2316 0753 13       		.uleb128 0x13
 2317 0754 4D050000 		.4byte	.LASF27
 2318 0758 01       		.byte	0x1
 2319 0759 8704     		.2byte	0x487
 2320 075b 6B000000 		.4byte	0x6b
 2321 075f 77040000 		.4byte	.LLST36
 2322 0763 10       		.uleb128 0x10
 2323 0764 08000000 		.4byte	.LVL75
 2324 0768 44090000 		.4byte	0x944
 2325 076c 10       		.uleb128 0x10
 2326 076d 1E000000 		.4byte	.LVL76
 2327 0771 4F090000 		.4byte	0x94f
 2328 0775 00       		.byte	0
 2329 0776 11       		.uleb128 0x11
 2330 0777 93040000 		.4byte	.LASF66
 2331 077b 01       		.byte	0x1
 2332 077c A604     		.2byte	0x4a6
 2333 077e 00000000 		.4byte	.LFB32
 2334 0782 24000000 		.4byte	.LFE32-.LFB32
 2335 0786 01       		.uleb128 0x1
 2336 0787 9C       		.byte	0x9c
 2337 0788 BF070000 		.4byte	0x7bf
 2338 078c 12       		.uleb128 0x12
 2339 078d 48020000 		.4byte	.LASF62
 2340 0791 01       		.byte	0x1
 2341 0792 A604     		.2byte	0x4a6
 2342 0794 76000000 		.4byte	0x76
 2343 0798 8A040000 		.4byte	.LLST37
 2344 079c 13       		.uleb128 0x13
 2345 079d 4D050000 		.4byte	.LASF27
 2346 07a1 01       		.byte	0x1
 2347 07a2 A804     		.2byte	0x4a8
 2348 07a4 6B000000 		.4byte	0x6b
 2349 07a8 B6040000 		.4byte	.LLST38
 2350 07ac 10       		.uleb128 0x10
 2351 07ad 08000000 		.4byte	.LVL79
 2352 07b1 44090000 		.4byte	0x944
 2353 07b5 10       		.uleb128 0x10
 2354 07b6 1E000000 		.4byte	.LVL80
 2355 07ba 4F090000 		.4byte	0x94f
 2356 07be 00       		.byte	0
 2357 07bf 11       		.uleb128 0x11
ARM GAS  C:\Users\syhaines\AppData\Local\Temp\ccsJlByc.s 			page 71


 2358 07c0 BB020000 		.4byte	.LASF67
 2359 07c4 01       		.byte	0x1
 2360 07c5 CE04     		.2byte	0x4ce
 2361 07c7 00000000 		.4byte	.LFB33
 2362 07cb 1C000000 		.4byte	.LFE33-.LFB33
 2363 07cf 01       		.uleb128 0x1
 2364 07d0 9C       		.byte	0x9c
 2365 07d1 18080000 		.4byte	0x818
 2366 07d5 12       		.uleb128 0x12
 2367 07d6 54020000 		.4byte	.LASF44
 2368 07da 01       		.byte	0x1
 2369 07db CE04     		.2byte	0x4ce
 2370 07dd 76000000 		.4byte	0x76
 2371 07e1 C9040000 		.4byte	.LLST39
 2372 07e5 12       		.uleb128 0x12
 2373 07e6 85020000 		.4byte	.LASF68
 2374 07ea 01       		.byte	0x1
 2375 07eb CE04     		.2byte	0x4ce
 2376 07ed 76000000 		.4byte	0x76
 2377 07f1 EA040000 		.4byte	.LLST40
 2378 07f5 13       		.uleb128 0x13
 2379 07f6 4D050000 		.4byte	.LASF27
 2380 07fa 01       		.byte	0x1
 2381 07fb D004     		.2byte	0x4d0
 2382 07fd 6B000000 		.4byte	0x6b
 2383 0801 16050000 		.4byte	.LLST41
 2384 0805 10       		.uleb128 0x10
 2385 0806 0C000000 		.4byte	.LVL83
 2386 080a 44090000 		.4byte	0x944
 2387 080e 10       		.uleb128 0x10
 2388 080f 14000000 		.4byte	.LVL84
 2389 0813 4F090000 		.4byte	0x94f
 2390 0817 00       		.byte	0
 2391 0818 09       		.uleb128 0x9
 2392 0819 58030000 		.4byte	.LASF69
 2393 081d 01       		.byte	0x1
 2394 081e B1       		.byte	0xb1
 2395 081f 00000000 		.4byte	.LFB1
 2396 0823 24000000 		.4byte	.LFE1-.LFB1
 2397 0827 01       		.uleb128 0x1
 2398 0828 9C       		.byte	0x9c
 2399 0829 64080000 		.4byte	0x864
 2400 082d 0F       		.uleb128 0xf
 2401 082e 4D050000 		.4byte	.LASF27
 2402 0832 01       		.byte	0x1
 2403 0833 B3       		.byte	0xb3
 2404 0834 6B000000 		.4byte	0x6b
 2405 0838 29050000 		.4byte	.LLST42
 2406 083c 10       		.uleb128 0x10
 2407 083d 08000000 		.4byte	.LVL86
 2408 0841 44090000 		.4byte	0x944
 2409 0845 10       		.uleb128 0x10
 2410 0846 14000000 		.4byte	.LVL87
 2411 084a 4F090000 		.4byte	0x94f
 2412 084e 17       		.uleb128 0x17
 2413 084f 1C000000 		.4byte	.LVL88
 2414 0853 BF070000 		.4byte	0x7bf
ARM GAS  C:\Users\syhaines\AppData\Local\Temp\ccsJlByc.s 			page 72


 2415 0857 18       		.uleb128 0x18
 2416 0858 01       		.uleb128 0x1
 2417 0859 51       		.byte	0x51
 2418 085a 01       		.uleb128 0x1
 2419 085b 48       		.byte	0x48
 2420 085c 18       		.uleb128 0x18
 2421 085d 01       		.uleb128 0x1
 2422 085e 50       		.byte	0x50
 2423 085f 02       		.uleb128 0x2
 2424 0860 74       		.byte	0x74
 2425 0861 00       		.sleb128 0
 2426 0862 00       		.byte	0
 2427 0863 00       		.byte	0
 2428 0864 09       		.uleb128 0x9
 2429 0865 D2020000 		.4byte	.LASF70
 2430 0869 01       		.byte	0x1
 2431 086a E0       		.byte	0xe0
 2432 086b 00000000 		.4byte	.LFB2
 2433 086f 1C000000 		.4byte	.LFE2-.LFB2
 2434 0873 01       		.uleb128 0x1
 2435 0874 9C       		.byte	0x9c
 2436 0875 8C080000 		.4byte	0x88c
 2437 0879 10       		.uleb128 0x10
 2438 087a 0E000000 		.4byte	.LVL89
 2439 087e 16010000 		.4byte	0x116
 2440 0882 10       		.uleb128 0x10
 2441 0883 16000000 		.4byte	.LVL90
 2442 0887 18080000 		.4byte	0x818
 2443 088b 00       		.byte	0
 2444 088c 16       		.uleb128 0x16
 2445 088d DF050000 		.4byte	.LASF71
 2446 0891 01       		.byte	0x1
 2447 0892 EB04     		.2byte	0x4eb
 2448 0894 76000000 		.4byte	0x76
 2449 0898 00000000 		.4byte	.LFB34
 2450 089c 14000000 		.4byte	.LFE34-.LFB34
 2451 08a0 01       		.uleb128 0x1
 2452 08a1 9C       		.byte	0x9c
 2453 08a2 14       		.uleb128 0x14
 2454 08a3 C8000000 		.4byte	0xc8
 2455 08a7 00000000 		.4byte	.LFB35
 2456 08ab 0C000000 		.4byte	.LFE35-.LFB35
 2457 08af 01       		.uleb128 0x1
 2458 08b0 9C       		.byte	0x9c
 2459 08b1 BD080000 		.4byte	0x8bd
 2460 08b5 19       		.uleb128 0x19
 2461 08b6 D5000000 		.4byte	0xd5
 2462 08ba 01       		.uleb128 0x1
 2463 08bb 50       		.byte	0x50
 2464 08bc 00       		.byte	0
 2465 08bd 16       		.uleb128 0x16
 2466 08be 0C040000 		.4byte	.LASF72
 2467 08c2 01       		.byte	0x1
 2468 08c3 1B05     		.2byte	0x51b
 2469 08c5 76000000 		.4byte	0x76
 2470 08c9 00000000 		.4byte	.LFB36
 2471 08cd 0C000000 		.4byte	.LFE36-.LFB36
ARM GAS  C:\Users\syhaines\AppData\Local\Temp\ccsJlByc.s 			page 73


 2472 08d1 01       		.uleb128 0x1
 2473 08d2 9C       		.byte	0x9c
 2474 08d3 16       		.uleb128 0x16
 2475 08d4 3B040000 		.4byte	.LASF73
 2476 08d8 01       		.byte	0x1
 2477 08d9 3205     		.2byte	0x532
 2478 08db 76000000 		.4byte	0x76
 2479 08df 00000000 		.4byte	.LFB37
 2480 08e3 0C000000 		.4byte	.LFE37-.LFB37
 2481 08e7 01       		.uleb128 0x1
 2482 08e8 9C       		.byte	0x9c
 2483 08e9 11       		.uleb128 0x11
 2484 08ea E0020000 		.4byte	.LASF74
 2485 08ee 01       		.byte	0x1
 2486 08ef 4905     		.2byte	0x549
 2487 08f1 00000000 		.4byte	.LFB38
 2488 08f5 0C000000 		.4byte	.LFE38-.LFB38
 2489 08f9 01       		.uleb128 0x1
 2490 08fa 9C       		.byte	0x9c
 2491 08fb 0E090000 		.4byte	0x90e
 2492 08ff 1A       		.uleb128 0x1a
 2493 0900 85040000 		.4byte	.LASF19
 2494 0904 01       		.byte	0x1
 2495 0905 4905     		.2byte	0x549
 2496 0907 76000000 		.4byte	0x76
 2497 090b 01       		.uleb128 0x1
 2498 090c 50       		.byte	0x50
 2499 090d 00       		.byte	0
 2500 090e 11       		.uleb128 0x11
 2501 090f F7010000 		.4byte	.LASF75
 2502 0913 01       		.byte	0x1
 2503 0914 6005     		.2byte	0x560
 2504 0916 00000000 		.4byte	.LFB39
 2505 091a 0C000000 		.4byte	.LFE39-.LFB39
 2506 091e 01       		.uleb128 0x1
 2507 091f 9C       		.byte	0x9c
 2508 0920 33090000 		.4byte	0x933
 2509 0924 1A       		.uleb128 0x1a
 2510 0925 85040000 		.4byte	.LASF19
 2511 0929 01       		.byte	0x1
 2512 092a 6005     		.2byte	0x560
 2513 092c 76000000 		.4byte	0x76
 2514 0930 01       		.uleb128 0x1
 2515 0931 50       		.byte	0x50
 2516 0932 00       		.byte	0
 2517 0933 1B       		.uleb128 0x1b
 2518 0934 48030000 		.4byte	.LASF79
 2519 0938 01       		.byte	0x1
 2520 0939 15       		.byte	0x15
 2521 093a 6B000000 		.4byte	0x6b
 2522 093e 05       		.uleb128 0x5
 2523 093f 03       		.byte	0x3
 2524 0940 00000000 		.4byte	Dimming_initVar
 2525 0944 1C       		.uleb128 0x1c
 2526 0945 0A030000 		.4byte	.LASF80
 2527 0949 03       		.byte	0x3
 2528 094a 82       		.byte	0x82
ARM GAS  C:\Users\syhaines\AppData\Local\Temp\ccsJlByc.s 			page 74


 2529 094b 6B000000 		.4byte	0x6b
 2530 094f 1D       		.uleb128 0x1d
 2531 0950 94000000 		.4byte	.LASF81
 2532 0954 03       		.byte	0x3
 2533 0955 83       		.byte	0x83
 2534 0956 1E       		.uleb128 0x1e
 2535 0957 6B000000 		.4byte	0x6b
 2536 095b 00       		.byte	0
 2537 095c 00       		.byte	0
 2538              		.section	.debug_abbrev,"",%progbits
 2539              	.Ldebug_abbrev0:
 2540 0000 01       		.uleb128 0x1
 2541 0001 11       		.uleb128 0x11
 2542 0002 01       		.byte	0x1
 2543 0003 25       		.uleb128 0x25
 2544 0004 0E       		.uleb128 0xe
 2545 0005 13       		.uleb128 0x13
 2546 0006 0B       		.uleb128 0xb
 2547 0007 03       		.uleb128 0x3
 2548 0008 0E       		.uleb128 0xe
 2549 0009 1B       		.uleb128 0x1b
 2550 000a 0E       		.uleb128 0xe
 2551 000b 55       		.uleb128 0x55
 2552 000c 17       		.uleb128 0x17
 2553 000d 11       		.uleb128 0x11
 2554 000e 01       		.uleb128 0x1
 2555 000f 10       		.uleb128 0x10
 2556 0010 17       		.uleb128 0x17
 2557 0011 00       		.byte	0
 2558 0012 00       		.byte	0
 2559 0013 02       		.uleb128 0x2
 2560 0014 24       		.uleb128 0x24
 2561 0015 00       		.byte	0
 2562 0016 0B       		.uleb128 0xb
 2563 0017 0B       		.uleb128 0xb
 2564 0018 3E       		.uleb128 0x3e
 2565 0019 0B       		.uleb128 0xb
 2566 001a 03       		.uleb128 0x3
 2567 001b 0E       		.uleb128 0xe
 2568 001c 00       		.byte	0
 2569 001d 00       		.byte	0
 2570 001e 03       		.uleb128 0x3
 2571 001f 24       		.uleb128 0x24
 2572 0020 00       		.byte	0
 2573 0021 0B       		.uleb128 0xb
 2574 0022 0B       		.uleb128 0xb
 2575 0023 3E       		.uleb128 0x3e
 2576 0024 0B       		.uleb128 0xb
 2577 0025 03       		.uleb128 0x3
 2578 0026 08       		.uleb128 0x8
 2579 0027 00       		.byte	0
 2580 0028 00       		.byte	0
 2581 0029 04       		.uleb128 0x4
 2582 002a 16       		.uleb128 0x16
 2583 002b 00       		.byte	0
 2584 002c 03       		.uleb128 0x3
 2585 002d 0E       		.uleb128 0xe
ARM GAS  C:\Users\syhaines\AppData\Local\Temp\ccsJlByc.s 			page 75


 2586 002e 3A       		.uleb128 0x3a
 2587 002f 0B       		.uleb128 0xb
 2588 0030 3B       		.uleb128 0x3b
 2589 0031 0B       		.uleb128 0xb
 2590 0032 49       		.uleb128 0x49
 2591 0033 13       		.uleb128 0x13
 2592 0034 00       		.byte	0
 2593 0035 00       		.byte	0
 2594 0036 05       		.uleb128 0x5
 2595 0037 16       		.uleb128 0x16
 2596 0038 00       		.byte	0
 2597 0039 03       		.uleb128 0x3
 2598 003a 0E       		.uleb128 0xe
 2599 003b 3A       		.uleb128 0x3a
 2600 003c 0B       		.uleb128 0xb
 2601 003d 3B       		.uleb128 0x3b
 2602 003e 05       		.uleb128 0x5
 2603 003f 49       		.uleb128 0x49
 2604 0040 13       		.uleb128 0x13
 2605 0041 00       		.byte	0
 2606 0042 00       		.byte	0
 2607 0043 06       		.uleb128 0x6
 2608 0044 35       		.uleb128 0x35
 2609 0045 00       		.byte	0
 2610 0046 49       		.uleb128 0x49
 2611 0047 13       		.uleb128 0x13
 2612 0048 00       		.byte	0
 2613 0049 00       		.byte	0
 2614 004a 07       		.uleb128 0x7
 2615 004b 2E       		.uleb128 0x2e
 2616 004c 01       		.byte	0x1
 2617 004d 3F       		.uleb128 0x3f
 2618 004e 19       		.uleb128 0x19
 2619 004f 03       		.uleb128 0x3
 2620 0050 0E       		.uleb128 0xe
 2621 0051 3A       		.uleb128 0x3a
 2622 0052 0B       		.uleb128 0xb
 2623 0053 3B       		.uleb128 0x3b
 2624 0054 05       		.uleb128 0x5
 2625 0055 27       		.uleb128 0x27
 2626 0056 19       		.uleb128 0x19
 2627 0057 20       		.uleb128 0x20
 2628 0058 0B       		.uleb128 0xb
 2629 0059 01       		.uleb128 0x1
 2630 005a 13       		.uleb128 0x13
 2631 005b 00       		.byte	0
 2632 005c 00       		.byte	0
 2633 005d 08       		.uleb128 0x8
 2634 005e 05       		.uleb128 0x5
 2635 005f 00       		.byte	0
 2636 0060 03       		.uleb128 0x3
 2637 0061 0E       		.uleb128 0xe
 2638 0062 3A       		.uleb128 0x3a
 2639 0063 0B       		.uleb128 0xb
 2640 0064 3B       		.uleb128 0x3b
 2641 0065 05       		.uleb128 0x5
 2642 0066 49       		.uleb128 0x49
ARM GAS  C:\Users\syhaines\AppData\Local\Temp\ccsJlByc.s 			page 76


 2643 0067 13       		.uleb128 0x13
 2644 0068 00       		.byte	0
 2645 0069 00       		.byte	0
 2646 006a 09       		.uleb128 0x9
 2647 006b 2E       		.uleb128 0x2e
 2648 006c 01       		.byte	0x1
 2649 006d 3F       		.uleb128 0x3f
 2650 006e 19       		.uleb128 0x19
 2651 006f 03       		.uleb128 0x3
 2652 0070 0E       		.uleb128 0xe
 2653 0071 3A       		.uleb128 0x3a
 2654 0072 0B       		.uleb128 0xb
 2655 0073 3B       		.uleb128 0x3b
 2656 0074 0B       		.uleb128 0xb
 2657 0075 27       		.uleb128 0x27
 2658 0076 19       		.uleb128 0x19
 2659 0077 11       		.uleb128 0x11
 2660 0078 01       		.uleb128 0x1
 2661 0079 12       		.uleb128 0x12
 2662 007a 06       		.uleb128 0x6
 2663 007b 40       		.uleb128 0x40
 2664 007c 18       		.uleb128 0x18
 2665 007d 9742     		.uleb128 0x2117
 2666 007f 19       		.uleb128 0x19
 2667 0080 01       		.uleb128 0x1
 2668 0081 13       		.uleb128 0x13
 2669 0082 00       		.byte	0
 2670 0083 00       		.byte	0
 2671 0084 0A       		.uleb128 0xa
 2672 0085 1D       		.uleb128 0x1d
 2673 0086 01       		.byte	0x1
 2674 0087 31       		.uleb128 0x31
 2675 0088 13       		.uleb128 0x13
 2676 0089 52       		.uleb128 0x52
 2677 008a 01       		.uleb128 0x1
 2678 008b 55       		.uleb128 0x55
 2679 008c 17       		.uleb128 0x17
 2680 008d 58       		.uleb128 0x58
 2681 008e 0B       		.uleb128 0xb
 2682 008f 59       		.uleb128 0x59
 2683 0090 0B       		.uleb128 0xb
 2684 0091 01       		.uleb128 0x1
 2685 0092 13       		.uleb128 0x13
 2686 0093 00       		.byte	0
 2687 0094 00       		.byte	0
 2688 0095 0B       		.uleb128 0xb
 2689 0096 05       		.uleb128 0x5
 2690 0097 00       		.byte	0
 2691 0098 31       		.uleb128 0x31
 2692 0099 13       		.uleb128 0x13
 2693 009a 1C       		.uleb128 0x1c
 2694 009b 0B       		.uleb128 0xb
 2695 009c 00       		.byte	0
 2696 009d 00       		.byte	0
 2697 009e 0C       		.uleb128 0xc
 2698 009f 1D       		.uleb128 0x1d
 2699 00a0 01       		.byte	0x1
ARM GAS  C:\Users\syhaines\AppData\Local\Temp\ccsJlByc.s 			page 77


 2700 00a1 31       		.uleb128 0x31
 2701 00a2 13       		.uleb128 0x13
 2702 00a3 11       		.uleb128 0x11
 2703 00a4 01       		.uleb128 0x1
 2704 00a5 12       		.uleb128 0x12
 2705 00a6 06       		.uleb128 0x6
 2706 00a7 58       		.uleb128 0x58
 2707 00a8 0B       		.uleb128 0xb
 2708 00a9 59       		.uleb128 0x59
 2709 00aa 0B       		.uleb128 0xb
 2710 00ab 01       		.uleb128 0x1
 2711 00ac 13       		.uleb128 0x13
 2712 00ad 00       		.byte	0
 2713 00ae 00       		.byte	0
 2714 00af 0D       		.uleb128 0xd
 2715 00b0 05       		.uleb128 0x5
 2716 00b1 00       		.byte	0
 2717 00b2 31       		.uleb128 0x31
 2718 00b3 13       		.uleb128 0x13
 2719 00b4 1C       		.uleb128 0x1c
 2720 00b5 05       		.uleb128 0x5
 2721 00b6 00       		.byte	0
 2722 00b7 00       		.byte	0
 2723 00b8 0E       		.uleb128 0xe
 2724 00b9 1D       		.uleb128 0x1d
 2725 00ba 01       		.byte	0x1
 2726 00bb 31       		.uleb128 0x31
 2727 00bc 13       		.uleb128 0x13
 2728 00bd 11       		.uleb128 0x11
 2729 00be 01       		.uleb128 0x1
 2730 00bf 12       		.uleb128 0x12
 2731 00c0 06       		.uleb128 0x6
 2732 00c1 58       		.uleb128 0x58
 2733 00c2 0B       		.uleb128 0xb
 2734 00c3 59       		.uleb128 0x59
 2735 00c4 0B       		.uleb128 0xb
 2736 00c5 00       		.byte	0
 2737 00c6 00       		.byte	0
 2738 00c7 0F       		.uleb128 0xf
 2739 00c8 34       		.uleb128 0x34
 2740 00c9 00       		.byte	0
 2741 00ca 03       		.uleb128 0x3
 2742 00cb 0E       		.uleb128 0xe
 2743 00cc 3A       		.uleb128 0x3a
 2744 00cd 0B       		.uleb128 0xb
 2745 00ce 3B       		.uleb128 0x3b
 2746 00cf 0B       		.uleb128 0xb
 2747 00d0 49       		.uleb128 0x49
 2748 00d1 13       		.uleb128 0x13
 2749 00d2 02       		.uleb128 0x2
 2750 00d3 17       		.uleb128 0x17
 2751 00d4 00       		.byte	0
 2752 00d5 00       		.byte	0
 2753 00d6 10       		.uleb128 0x10
 2754 00d7 898201   		.uleb128 0x4109
 2755 00da 00       		.byte	0
 2756 00db 11       		.uleb128 0x11
ARM GAS  C:\Users\syhaines\AppData\Local\Temp\ccsJlByc.s 			page 78


 2757 00dc 01       		.uleb128 0x1
 2758 00dd 31       		.uleb128 0x31
 2759 00de 13       		.uleb128 0x13
 2760 00df 00       		.byte	0
 2761 00e0 00       		.byte	0
 2762 00e1 11       		.uleb128 0x11
 2763 00e2 2E       		.uleb128 0x2e
 2764 00e3 01       		.byte	0x1
 2765 00e4 3F       		.uleb128 0x3f
 2766 00e5 19       		.uleb128 0x19
 2767 00e6 03       		.uleb128 0x3
 2768 00e7 0E       		.uleb128 0xe
 2769 00e8 3A       		.uleb128 0x3a
 2770 00e9 0B       		.uleb128 0xb
 2771 00ea 3B       		.uleb128 0x3b
 2772 00eb 05       		.uleb128 0x5
 2773 00ec 27       		.uleb128 0x27
 2774 00ed 19       		.uleb128 0x19
 2775 00ee 11       		.uleb128 0x11
 2776 00ef 01       		.uleb128 0x1
 2777 00f0 12       		.uleb128 0x12
 2778 00f1 06       		.uleb128 0x6
 2779 00f2 40       		.uleb128 0x40
 2780 00f3 18       		.uleb128 0x18
 2781 00f4 9742     		.uleb128 0x2117
 2782 00f6 19       		.uleb128 0x19
 2783 00f7 01       		.uleb128 0x1
 2784 00f8 13       		.uleb128 0x13
 2785 00f9 00       		.byte	0
 2786 00fa 00       		.byte	0
 2787 00fb 12       		.uleb128 0x12
 2788 00fc 05       		.uleb128 0x5
 2789 00fd 00       		.byte	0
 2790 00fe 03       		.uleb128 0x3
 2791 00ff 0E       		.uleb128 0xe
 2792 0100 3A       		.uleb128 0x3a
 2793 0101 0B       		.uleb128 0xb
 2794 0102 3B       		.uleb128 0x3b
 2795 0103 05       		.uleb128 0x5
 2796 0104 49       		.uleb128 0x49
 2797 0105 13       		.uleb128 0x13
 2798 0106 02       		.uleb128 0x2
 2799 0107 17       		.uleb128 0x17
 2800 0108 00       		.byte	0
 2801 0109 00       		.byte	0
 2802 010a 13       		.uleb128 0x13
 2803 010b 34       		.uleb128 0x34
 2804 010c 00       		.byte	0
 2805 010d 03       		.uleb128 0x3
 2806 010e 0E       		.uleb128 0xe
 2807 010f 3A       		.uleb128 0x3a
 2808 0110 0B       		.uleb128 0xb
 2809 0111 3B       		.uleb128 0x3b
 2810 0112 05       		.uleb128 0x5
 2811 0113 49       		.uleb128 0x49
 2812 0114 13       		.uleb128 0x13
 2813 0115 02       		.uleb128 0x2
ARM GAS  C:\Users\syhaines\AppData\Local\Temp\ccsJlByc.s 			page 79


 2814 0116 17       		.uleb128 0x17
 2815 0117 00       		.byte	0
 2816 0118 00       		.byte	0
 2817 0119 14       		.uleb128 0x14
 2818 011a 2E       		.uleb128 0x2e
 2819 011b 01       		.byte	0x1
 2820 011c 31       		.uleb128 0x31
 2821 011d 13       		.uleb128 0x13
 2822 011e 11       		.uleb128 0x11
 2823 011f 01       		.uleb128 0x1
 2824 0120 12       		.uleb128 0x12
 2825 0121 06       		.uleb128 0x6
 2826 0122 40       		.uleb128 0x40
 2827 0123 18       		.uleb128 0x18
 2828 0124 9742     		.uleb128 0x2117
 2829 0126 19       		.uleb128 0x19
 2830 0127 01       		.uleb128 0x1
 2831 0128 13       		.uleb128 0x13
 2832 0129 00       		.byte	0
 2833 012a 00       		.byte	0
 2834 012b 15       		.uleb128 0x15
 2835 012c 05       		.uleb128 0x5
 2836 012d 00       		.byte	0
 2837 012e 31       		.uleb128 0x31
 2838 012f 13       		.uleb128 0x13
 2839 0130 02       		.uleb128 0x2
 2840 0131 17       		.uleb128 0x17
 2841 0132 00       		.byte	0
 2842 0133 00       		.byte	0
 2843 0134 16       		.uleb128 0x16
 2844 0135 2E       		.uleb128 0x2e
 2845 0136 00       		.byte	0
 2846 0137 3F       		.uleb128 0x3f
 2847 0138 19       		.uleb128 0x19
 2848 0139 03       		.uleb128 0x3
 2849 013a 0E       		.uleb128 0xe
 2850 013b 3A       		.uleb128 0x3a
 2851 013c 0B       		.uleb128 0xb
 2852 013d 3B       		.uleb128 0x3b
 2853 013e 05       		.uleb128 0x5
 2854 013f 27       		.uleb128 0x27
 2855 0140 19       		.uleb128 0x19
 2856 0141 49       		.uleb128 0x49
 2857 0142 13       		.uleb128 0x13
 2858 0143 11       		.uleb128 0x11
 2859 0144 01       		.uleb128 0x1
 2860 0145 12       		.uleb128 0x12
 2861 0146 06       		.uleb128 0x6
 2862 0147 40       		.uleb128 0x40
 2863 0148 18       		.uleb128 0x18
 2864 0149 9742     		.uleb128 0x2117
 2865 014b 19       		.uleb128 0x19
 2866 014c 00       		.byte	0
 2867 014d 00       		.byte	0
 2868 014e 17       		.uleb128 0x17
 2869 014f 898201   		.uleb128 0x4109
 2870 0152 01       		.byte	0x1
ARM GAS  C:\Users\syhaines\AppData\Local\Temp\ccsJlByc.s 			page 80


 2871 0153 11       		.uleb128 0x11
 2872 0154 01       		.uleb128 0x1
 2873 0155 31       		.uleb128 0x31
 2874 0156 13       		.uleb128 0x13
 2875 0157 00       		.byte	0
 2876 0158 00       		.byte	0
 2877 0159 18       		.uleb128 0x18
 2878 015a 8A8201   		.uleb128 0x410a
 2879 015d 00       		.byte	0
 2880 015e 02       		.uleb128 0x2
 2881 015f 18       		.uleb128 0x18
 2882 0160 9142     		.uleb128 0x2111
 2883 0162 18       		.uleb128 0x18
 2884 0163 00       		.byte	0
 2885 0164 00       		.byte	0
 2886 0165 19       		.uleb128 0x19
 2887 0166 05       		.uleb128 0x5
 2888 0167 00       		.byte	0
 2889 0168 31       		.uleb128 0x31
 2890 0169 13       		.uleb128 0x13
 2891 016a 02       		.uleb128 0x2
 2892 016b 18       		.uleb128 0x18
 2893 016c 00       		.byte	0
 2894 016d 00       		.byte	0
 2895 016e 1A       		.uleb128 0x1a
 2896 016f 05       		.uleb128 0x5
 2897 0170 00       		.byte	0
 2898 0171 03       		.uleb128 0x3
 2899 0172 0E       		.uleb128 0xe
 2900 0173 3A       		.uleb128 0x3a
 2901 0174 0B       		.uleb128 0xb
 2902 0175 3B       		.uleb128 0x3b
 2903 0176 05       		.uleb128 0x5
 2904 0177 49       		.uleb128 0x49
 2905 0178 13       		.uleb128 0x13
 2906 0179 02       		.uleb128 0x2
 2907 017a 18       		.uleb128 0x18
 2908 017b 00       		.byte	0
 2909 017c 00       		.byte	0
 2910 017d 1B       		.uleb128 0x1b
 2911 017e 34       		.uleb128 0x34
 2912 017f 00       		.byte	0
 2913 0180 03       		.uleb128 0x3
 2914 0181 0E       		.uleb128 0xe
 2915 0182 3A       		.uleb128 0x3a
 2916 0183 0B       		.uleb128 0xb
 2917 0184 3B       		.uleb128 0x3b
 2918 0185 0B       		.uleb128 0xb
 2919 0186 49       		.uleb128 0x49
 2920 0187 13       		.uleb128 0x13
 2921 0188 3F       		.uleb128 0x3f
 2922 0189 19       		.uleb128 0x19
 2923 018a 02       		.uleb128 0x2
 2924 018b 18       		.uleb128 0x18
 2925 018c 00       		.byte	0
 2926 018d 00       		.byte	0
 2927 018e 1C       		.uleb128 0x1c
ARM GAS  C:\Users\syhaines\AppData\Local\Temp\ccsJlByc.s 			page 81


 2928 018f 2E       		.uleb128 0x2e
 2929 0190 00       		.byte	0
 2930 0191 3F       		.uleb128 0x3f
 2931 0192 19       		.uleb128 0x19
 2932 0193 03       		.uleb128 0x3
 2933 0194 0E       		.uleb128 0xe
 2934 0195 3A       		.uleb128 0x3a
 2935 0196 0B       		.uleb128 0xb
 2936 0197 3B       		.uleb128 0x3b
 2937 0198 0B       		.uleb128 0xb
 2938 0199 27       		.uleb128 0x27
 2939 019a 19       		.uleb128 0x19
 2940 019b 49       		.uleb128 0x49
 2941 019c 13       		.uleb128 0x13
 2942 019d 3C       		.uleb128 0x3c
 2943 019e 19       		.uleb128 0x19
 2944 019f 00       		.byte	0
 2945 01a0 00       		.byte	0
 2946 01a1 1D       		.uleb128 0x1d
 2947 01a2 2E       		.uleb128 0x2e
 2948 01a3 01       		.byte	0x1
 2949 01a4 3F       		.uleb128 0x3f
 2950 01a5 19       		.uleb128 0x19
 2951 01a6 03       		.uleb128 0x3
 2952 01a7 0E       		.uleb128 0xe
 2953 01a8 3A       		.uleb128 0x3a
 2954 01a9 0B       		.uleb128 0xb
 2955 01aa 3B       		.uleb128 0x3b
 2956 01ab 0B       		.uleb128 0xb
 2957 01ac 27       		.uleb128 0x27
 2958 01ad 19       		.uleb128 0x19
 2959 01ae 3C       		.uleb128 0x3c
 2960 01af 19       		.uleb128 0x19
 2961 01b0 00       		.byte	0
 2962 01b1 00       		.byte	0
 2963 01b2 1E       		.uleb128 0x1e
 2964 01b3 05       		.uleb128 0x5
 2965 01b4 00       		.byte	0
 2966 01b5 49       		.uleb128 0x49
 2967 01b6 13       		.uleb128 0x13
 2968 01b7 00       		.byte	0
 2969 01b8 00       		.byte	0
 2970 01b9 00       		.byte	0
 2971              		.section	.debug_loc,"",%progbits
 2972              	.Ldebug_loc0:
 2973              	.LLST0:
 2974 0000 06000000 		.4byte	.LVL4
 2975 0004 13000000 		.4byte	.LVL5-1
 2976 0008 0100     		.2byte	0x1
 2977 000a 50       		.byte	0x50
 2978 000b 00000000 		.4byte	0
 2979 000f 00000000 		.4byte	0
 2980              	.LLST1:
 2981 0013 00000000 		.4byte	.LVL6
 2982 0017 07000000 		.4byte	.LVL7-1
 2983 001b 0100     		.2byte	0x1
 2984 001d 50       		.byte	0x50
ARM GAS  C:\Users\syhaines\AppData\Local\Temp\ccsJlByc.s 			page 82


 2985 001e 07000000 		.4byte	.LVL7-1
 2986 0022 1C000000 		.4byte	.LVL9
 2987 0026 0100     		.2byte	0x1
 2988 0028 54       		.byte	0x54
 2989 0029 1C000000 		.4byte	.LVL9
 2990 002d 28000000 		.4byte	.LFE4
 2991 0031 0400     		.2byte	0x4
 2992 0033 F3       		.byte	0xf3
 2993 0034 01       		.uleb128 0x1
 2994 0035 50       		.byte	0x50
 2995 0036 9F       		.byte	0x9f
 2996 0037 00000000 		.4byte	0
 2997 003b 00000000 		.4byte	0
 2998              	.LLST2:
 2999 003f 08000000 		.4byte	.LVL7
 3000 0043 1B000000 		.4byte	.LVL8-1
 3001 0047 0100     		.2byte	0x1
 3002 0049 50       		.byte	0x50
 3003 004a 00000000 		.4byte	0
 3004 004e 00000000 		.4byte	0
 3005              	.LLST3:
 3006 0052 00000000 		.4byte	.LVL10
 3007 0056 07000000 		.4byte	.LVL11-1
 3008 005a 0100     		.2byte	0x1
 3009 005c 50       		.byte	0x50
 3010 005d 07000000 		.4byte	.LVL11-1
 3011 0061 1C000000 		.4byte	.LVL13
 3012 0065 0100     		.2byte	0x1
 3013 0067 54       		.byte	0x54
 3014 0068 1C000000 		.4byte	.LVL13
 3015 006c 28000000 		.4byte	.LFE5
 3016 0070 0400     		.2byte	0x4
 3017 0072 F3       		.byte	0xf3
 3018 0073 01       		.uleb128 0x1
 3019 0074 50       		.byte	0x50
 3020 0075 9F       		.byte	0x9f
 3021 0076 00000000 		.4byte	0
 3022 007a 00000000 		.4byte	0
 3023              	.LLST4:
 3024 007e 08000000 		.4byte	.LVL11
 3025 0082 1B000000 		.4byte	.LVL12-1
 3026 0086 0100     		.2byte	0x1
 3027 0088 50       		.byte	0x50
 3028 0089 00000000 		.4byte	0
 3029 008d 00000000 		.4byte	0
 3030              	.LLST5:
 3031 0091 00000000 		.4byte	.LVL14
 3032 0095 07000000 		.4byte	.LVL15-1
 3033 0099 0100     		.2byte	0x1
 3034 009b 50       		.byte	0x50
 3035 009c 07000000 		.4byte	.LVL15-1
 3036 00a0 1C000000 		.4byte	.LVL17
 3037 00a4 0100     		.2byte	0x1
 3038 00a6 54       		.byte	0x54
 3039 00a7 1C000000 		.4byte	.LVL17
 3040 00ab 28000000 		.4byte	.LFE6
 3041 00af 0400     		.2byte	0x4
ARM GAS  C:\Users\syhaines\AppData\Local\Temp\ccsJlByc.s 			page 83


 3042 00b1 F3       		.byte	0xf3
 3043 00b2 01       		.uleb128 0x1
 3044 00b3 50       		.byte	0x50
 3045 00b4 9F       		.byte	0x9f
 3046 00b5 00000000 		.4byte	0
 3047 00b9 00000000 		.4byte	0
 3048              	.LLST6:
 3049 00bd 08000000 		.4byte	.LVL15
 3050 00c1 1B000000 		.4byte	.LVL16-1
 3051 00c5 0100     		.2byte	0x1
 3052 00c7 50       		.byte	0x50
 3053 00c8 00000000 		.4byte	0
 3054 00cc 00000000 		.4byte	0
 3055              	.LLST7:
 3056 00d0 00000000 		.4byte	.LVL18
 3057 00d4 07000000 		.4byte	.LVL19-1
 3058 00d8 0100     		.2byte	0x1
 3059 00da 50       		.byte	0x50
 3060 00db 07000000 		.4byte	.LVL19-1
 3061 00df 22000000 		.4byte	.LVL21
 3062 00e3 0100     		.2byte	0x1
 3063 00e5 54       		.byte	0x54
 3064 00e6 22000000 		.4byte	.LVL21
 3065 00ea 2C000000 		.4byte	.LFE7
 3066 00ee 0400     		.2byte	0x4
 3067 00f0 F3       		.byte	0xf3
 3068 00f1 01       		.uleb128 0x1
 3069 00f2 50       		.byte	0x50
 3070 00f3 9F       		.byte	0x9f
 3071 00f4 00000000 		.4byte	0
 3072 00f8 00000000 		.4byte	0
 3073              	.LLST8:
 3074 00fc 08000000 		.4byte	.LVL19
 3075 0100 21000000 		.4byte	.LVL20-1
 3076 0104 0100     		.2byte	0x1
 3077 0106 50       		.byte	0x50
 3078 0107 00000000 		.4byte	0
 3079 010b 00000000 		.4byte	0
 3080              	.LLST9:
 3081 010f 00000000 		.4byte	.LVL22
 3082 0113 04000000 		.4byte	.LVL23
 3083 0117 0100     		.2byte	0x1
 3084 0119 50       		.byte	0x50
 3085 011a 04000000 		.4byte	.LVL23
 3086 011e 10000000 		.4byte	.LFE8
 3087 0122 0400     		.2byte	0x4
 3088 0124 F3       		.byte	0xf3
 3089 0125 01       		.uleb128 0x1
 3090 0126 50       		.byte	0x50
 3091 0127 9F       		.byte	0x9f
 3092 0128 00000000 		.4byte	0
 3093 012c 00000000 		.4byte	0
 3094              	.LLST10:
 3095 0130 00000000 		.4byte	.LVL24
 3096 0134 07000000 		.4byte	.LVL25-1
 3097 0138 0100     		.2byte	0x1
 3098 013a 50       		.byte	0x50
ARM GAS  C:\Users\syhaines\AppData\Local\Temp\ccsJlByc.s 			page 84


 3099 013b 07000000 		.4byte	.LVL25-1
 3100 013f 22000000 		.4byte	.LVL27
 3101 0143 0100     		.2byte	0x1
 3102 0145 54       		.byte	0x54
 3103 0146 22000000 		.4byte	.LVL27
 3104 014a 28000000 		.4byte	.LFE9
 3105 014e 0400     		.2byte	0x4
 3106 0150 F3       		.byte	0xf3
 3107 0151 01       		.uleb128 0x1
 3108 0152 50       		.byte	0x50
 3109 0153 9F       		.byte	0x9f
 3110 0154 00000000 		.4byte	0
 3111 0158 00000000 		.4byte	0
 3112              	.LLST11:
 3113 015c 08000000 		.4byte	.LVL25
 3114 0160 21000000 		.4byte	.LVL26-1
 3115 0164 0100     		.2byte	0x1
 3116 0166 50       		.byte	0x50
 3117 0167 00000000 		.4byte	0
 3118 016b 00000000 		.4byte	0
 3119              	.LLST12:
 3120 016f 00000000 		.4byte	.LVL28
 3121 0173 07000000 		.4byte	.LVL29-1
 3122 0177 0100     		.2byte	0x1
 3123 0179 50       		.byte	0x50
 3124 017a 07000000 		.4byte	.LVL29-1
 3125 017e 22000000 		.4byte	.LVL31
 3126 0182 0100     		.2byte	0x1
 3127 0184 54       		.byte	0x54
 3128 0185 22000000 		.4byte	.LVL31
 3129 0189 28000000 		.4byte	.LFE10
 3130 018d 0400     		.2byte	0x4
 3131 018f F3       		.byte	0xf3
 3132 0190 01       		.uleb128 0x1
 3133 0191 50       		.byte	0x50
 3134 0192 9F       		.byte	0x9f
 3135 0193 00000000 		.4byte	0
 3136 0197 00000000 		.4byte	0
 3137              	.LLST13:
 3138 019b 08000000 		.4byte	.LVL29
 3139 019f 21000000 		.4byte	.LVL30-1
 3140 01a3 0100     		.2byte	0x1
 3141 01a5 50       		.byte	0x50
 3142 01a6 00000000 		.4byte	0
 3143 01aa 00000000 		.4byte	0
 3144              	.LLST14:
 3145 01ae 00000000 		.4byte	.LVL32
 3146 01b2 07000000 		.4byte	.LVL33-1
 3147 01b6 0100     		.2byte	0x1
 3148 01b8 50       		.byte	0x50
 3149 01b9 07000000 		.4byte	.LVL33-1
 3150 01bd 10000000 		.4byte	.LVL34
 3151 01c1 0100     		.2byte	0x1
 3152 01c3 54       		.byte	0x54
 3153 01c4 10000000 		.4byte	.LVL34
 3154 01c8 2C000000 		.4byte	.LFE11
 3155 01cc 0400     		.2byte	0x4
ARM GAS  C:\Users\syhaines\AppData\Local\Temp\ccsJlByc.s 			page 85


 3156 01ce F3       		.byte	0xf3
 3157 01cf 01       		.uleb128 0x1
 3158 01d0 50       		.byte	0x50
 3159 01d1 9F       		.byte	0x9f
 3160 01d2 00000000 		.4byte	0
 3161 01d6 00000000 		.4byte	0
 3162              	.LLST15:
 3163 01da 08000000 		.4byte	.LVL33
 3164 01de 1F000000 		.4byte	.LVL35-1
 3165 01e2 0100     		.2byte	0x1
 3166 01e4 50       		.byte	0x50
 3167 01e5 00000000 		.4byte	0
 3168 01e9 00000000 		.4byte	0
 3169              	.LLST16:
 3170 01ed 00000000 		.4byte	.LVL36
 3171 01f1 07000000 		.4byte	.LVL37-1
 3172 01f5 0100     		.2byte	0x1
 3173 01f7 50       		.byte	0x50
 3174 01f8 07000000 		.4byte	.LVL37-1
 3175 01fc 1C000000 		.4byte	.LVL39
 3176 0200 0100     		.2byte	0x1
 3177 0202 54       		.byte	0x54
 3178 0203 1C000000 		.4byte	.LVL39
 3179 0207 28000000 		.4byte	.LFE12
 3180 020b 0400     		.2byte	0x4
 3181 020d F3       		.byte	0xf3
 3182 020e 01       		.uleb128 0x1
 3183 020f 50       		.byte	0x50
 3184 0210 9F       		.byte	0x9f
 3185 0211 00000000 		.4byte	0
 3186 0215 00000000 		.4byte	0
 3187              	.LLST17:
 3188 0219 08000000 		.4byte	.LVL37
 3189 021d 1B000000 		.4byte	.LVL38-1
 3190 0221 0100     		.2byte	0x1
 3191 0223 50       		.byte	0x50
 3192 0224 00000000 		.4byte	0
 3193 0228 00000000 		.4byte	0
 3194              	.LLST18:
 3195 022c 00000000 		.4byte	.LVL40
 3196 0230 04000000 		.4byte	.LVL41
 3197 0234 0100     		.2byte	0x1
 3198 0236 50       		.byte	0x50
 3199 0237 04000000 		.4byte	.LVL41
 3200 023b 0C000000 		.4byte	.LFE13
 3201 023f 0400     		.2byte	0x4
 3202 0241 F3       		.byte	0xf3
 3203 0242 01       		.uleb128 0x1
 3204 0243 50       		.byte	0x50
 3205 0244 9F       		.byte	0x9f
 3206 0245 00000000 		.4byte	0
 3207 0249 00000000 		.4byte	0
 3208              	.LLST19:
 3209 024d 00000000 		.4byte	.LVL42
 3210 0251 07000000 		.4byte	.LVL43-1
 3211 0255 0100     		.2byte	0x1
 3212 0257 50       		.byte	0x50
ARM GAS  C:\Users\syhaines\AppData\Local\Temp\ccsJlByc.s 			page 86


 3213 0258 07000000 		.4byte	.LVL43-1
 3214 025c 1C000000 		.4byte	.LVL45
 3215 0260 0100     		.2byte	0x1
 3216 0262 54       		.byte	0x54
 3217 0263 1C000000 		.4byte	.LVL45
 3218 0267 28000000 		.4byte	.LFE15
 3219 026b 0400     		.2byte	0x4
 3220 026d F3       		.byte	0xf3
 3221 026e 01       		.uleb128 0x1
 3222 026f 50       		.byte	0x50
 3223 0270 9F       		.byte	0x9f
 3224 0271 00000000 		.4byte	0
 3225 0275 00000000 		.4byte	0
 3226              	.LLST20:
 3227 0279 08000000 		.4byte	.LVL43
 3228 027d 1B000000 		.4byte	.LVL44-1
 3229 0281 0100     		.2byte	0x1
 3230 0283 50       		.byte	0x50
 3231 0284 00000000 		.4byte	0
 3232 0288 00000000 		.4byte	0
 3233              	.LLST21:
 3234 028c 00000000 		.4byte	.LVL46
 3235 0290 04000000 		.4byte	.LVL47
 3236 0294 0100     		.2byte	0x1
 3237 0296 50       		.byte	0x50
 3238 0297 04000000 		.4byte	.LVL47
 3239 029b 0C000000 		.4byte	.LFE16
 3240 029f 0400     		.2byte	0x4
 3241 02a1 F3       		.byte	0xf3
 3242 02a2 01       		.uleb128 0x1
 3243 02a3 50       		.byte	0x50
 3244 02a4 9F       		.byte	0x9f
 3245 02a5 00000000 		.4byte	0
 3246 02a9 00000000 		.4byte	0
 3247              	.LLST22:
 3248 02ad 00000000 		.4byte	.LVL48
 3249 02b1 07000000 		.4byte	.LVL49-1
 3250 02b5 0100     		.2byte	0x1
 3251 02b7 50       		.byte	0x50
 3252 02b8 07000000 		.4byte	.LVL49-1
 3253 02bc 1E000000 		.4byte	.LVL51
 3254 02c0 0100     		.2byte	0x1
 3255 02c2 54       		.byte	0x54
 3256 02c3 1E000000 		.4byte	.LVL51
 3257 02c7 24000000 		.4byte	.LFE18
 3258 02cb 0400     		.2byte	0x4
 3259 02cd F3       		.byte	0xf3
 3260 02ce 01       		.uleb128 0x1
 3261 02cf 50       		.byte	0x50
 3262 02d0 9F       		.byte	0x9f
 3263 02d1 00000000 		.4byte	0
 3264 02d5 00000000 		.4byte	0
 3265              	.LLST23:
 3266 02d9 08000000 		.4byte	.LVL49
 3267 02dd 1D000000 		.4byte	.LVL50-1
 3268 02e1 0100     		.2byte	0x1
 3269 02e3 50       		.byte	0x50
ARM GAS  C:\Users\syhaines\AppData\Local\Temp\ccsJlByc.s 			page 87


 3270 02e4 00000000 		.4byte	0
 3271 02e8 00000000 		.4byte	0
 3272              	.LLST24:
 3273 02ec 00000000 		.4byte	.LVL52
 3274 02f0 04000000 		.4byte	.LVL53
 3275 02f4 0100     		.2byte	0x1
 3276 02f6 50       		.byte	0x50
 3277 02f7 04000000 		.4byte	.LVL53
 3278 02fb 0C000000 		.4byte	.LFE19
 3279 02ff 0400     		.2byte	0x4
 3280 0301 F3       		.byte	0xf3
 3281 0302 01       		.uleb128 0x1
 3282 0303 50       		.byte	0x50
 3283 0304 9F       		.byte	0x9f
 3284 0305 00000000 		.4byte	0
 3285 0309 00000000 		.4byte	0
 3286              	.LLST25:
 3287 030d 00000000 		.4byte	.LVL54
 3288 0311 07000000 		.4byte	.LVL55-1
 3289 0315 0100     		.2byte	0x1
 3290 0317 50       		.byte	0x50
 3291 0318 07000000 		.4byte	.LVL55-1
 3292 031c 22000000 		.4byte	.LVL57
 3293 0320 0100     		.2byte	0x1
 3294 0322 54       		.byte	0x54
 3295 0323 22000000 		.4byte	.LVL57
 3296 0327 28000000 		.4byte	.LFE21
 3297 032b 0400     		.2byte	0x4
 3298 032d F3       		.byte	0xf3
 3299 032e 01       		.uleb128 0x1
 3300 032f 50       		.byte	0x50
 3301 0330 9F       		.byte	0x9f
 3302 0331 00000000 		.4byte	0
 3303 0335 00000000 		.4byte	0
 3304              	.LLST26:
 3305 0339 08000000 		.4byte	.LVL55
 3306 033d 21000000 		.4byte	.LVL56-1
 3307 0341 0100     		.2byte	0x1
 3308 0343 50       		.byte	0x50
 3309 0344 00000000 		.4byte	0
 3310 0348 00000000 		.4byte	0
 3311              	.LLST27:
 3312 034c 00000000 		.4byte	.LVL58
 3313 0350 04000000 		.4byte	.LVL59
 3314 0354 0100     		.2byte	0x1
 3315 0356 50       		.byte	0x50
 3316 0357 04000000 		.4byte	.LVL59
 3317 035b 0C000000 		.4byte	.LFE22
 3318 035f 0400     		.2byte	0x4
 3319 0361 F3       		.byte	0xf3
 3320 0362 01       		.uleb128 0x1
 3321 0363 50       		.byte	0x50
 3322 0364 9F       		.byte	0x9f
 3323 0365 00000000 		.4byte	0
 3324 0369 00000000 		.4byte	0
 3325              	.LLST28:
 3326 036d 00000000 		.4byte	.LVL60
ARM GAS  C:\Users\syhaines\AppData\Local\Temp\ccsJlByc.s 			page 88


 3327 0371 04000000 		.4byte	.LVL61
 3328 0375 0100     		.2byte	0x1
 3329 0377 50       		.byte	0x50
 3330 0378 04000000 		.4byte	.LVL61
 3331 037c 0C000000 		.4byte	.LFE24
 3332 0380 0400     		.2byte	0x4
 3333 0382 F3       		.byte	0xf3
 3334 0383 01       		.uleb128 0x1
 3335 0384 50       		.byte	0x50
 3336 0385 9F       		.byte	0x9f
 3337 0386 00000000 		.4byte	0
 3338 038a 00000000 		.4byte	0
 3339              	.LLST29:
 3340 038e 00000000 		.4byte	.LVL62
 3341 0392 07000000 		.4byte	.LVL63-1
 3342 0396 0100     		.2byte	0x1
 3343 0398 50       		.byte	0x50
 3344 0399 07000000 		.4byte	.LVL63-1
 3345 039d 1C000000 		.4byte	.LVL65
 3346 03a1 0100     		.2byte	0x1
 3347 03a3 54       		.byte	0x54
 3348 03a4 1C000000 		.4byte	.LVL65
 3349 03a8 24000000 		.4byte	.LFE28
 3350 03ac 0400     		.2byte	0x4
 3351 03ae F3       		.byte	0xf3
 3352 03af 01       		.uleb128 0x1
 3353 03b0 50       		.byte	0x50
 3354 03b1 9F       		.byte	0x9f
 3355 03b2 00000000 		.4byte	0
 3356 03b6 00000000 		.4byte	0
 3357              	.LLST30:
 3358 03ba 08000000 		.4byte	.LVL63
 3359 03be 1B000000 		.4byte	.LVL64-1
 3360 03c2 0100     		.2byte	0x1
 3361 03c4 50       		.byte	0x50
 3362 03c5 00000000 		.4byte	0
 3363 03c9 00000000 		.4byte	0
 3364              	.LLST31:
 3365 03cd 00000000 		.4byte	.LVL66
 3366 03d1 07000000 		.4byte	.LVL67-1
 3367 03d5 0100     		.2byte	0x1
 3368 03d7 50       		.byte	0x50
 3369 03d8 07000000 		.4byte	.LVL67-1
 3370 03dc 1E000000 		.4byte	.LVL69
 3371 03e0 0100     		.2byte	0x1
 3372 03e2 54       		.byte	0x54
 3373 03e3 1E000000 		.4byte	.LVL69
 3374 03e7 24000000 		.4byte	.LFE29
 3375 03eb 0400     		.2byte	0x4
 3376 03ed F3       		.byte	0xf3
 3377 03ee 01       		.uleb128 0x1
 3378 03ef 50       		.byte	0x50
 3379 03f0 9F       		.byte	0x9f
 3380 03f1 00000000 		.4byte	0
 3381 03f5 00000000 		.4byte	0
 3382              	.LLST32:
 3383 03f9 08000000 		.4byte	.LVL67
ARM GAS  C:\Users\syhaines\AppData\Local\Temp\ccsJlByc.s 			page 89


 3384 03fd 1D000000 		.4byte	.LVL68-1
 3385 0401 0100     		.2byte	0x1
 3386 0403 50       		.byte	0x50
 3387 0404 00000000 		.4byte	0
 3388 0408 00000000 		.4byte	0
 3389              	.LLST33:
 3390 040c 00000000 		.4byte	.LVL70
 3391 0410 07000000 		.4byte	.LVL71-1
 3392 0414 0100     		.2byte	0x1
 3393 0416 50       		.byte	0x50
 3394 0417 07000000 		.4byte	.LVL71-1
 3395 041b 1E000000 		.4byte	.LVL73
 3396 041f 0100     		.2byte	0x1
 3397 0421 54       		.byte	0x54
 3398 0422 1E000000 		.4byte	.LVL73
 3399 0426 28000000 		.4byte	.LFE30
 3400 042a 0400     		.2byte	0x4
 3401 042c F3       		.byte	0xf3
 3402 042d 01       		.uleb128 0x1
 3403 042e 50       		.byte	0x50
 3404 042f 9F       		.byte	0x9f
 3405 0430 00000000 		.4byte	0
 3406 0434 00000000 		.4byte	0
 3407              	.LLST34:
 3408 0438 08000000 		.4byte	.LVL71
 3409 043c 1D000000 		.4byte	.LVL72-1
 3410 0440 0100     		.2byte	0x1
 3411 0442 50       		.byte	0x50
 3412 0443 00000000 		.4byte	0
 3413 0447 00000000 		.4byte	0
 3414              	.LLST35:
 3415 044b 00000000 		.4byte	.LVL74
 3416 044f 07000000 		.4byte	.LVL75-1
 3417 0453 0100     		.2byte	0x1
 3418 0455 50       		.byte	0x50
 3419 0456 07000000 		.4byte	.LVL75-1
 3420 045a 1E000000 		.4byte	.LVL77
 3421 045e 0100     		.2byte	0x1
 3422 0460 54       		.byte	0x54
 3423 0461 1E000000 		.4byte	.LVL77
 3424 0465 24000000 		.4byte	.LFE31
 3425 0469 0400     		.2byte	0x4
 3426 046b F3       		.byte	0xf3
 3427 046c 01       		.uleb128 0x1
 3428 046d 50       		.byte	0x50
 3429 046e 9F       		.byte	0x9f
 3430 046f 00000000 		.4byte	0
 3431 0473 00000000 		.4byte	0
 3432              	.LLST36:
 3433 0477 08000000 		.4byte	.LVL75
 3434 047b 1D000000 		.4byte	.LVL76-1
 3435 047f 0100     		.2byte	0x1
 3436 0481 50       		.byte	0x50
 3437 0482 00000000 		.4byte	0
 3438 0486 00000000 		.4byte	0
 3439              	.LLST37:
 3440 048a 00000000 		.4byte	.LVL78
ARM GAS  C:\Users\syhaines\AppData\Local\Temp\ccsJlByc.s 			page 90


 3441 048e 07000000 		.4byte	.LVL79-1
 3442 0492 0100     		.2byte	0x1
 3443 0494 50       		.byte	0x50
 3444 0495 07000000 		.4byte	.LVL79-1
 3445 0499 1E000000 		.4byte	.LVL81
 3446 049d 0100     		.2byte	0x1
 3447 049f 54       		.byte	0x54
 3448 04a0 1E000000 		.4byte	.LVL81
 3449 04a4 24000000 		.4byte	.LFE32
 3450 04a8 0400     		.2byte	0x4
 3451 04aa F3       		.byte	0xf3
 3452 04ab 01       		.uleb128 0x1
 3453 04ac 50       		.byte	0x50
 3454 04ad 9F       		.byte	0x9f
 3455 04ae 00000000 		.4byte	0
 3456 04b2 00000000 		.4byte	0
 3457              	.LLST38:
 3458 04b6 08000000 		.4byte	.LVL79
 3459 04ba 1D000000 		.4byte	.LVL80-1
 3460 04be 0100     		.2byte	0x1
 3461 04c0 50       		.byte	0x50
 3462 04c1 00000000 		.4byte	0
 3463 04c5 00000000 		.4byte	0
 3464              	.LLST39:
 3465 04c9 00000000 		.4byte	.LVL82
 3466 04cd 0B000000 		.4byte	.LVL83-1
 3467 04d1 0100     		.2byte	0x1
 3468 04d3 50       		.byte	0x50
 3469 04d4 0B000000 		.4byte	.LVL83-1
 3470 04d8 1C000000 		.4byte	.LFE33
 3471 04dc 0400     		.2byte	0x4
 3472 04de F3       		.byte	0xf3
 3473 04df 01       		.uleb128 0x1
 3474 04e0 50       		.byte	0x50
 3475 04e1 9F       		.byte	0x9f
 3476 04e2 00000000 		.4byte	0
 3477 04e6 00000000 		.4byte	0
 3478              	.LLST40:
 3479 04ea 00000000 		.4byte	.LVL82
 3480 04ee 0B000000 		.4byte	.LVL83-1
 3481 04f2 0100     		.2byte	0x1
 3482 04f4 51       		.byte	0x51
 3483 04f5 0B000000 		.4byte	.LVL83-1
 3484 04f9 14000000 		.4byte	.LVL85
 3485 04fd 0100     		.2byte	0x1
 3486 04ff 55       		.byte	0x55
 3487 0500 14000000 		.4byte	.LVL85
 3488 0504 1C000000 		.4byte	.LFE33
 3489 0508 0400     		.2byte	0x4
 3490 050a F3       		.byte	0xf3
 3491 050b 01       		.uleb128 0x1
 3492 050c 51       		.byte	0x51
 3493 050d 9F       		.byte	0x9f
 3494 050e 00000000 		.4byte	0
 3495 0512 00000000 		.4byte	0
 3496              	.LLST41:
 3497 0516 0C000000 		.4byte	.LVL83
ARM GAS  C:\Users\syhaines\AppData\Local\Temp\ccsJlByc.s 			page 91


 3498 051a 13000000 		.4byte	.LVL84-1
 3499 051e 0100     		.2byte	0x1
 3500 0520 50       		.byte	0x50
 3501 0521 00000000 		.4byte	0
 3502 0525 00000000 		.4byte	0
 3503              	.LLST42:
 3504 0529 08000000 		.4byte	.LVL86
 3505 052d 13000000 		.4byte	.LVL87-1
 3506 0531 0100     		.2byte	0x1
 3507 0533 50       		.byte	0x50
 3508 0534 00000000 		.4byte	0
 3509 0538 00000000 		.4byte	0
 3510              		.section	.debug_aranges,"",%progbits
 3511 0000 54010000 		.4byte	0x154
 3512 0004 0200     		.2byte	0x2
 3513 0006 00000000 		.4byte	.Ldebug_info0
 3514 000a 04       		.byte	0x4
 3515 000b 00       		.byte	0
 3516 000c 0000     		.2byte	0
 3517 000e 0000     		.2byte	0
 3518 0010 00000000 		.4byte	.LFB0
 3519 0014 5C000000 		.4byte	.LFE0-.LFB0
 3520 0018 00000000 		.4byte	.LFB3
 3521 001c 1C000000 		.4byte	.LFE3-.LFB3
 3522 0020 00000000 		.4byte	.LFB4
 3523 0024 28000000 		.4byte	.LFE4-.LFB4
 3524 0028 00000000 		.4byte	.LFB5
 3525 002c 28000000 		.4byte	.LFE5-.LFB5
 3526 0030 00000000 		.4byte	.LFB6
 3527 0034 28000000 		.4byte	.LFE6-.LFB6
 3528 0038 00000000 		.4byte	.LFB7
 3529 003c 2C000000 		.4byte	.LFE7-.LFB7
 3530 0040 00000000 		.4byte	.LFB8
 3531 0044 10000000 		.4byte	.LFE8-.LFB8
 3532 0048 00000000 		.4byte	.LFB9
 3533 004c 28000000 		.4byte	.LFE9-.LFB9
 3534 0050 00000000 		.4byte	.LFB10
 3535 0054 28000000 		.4byte	.LFE10-.LFB10
 3536 0058 00000000 		.4byte	.LFB11
 3537 005c 2C000000 		.4byte	.LFE11-.LFB11
 3538 0060 00000000 		.4byte	.LFB12
 3539 0064 28000000 		.4byte	.LFE12-.LFB12
 3540 0068 00000000 		.4byte	.LFB13
 3541 006c 0C000000 		.4byte	.LFE13-.LFB13
 3542 0070 00000000 		.4byte	.LFB14
 3543 0074 0C000000 		.4byte	.LFE14-.LFB14
 3544 0078 00000000 		.4byte	.LFB15
 3545 007c 28000000 		.4byte	.LFE15-.LFB15
 3546 0080 00000000 		.4byte	.LFB16
 3547 0084 0C000000 		.4byte	.LFE16-.LFB16
 3548 0088 00000000 		.4byte	.LFB17
 3549 008c 0C000000 		.4byte	.LFE17-.LFB17
 3550 0090 00000000 		.4byte	.LFB18
 3551 0094 24000000 		.4byte	.LFE18-.LFB18
 3552 0098 00000000 		.4byte	.LFB19
 3553 009c 0C000000 		.4byte	.LFE19-.LFB19
 3554 00a0 00000000 		.4byte	.LFB20
ARM GAS  C:\Users\syhaines\AppData\Local\Temp\ccsJlByc.s 			page 92


 3555 00a4 0C000000 		.4byte	.LFE20-.LFB20
 3556 00a8 00000000 		.4byte	.LFB21
 3557 00ac 28000000 		.4byte	.LFE21-.LFB21
 3558 00b0 00000000 		.4byte	.LFB22
 3559 00b4 0C000000 		.4byte	.LFE22-.LFB22
 3560 00b8 00000000 		.4byte	.LFB23
 3561 00bc 0C000000 		.4byte	.LFE23-.LFB23
 3562 00c0 00000000 		.4byte	.LFB24
 3563 00c4 0C000000 		.4byte	.LFE24-.LFB24
 3564 00c8 00000000 		.4byte	.LFB25
 3565 00cc 0C000000 		.4byte	.LFE25-.LFB25
 3566 00d0 00000000 		.4byte	.LFB26
 3567 00d4 0C000000 		.4byte	.LFE26-.LFB26
 3568 00d8 00000000 		.4byte	.LFB27
 3569 00dc 0C000000 		.4byte	.LFE27-.LFB27
 3570 00e0 00000000 		.4byte	.LFB28
 3571 00e4 24000000 		.4byte	.LFE28-.LFB28
 3572 00e8 00000000 		.4byte	.LFB29
 3573 00ec 24000000 		.4byte	.LFE29-.LFB29
 3574 00f0 00000000 		.4byte	.LFB30
 3575 00f4 28000000 		.4byte	.LFE30-.LFB30
 3576 00f8 00000000 		.4byte	.LFB31
 3577 00fc 24000000 		.4byte	.LFE31-.LFB31
 3578 0100 00000000 		.4byte	.LFB32
 3579 0104 24000000 		.4byte	.LFE32-.LFB32
 3580 0108 00000000 		.4byte	.LFB33
 3581 010c 1C000000 		.4byte	.LFE33-.LFB33
 3582 0110 00000000 		.4byte	.LFB1
 3583 0114 24000000 		.4byte	.LFE1-.LFB1
 3584 0118 00000000 		.4byte	.LFB2
 3585 011c 1C000000 		.4byte	.LFE2-.LFB2
 3586 0120 00000000 		.4byte	.LFB34
 3587 0124 14000000 		.4byte	.LFE34-.LFB34
 3588 0128 00000000 		.4byte	.LFB35
 3589 012c 0C000000 		.4byte	.LFE35-.LFB35
 3590 0130 00000000 		.4byte	.LFB36
 3591 0134 0C000000 		.4byte	.LFE36-.LFB36
 3592 0138 00000000 		.4byte	.LFB37
 3593 013c 0C000000 		.4byte	.LFE37-.LFB37
 3594 0140 00000000 		.4byte	.LFB38
 3595 0144 0C000000 		.4byte	.LFE38-.LFB38
 3596 0148 00000000 		.4byte	.LFB39
 3597 014c 0C000000 		.4byte	.LFE39-.LFB39
 3598 0150 00000000 		.4byte	0
 3599 0154 00000000 		.4byte	0
 3600              		.section	.debug_ranges,"",%progbits
 3601              	.Ldebug_ranges0:
 3602 0000 0E000000 		.4byte	.LBB10
 3603 0004 10000000 		.4byte	.LBE10
 3604 0008 12000000 		.4byte	.LBB13
 3605 000c 16000000 		.4byte	.LBE13
 3606 0010 00000000 		.4byte	0
 3607 0014 00000000 		.4byte	0
 3608 0018 00000000 		.4byte	.LFB0
 3609 001c 5C000000 		.4byte	.LFE0
 3610 0020 00000000 		.4byte	.LFB3
 3611 0024 1C000000 		.4byte	.LFE3
ARM GAS  C:\Users\syhaines\AppData\Local\Temp\ccsJlByc.s 			page 93


 3612 0028 00000000 		.4byte	.LFB4
 3613 002c 28000000 		.4byte	.LFE4
 3614 0030 00000000 		.4byte	.LFB5
 3615 0034 28000000 		.4byte	.LFE5
 3616 0038 00000000 		.4byte	.LFB6
 3617 003c 28000000 		.4byte	.LFE6
 3618 0040 00000000 		.4byte	.LFB7
 3619 0044 2C000000 		.4byte	.LFE7
 3620 0048 00000000 		.4byte	.LFB8
 3621 004c 10000000 		.4byte	.LFE8
 3622 0050 00000000 		.4byte	.LFB9
 3623 0054 28000000 		.4byte	.LFE9
 3624 0058 00000000 		.4byte	.LFB10
 3625 005c 28000000 		.4byte	.LFE10
 3626 0060 00000000 		.4byte	.LFB11
 3627 0064 2C000000 		.4byte	.LFE11
 3628 0068 00000000 		.4byte	.LFB12
 3629 006c 28000000 		.4byte	.LFE12
 3630 0070 00000000 		.4byte	.LFB13
 3631 0074 0C000000 		.4byte	.LFE13
 3632 0078 00000000 		.4byte	.LFB14
 3633 007c 0C000000 		.4byte	.LFE14
 3634 0080 00000000 		.4byte	.LFB15
 3635 0084 28000000 		.4byte	.LFE15
 3636 0088 00000000 		.4byte	.LFB16
 3637 008c 0C000000 		.4byte	.LFE16
 3638 0090 00000000 		.4byte	.LFB17
 3639 0094 0C000000 		.4byte	.LFE17
 3640 0098 00000000 		.4byte	.LFB18
 3641 009c 24000000 		.4byte	.LFE18
 3642 00a0 00000000 		.4byte	.LFB19
 3643 00a4 0C000000 		.4byte	.LFE19
 3644 00a8 00000000 		.4byte	.LFB20
 3645 00ac 0C000000 		.4byte	.LFE20
 3646 00b0 00000000 		.4byte	.LFB21
 3647 00b4 28000000 		.4byte	.LFE21
 3648 00b8 00000000 		.4byte	.LFB22
 3649 00bc 0C000000 		.4byte	.LFE22
 3650 00c0 00000000 		.4byte	.LFB23
 3651 00c4 0C000000 		.4byte	.LFE23
 3652 00c8 00000000 		.4byte	.LFB24
 3653 00cc 0C000000 		.4byte	.LFE24
 3654 00d0 00000000 		.4byte	.LFB25
 3655 00d4 0C000000 		.4byte	.LFE25
 3656 00d8 00000000 		.4byte	.LFB26
 3657 00dc 0C000000 		.4byte	.LFE26
 3658 00e0 00000000 		.4byte	.LFB27
 3659 00e4 0C000000 		.4byte	.LFE27
 3660 00e8 00000000 		.4byte	.LFB28
 3661 00ec 24000000 		.4byte	.LFE28
 3662 00f0 00000000 		.4byte	.LFB29
 3663 00f4 24000000 		.4byte	.LFE29
 3664 00f8 00000000 		.4byte	.LFB30
 3665 00fc 28000000 		.4byte	.LFE30
 3666 0100 00000000 		.4byte	.LFB31
 3667 0104 24000000 		.4byte	.LFE31
 3668 0108 00000000 		.4byte	.LFB32
ARM GAS  C:\Users\syhaines\AppData\Local\Temp\ccsJlByc.s 			page 94


 3669 010c 24000000 		.4byte	.LFE32
 3670 0110 00000000 		.4byte	.LFB33
 3671 0114 1C000000 		.4byte	.LFE33
 3672 0118 00000000 		.4byte	.LFB1
 3673 011c 24000000 		.4byte	.LFE1
 3674 0120 00000000 		.4byte	.LFB2
 3675 0124 1C000000 		.4byte	.LFE2
 3676 0128 00000000 		.4byte	.LFB34
 3677 012c 14000000 		.4byte	.LFE34
 3678 0130 00000000 		.4byte	.LFB35
 3679 0134 0C000000 		.4byte	.LFE35
 3680 0138 00000000 		.4byte	.LFB36
 3681 013c 0C000000 		.4byte	.LFE36
 3682 0140 00000000 		.4byte	.LFB37
 3683 0144 0C000000 		.4byte	.LFE37
 3684 0148 00000000 		.4byte	.LFB38
 3685 014c 0C000000 		.4byte	.LFE38
 3686 0150 00000000 		.4byte	.LFB39
 3687 0154 0C000000 		.4byte	.LFE39
 3688 0158 00000000 		.4byte	0
 3689 015c 00000000 		.4byte	0
 3690              		.section	.debug_line,"",%progbits
 3691              	.Ldebug_line0:
 3692 0000 F9030000 		.section	.debug_str,"MS",%progbits,1
 3692      02005100 
 3692      00000201 
 3692      FB0E0D00 
 3692      01010101 
 3693              	.LASF18:
 3694 0000 636F756E 		.ascii	"count\000"
 3694      7400
 3695              	.LASF76:
 3696 0006 474E5520 		.ascii	"GNU C 4.9.3 20150303 (release) [ARM/embedded-4_9-br"
 3696      4320342E 
 3696      392E3320 
 3696      32303135 
 3696      30333033 
 3697 0039 616E6368 		.ascii	"anch revision 221220] -mcpu=cortex-m0 -mthumb -g -O"
 3697      20726576 
 3697      6973696F 
 3697      6E203232 
 3697      31323230 
 3698 006c 73202D66 		.ascii	"s -ffunction-sections -ffat-lto-objects\000"
 3698      66756E63 
 3698      74696F6E 
 3698      2D736563 
 3698      74696F6E 
 3699              	.LASF81:
 3700 0094 43794578 		.ascii	"CyExitCriticalSection\000"
 3700      69744372 
 3700      69746963 
 3700      616C5365 
 3700      6374696F 
 3701              	.LASF61:
 3702 00aa 44696D6D 		.ascii	"Dimming_SetCaptureMode\000"
 3702      696E675F 
 3702      53657443 
ARM GAS  C:\Users\syhaines\AppData\Local\Temp\ccsJlByc.s 			page 95


 3702      61707475 
 3702      72654D6F 
 3703              	.LASF47:
 3704 00c1 44696D6D 		.ascii	"Dimming_ReadCounter\000"
 3704      696E675F 
 3704      52656164 
 3704      436F756E 
 3704      74657200 
 3705              	.LASF56:
 3706 00d5 44696D6D 		.ascii	"Dimming_WriteCompareBuf\000"
 3706      696E675F 
 3706      57726974 
 3706      65436F6D 
 3706      70617265 
 3707              	.LASF53:
 3708 00ed 44696D6D 		.ascii	"Dimming_ReadPeriodBuf\000"
 3708      696E675F 
 3708      52656164 
 3708      50657269 
 3708      6F644275 
 3709              	.LASF43:
 3710 0103 44696D6D 		.ascii	"Dimming_SetPWMInvert\000"
 3710      696E675F 
 3710      53657450 
 3710      574D496E 
 3710      76657274 
 3711              	.LASF21:
 3712 0118 70657269 		.ascii	"period\000"
 3712      6F6400
 3713              	.LASF7:
 3714 011f 6C6F6E67 		.ascii	"long long unsigned int\000"
 3714      206C6F6E 
 3714      6720756E 
 3714      7369676E 
 3714      65642069 
 3715              	.LASF30:
 3716 0136 71644D6F 		.ascii	"qdMode\000"
 3716      646500
 3717              	.LASF54:
 3718 013d 44696D6D 		.ascii	"Dimming_SetPeriodSwap\000"
 3718      696E675F 
 3718      53657450 
 3718      6572696F 
 3718      64537761 
 3719              	.LASF6:
 3720 0153 6C6F6E67 		.ascii	"long long int\000"
 3720      206C6F6E 
 3720      6720696E 
 3720      7400
 3721              	.LASF0:
 3722 0161 7369676E 		.ascii	"signed char\000"
 3722      65642063 
 3722      68617200 
 3723              	.LASF58:
 3724 016d 44696D6D 		.ascii	"Dimming_ReadCompareBuf\000"
 3724      696E675F 
 3724      52656164 
ARM GAS  C:\Users\syhaines\AppData\Local\Temp\ccsJlByc.s 			page 96


 3724      436F6D70 
 3724      61726542 
 3725              	.LASF49:
 3726 0184 44696D6D 		.ascii	"Dimming_SetCompareSwap\000"
 3726      696E675F 
 3726      53657443 
 3726      6F6D7061 
 3726      72655377 
 3727              	.LASF48:
 3728 019b 44696D6D 		.ascii	"Dimming_ReadPeriod\000"
 3728      696E675F 
 3728      52656164 
 3728      50657269 
 3728      6F6400
 3729              	.LASF39:
 3730 01ae 44696D6D 		.ascii	"Dimming_SetPWMStopOnKill\000"
 3730      696E675F 
 3730      53657450 
 3730      574D5374 
 3730      6F704F6E 
 3731              	.LASF4:
 3732 01c7 6C6F6E67 		.ascii	"long int\000"
 3732      20696E74 
 3732      00
 3733              	.LASF24:
 3734 01d0 44696D6D 		.ascii	"Dimming_Init\000"
 3734      696E675F 
 3734      496E6974 
 3734      00
 3735              	.LASF9:
 3736 01dd 75696E74 		.ascii	"uint8\000"
 3736      3800
 3737              	.LASF65:
 3738 01e3 44696D6D 		.ascii	"Dimming_SetStopMode\000"
 3738      696E675F 
 3738      53657453 
 3738      746F704D 
 3738      6F646500 
 3739              	.LASF75:
 3740 01f7 44696D6D 		.ascii	"Dimming_SetInterrupt\000"
 3740      696E675F 
 3740      53657449 
 3740      6E746572 
 3740      72757074 
 3741              	.LASF12:
 3742 020c 646F7562 		.ascii	"double\000"
 3742      6C6500
 3743              	.LASF41:
 3744 0213 44696D6D 		.ascii	"Dimming_SetPWMDeadTime\000"
 3744      696E675F 
 3744      53657450 
 3744      574D4465 
 3744      61645469 
 3745              	.LASF37:
 3746 022a 44696D6D 		.ascii	"Dimming_SetPWMSyncKill\000"
 3746      696E675F 
 3746      53657450 
ARM GAS  C:\Users\syhaines\AppData\Local\Temp\ccsJlByc.s 			page 97


 3746      574D5379 
 3746      6E634B69 
 3747              	.LASF10:
 3748 0241 75696E74 		.ascii	"uint32\000"
 3748      333200
 3749              	.LASF62:
 3750 0248 74726967 		.ascii	"triggerMode\000"
 3750      6765724D 
 3750      6F646500 
 3751              	.LASF44:
 3752 0254 6D61736B 		.ascii	"mask\000"
 3752      00
 3753              	.LASF63:
 3754 0259 44696D6D 		.ascii	"Dimming_SetReloadMode\000"
 3754      696E675F 
 3754      53657452 
 3754      656C6F61 
 3754      644D6F64 
 3755              	.LASF42:
 3756 026f 64656164 		.ascii	"deadTime\000"
 3756      54696D65 
 3756      00
 3757              	.LASF8:
 3758 0278 756E7369 		.ascii	"unsigned int\000"
 3758      676E6564 
 3758      20696E74 
 3758      00
 3759              	.LASF68:
 3760 0285 636F6D6D 		.ascii	"command\000"
 3760      616E6400 
 3761              	.LASF5:
 3762 028d 6C6F6E67 		.ascii	"long unsigned int\000"
 3762      20756E73 
 3762      69676E65 
 3762      6420696E 
 3762      7400
 3763              	.LASF36:
 3764 029f 6D6F6465 		.ascii	"modeMask\000"
 3764      4D61736B 
 3764      00
 3765              	.LASF35:
 3766 02a8 44696D6D 		.ascii	"Dimming_SetPWMMode\000"
 3766      696E675F 
 3766      53657450 
 3766      574D4D6F 
 3766      646500
 3767              	.LASF67:
 3768 02bb 44696D6D 		.ascii	"Dimming_TriggerCommand\000"
 3768      696E675F 
 3768      54726967 
 3768      67657243 
 3768      6F6D6D61 
 3769              	.LASF70:
 3770 02d2 44696D6D 		.ascii	"Dimming_Start\000"
 3770      696E675F 
 3770      53746172 
 3770      7400
ARM GAS  C:\Users\syhaines\AppData\Local\Temp\ccsJlByc.s 			page 98


 3771              	.LASF74:
 3772 02e0 44696D6D 		.ascii	"Dimming_ClearInterrupt\000"
 3772      696E675F 
 3772      436C6561 
 3772      72496E74 
 3772      65727275 
 3773              	.LASF3:
 3774 02f7 73686F72 		.ascii	"short unsigned int\000"
 3774      7420756E 
 3774      7369676E 
 3774      65642069 
 3774      6E7400
 3775              	.LASF80:
 3776 030a 4379456E 		.ascii	"CyEnterCriticalSection\000"
 3776      74657243 
 3776      72697469 
 3776      63616C53 
 3776      65637469 
 3777              	.LASF34:
 3778 0321 6F6E6553 		.ascii	"oneShotEnable\000"
 3778      686F7445 
 3778      6E61626C 
 3778      6500
 3779              	.LASF17:
 3780 032f 44696D6D 		.ascii	"Dimming_SetInterruptMode\000"
 3780      696E675F 
 3780      53657449 
 3780      6E746572 
 3780      72757074 
 3781              	.LASF79:
 3782 0348 44696D6D 		.ascii	"Dimming_initVar\000"
 3782      696E675F 
 3782      696E6974 
 3782      56617200 
 3783              	.LASF69:
 3784 0358 44696D6D 		.ascii	"Dimming_Enable\000"
 3784      696E675F 
 3784      456E6162 
 3784      6C6500
 3785              	.LASF14:
 3786 0367 72656733 		.ascii	"reg32\000"
 3786      3200
 3787              	.LASF33:
 3788 036d 44696D6D 		.ascii	"Dimming_SetOneShot\000"
 3788      696E675F 
 3788      5365744F 
 3788      6E655368 
 3788      6F7400
 3789              	.LASF15:
 3790 0380 73697A65 		.ascii	"sizetype\000"
 3790      74797065 
 3790      00
 3791              	.LASF77:
 3792 0389 2E5C4765 		.ascii	".\\Generated_Source\\PSoC4\\Dimming.c\000"
 3792      6E657261 
 3792      7465645F 
 3792      536F7572 
ARM GAS  C:\Users\syhaines\AppData\Local\Temp\ccsJlByc.s 			page 99


 3792      63655C50 
 3793              	.LASF38:
 3794 03ac 73796E63 		.ascii	"syncKillEnable\000"
 3794      4B696C6C 
 3794      456E6162 
 3794      6C6500
 3795              	.LASF23:
 3796 03bb 636F6D70 		.ascii	"compare\000"
 3796      61726500 
 3797              	.LASF78:
 3798 03c3 433A5C4C 		.ascii	"C:\\Legrand\\Dimmers\\A4W sofTap and Touch\\A4W_Sof"
 3798      65677261 
 3798      6E645C44 
 3798      696D6D65 
 3798      72735C41 
 3799 03f2 7461702E 		.ascii	"tap.cydsn\000"
 3799      63796473 
 3799      6E00
 3800              	.LASF11:
 3801 03fc 666C6F61 		.ascii	"float\000"
 3801      7400
 3802              	.LASF32:
 3803 0402 70726573 		.ascii	"prescaler\000"
 3803      63616C65 
 3803      7200
 3804              	.LASF72:
 3805 040c 44696D6D 		.ascii	"Dimming_GetInterruptSourceMasked\000"
 3805      696E675F 
 3805      47657449 
 3805      6E746572 
 3805      72757074 
 3806              	.LASF1:
 3807 042d 756E7369 		.ascii	"unsigned char\000"
 3807      676E6564 
 3807      20636861 
 3807      7200
 3808              	.LASF73:
 3809 043b 44696D6D 		.ascii	"Dimming_GetInterruptSource\000"
 3809      696E675F 
 3809      47657449 
 3809      6E746572 
 3809      72757074 
 3810              	.LASF40:
 3811 0456 73746F70 		.ascii	"stopOnKillEnable\000"
 3811      4F6E4B69 
 3811      6C6C456E 
 3811      61626C65 
 3811      00
 3812              	.LASF2:
 3813 0467 73686F72 		.ascii	"short int\000"
 3813      7420696E 
 3813      7400
 3814              	.LASF20:
 3815 0471 44696D6D 		.ascii	"Dimming_WritePeriod\000"
 3815      696E675F 
 3815      57726974 
 3815      65506572 
ARM GAS  C:\Users\syhaines\AppData\Local\Temp\ccsJlByc.s 			page 100


 3815      696F6400 
 3816              	.LASF19:
 3817 0485 696E7465 		.ascii	"interruptMask\000"
 3817      72727570 
 3817      744D6173 
 3817      6B00
 3818              	.LASF66:
 3819 0493 44696D6D 		.ascii	"Dimming_SetCountMode\000"
 3819      696E675F 
 3819      53657443 
 3819      6F756E74 
 3819      4D6F6465 
 3820              	.LASF28:
 3821 04a8 44696D6D 		.ascii	"Dimming_SetQDMode\000"
 3821      696E675F 
 3821      53657451 
 3821      444D6F64 
 3821      6500
 3822              	.LASF13:
 3823 04ba 63686172 		.ascii	"char\000"
 3823      00
 3824              	.LASF29:
 3825 04bf 6D6F6465 		.ascii	"mode\000"
 3825      00
 3826              	.LASF60:
 3827 04c4 44696D6D 		.ascii	"Dimming_ReadCaptureBuf\000"
 3827      696E675F 
 3827      52656164 
 3827      43617074 
 3827      75726542 
 3828              	.LASF64:
 3829 04db 44696D6D 		.ascii	"Dimming_SetStartMode\000"
 3829      696E675F 
 3829      53657453 
 3829      74617274 
 3829      4D6F6465 
 3830              	.LASF25:
 3831 04f0 44696D6D 		.ascii	"Dimming_Stop\000"
 3831      696E675F 
 3831      53746F70 
 3831      00
 3832              	.LASF46:
 3833 04fd 636F756E 		.ascii	"counterMode\000"
 3833      7465724D 
 3833      6F646500 
 3834              	.LASF22:
 3835 0509 44696D6D 		.ascii	"Dimming_WriteCompare\000"
 3835      696E675F 
 3835      57726974 
 3835      65436F6D 
 3835      70617265 
 3836              	.LASF59:
 3837 051e 44696D6D 		.ascii	"Dimming_ReadCapture\000"
 3837      696E675F 
 3837      52656164 
 3837      43617074 
 3837      75726500 
ARM GAS  C:\Users\syhaines\AppData\Local\Temp\ccsJlByc.s 			page 101


 3838              	.LASF57:
 3839 0532 636F6D70 		.ascii	"compareBuf\000"
 3839      61726542 
 3839      756600
 3840              	.LASF26:
 3841 053d 44696D6D 		.ascii	"Dimming_SetMode\000"
 3841      696E675F 
 3841      5365744D 
 3841      6F646500 
 3842              	.LASF27:
 3843 054d 656E6162 		.ascii	"enableInterrupts\000"
 3843      6C65496E 
 3843      74657272 
 3843      75707473 
 3843      00
 3844              	.LASF45:
 3845 055e 44696D6D 		.ascii	"Dimming_SetCounterMode\000"
 3845      696E675F 
 3845      53657443 
 3845      6F756E74 
 3845      65724D6F 
 3846              	.LASF55:
 3847 0575 44696D6D 		.ascii	"Dimming_ReadCompare\000"
 3847      696E675F 
 3847      52656164 
 3847      436F6D70 
 3847      61726500 
 3848              	.LASF50:
 3849 0589 73776170 		.ascii	"swapEnable\000"
 3849      456E6162 
 3849      6C6500
 3850              	.LASF31:
 3851 0594 44696D6D 		.ascii	"Dimming_SetPrescaler\000"
 3851      696E675F 
 3851      53657450 
 3851      72657363 
 3851      616C6572 
 3852              	.LASF16:
 3853 05a9 44696D6D 		.ascii	"Dimming_WriteCounter\000"
 3853      696E675F 
 3853      57726974 
 3853      65436F75 
 3853      6E746572 
 3854              	.LASF51:
 3855 05be 44696D6D 		.ascii	"Dimming_WritePeriodBuf\000"
 3855      696E675F 
 3855      57726974 
 3855      65506572 
 3855      696F6442 
 3856              	.LASF52:
 3857 05d5 70657269 		.ascii	"periodBuf\000"
 3857      6F644275 
 3857      6600
 3858              	.LASF71:
 3859 05df 44696D6D 		.ascii	"Dimming_ReadStatus\000"
 3859      696E675F 
 3859      52656164 
ARM GAS  C:\Users\syhaines\AppData\Local\Temp\ccsJlByc.s 			page 102


 3859      53746174 
 3859      757300
 3860              		.ident	"GCC: (GNU Tools for ARM Embedded Processors) 4.9.3 20150303 (release) [ARM/embedded-4_9-br
