ARM GAS  C:\Users\syhaines\AppData\Local\Temp\ccTQm5X4.s 			page 1


   1              		.cpu cortex-m0
   2              		.fpu softvfp
   3              		.eabi_attribute 20, 1
   4              		.eabi_attribute 21, 1
   5              		.eabi_attribute 23, 3
   6              		.eabi_attribute 24, 1
   7              		.eabi_attribute 25, 1
   8              		.eabi_attribute 26, 1
   9              		.eabi_attribute 30, 4
  10              		.eabi_attribute 34, 0
  11              		.eabi_attribute 18, 4
  12              		.code	16
  13              		.file	"interrupts.c"
  14              		.text
  15              	.Ltext0:
  16              		.cfi_sections	.debug_frame
  17              		.global	__aeabi_uidiv
  18              		.section	.text.zero_cross,"ax",%progbits
  19              		.align	1
  20              		.global	zero_cross
  21              		.code	16
  22              		.thumb_func
  23              		.type	zero_cross, %function
  24              	zero_cross:
  25              	.LFB33:
  26              		.file 1 ".\\User_Source\\interrupts.c"
   1:.\User_Source/interrupts.c **** /*----------------------------------------------------------------------------
   2:.\User_Source/interrupts.c ****  *    ADORNE GEN 2 SOFTAP TRUE UNIVERSAL DIMMER
   3:.\User_Source/interrupts.c ****  *----------------------------------------------------------------------------
   4:.\User_Source/interrupts.c ****  *    File Name:     user_main.c
   5:.\User_Source/interrupts.c ****  *    Description:   Main Program File for Gen. 2 sofTap 4-Wire Dimmer 
   6:.\User_Source/interrupts.c ****  *    Target:        Renesas R5F10268
   7:.\User_Source/interrupts.c ****  *    Environment:   IAR EWB for RL78 Version 1.40.1
   8:.\User_Source/interrupts.c ****  *    Author:        Josh Haines
   9:.\User_Source/interrupts.c ****  *    Specification: Document #TBD
  10:.\User_Source/interrupts.c ****  *----------------------------------------------------------------------------
  11:.\User_Source/interrupts.c ****  *    Revisions:
  12:.\User_Source/interrupts.c ****  *    1.00  Initial revision JPH 10/20/2014
  13:.\User_Source/interrupts.c ****  *----------------------------------------------------------------------------
  14:.\User_Source/interrupts.c ****  *    Notes:
  15:.\User_Source/interrupts.c ****  *    1. 
  16:.\User_Source/interrupts.c ****  *----------------------------------------------------------------------------
  17:.\User_Source/interrupts.c ****  *    This code is the property of P&S Division of Legrand Corporation.
  18:.\User_Source/interrupts.c ****  *    Copyright (c) 2013 - 2014 Legrand Corp. All rights reserved.
  19:.\User_Source/interrupts.c ****  *---------------------------------------------------------------------------*/
  20:.\User_Source/interrupts.c **** #define _INTERRUPTS_C   // for global variable declarations in user_main.h
  21:.\User_Source/interrupts.c **** 
  22:.\User_Source/interrupts.c **** #include <interrupts.h>
  23:.\User_Source/interrupts.c **** #include <user_main.h>
  24:.\User_Source/interrupts.c **** #include <dimming_ctrl.h>
  25:.\User_Source/interrupts.c **** #include <project.h>
  26:.\User_Source/interrupts.c **** #include <CY8C4124.h>
  27:.\User_Source/interrupts.c **** 
  28:.\User_Source/interrupts.c ****   
  29:.\User_Source/interrupts.c **** /*----------------------------------------------------------------------------
  30:.\User_Source/interrupts.c ****  *  Private Functions
  31:.\User_Source/interrupts.c ****  *---------------------------------------------------------------------------*/ 
ARM GAS  C:\Users\syhaines\AppData\Local\Temp\ccTQm5X4.s 			page 2


  32:.\User_Source/interrupts.c **** 
  33:.\User_Source/interrupts.c **** /*----------------------------------------------------------------------------
  34:.\User_Source/interrupts.c ****  *  Public Interface
  35:.\User_Source/interrupts.c ****  *---------------------------------------------------------------------------*/ 
  36:.\User_Source/interrupts.c **** 
  37:.\User_Source/interrupts.c **** /*----------------------------------------------------------------------------
  38:.\User_Source/interrupts.c ****  *  Interrupts - Listed in order of Priority where 1 is the highest priority
  39:.\User_Source/interrupts.c ****  *  1. zero_cross - this interrupt is serviced every rising edge of the comparator output.  
  40:.\User_Source/interrupts.c ****  *  ISR_PERIOD: 1/60cycles = 16.6667mS
  41:.\User_Source/interrupts.c ****  *  ISR_DURATION: 7µ - 10µS in duration
  42:.\User_Source/interrupts.c ****  *
  43:.\User_Source/interrupts.c ****  *  2. pwm_timer - this interrupt's sole purpose is to output a pseudo-analog value to the 
  44:.\User_Source/interrupts.c ****  *  constant current source that in turn varies the current through the LED front end of an 
  45:.\User_Source/interrupts.c ****  *  opto coupler.  The duty cycle of this PWM timer are controlled by the PWM_MIN and
  46:.\User_Source/interrupts.c ****  *  PWM_MAX values which can vary from 1% (PWM_lower_max_limit) to 54.5% (PWM_upper_min_limit).
  47:.\User_Source/interrupts.c ****  *  ISR_PERIOD: 1mS
  48:.\User_Source/interrupts.c ****  *  ISR_DURATION: 2µ - 3µS in duration
  49:.\User_Source/interrupts.c ****  *
  50:.\User_Source/interrupts.c ****  *  3.  Relay_Offset_timer - this general purpose timer interupts program flow every 50µS.  This
  51:.\User_Source/interrupts.c ****  *  function performs two important tasks.  First, it implements a precise offset from the zero 
  52:.\User_Source/interrupts.c ****  *  cross interrupt with which to fire the relay such that the relay contacts will close on or 
  53:.\User_Source/interrupts.c ****  *  close to a zero cross.  Second, the Relay_Offset_timer isr provides an opportunity to dim
  54:.\User_Source/interrupts.c ****  *  the display intensity at a (1/(PWM_display_interval*50µ))= 200Hz rate.  
  55:.\User_Source/interrupts.c ****  *  ISR_PERIOD: 50µS
  56:.\User_Source/interrupts.c ****  *  ISR_DURATION: 1µ - 6µS in duration
  57:.\User_Source/interrupts.c ****  *
  58:.\User_Source/interrupts.c ****  *---------------------------------------------------------------------------*/ 
  59:.\User_Source/interrupts.c **** 
  60:.\User_Source/interrupts.c **** /**************************************************************************************************
  61:.\User_Source/interrupts.c **** void zero_cross(void) 
  62:.\User_Source/interrupts.c **** {
  27              		.loc 1 62 0
  28              		.cfi_startproc
  29 0000 F8B5     		push	{r3, r4, r5, r6, r7, lr}
  30              		.cfi_def_cfa_offset 24
  31              		.cfi_offset 3, -24
  32              		.cfi_offset 4, -20
  33              		.cfi_offset 5, -16
  34              		.cfi_offset 6, -12
  35              		.cfi_offset 7, -8
  36              		.cfi_offset 14, -4
  63:.\User_Source/interrupts.c ****     Zero_Cross_ClearInterrupt(Zero_Cross_INTR);
  37              		.loc 1 63 0
  38 0002 0220     		mov	r0, #2
  39 0004 FFF7FEFF 		bl	Zero_Cross_ClearInterrupt
  40              	.LVL0:
  64:.\User_Source/interrupts.c ****     ZC_ISR_Disable();
  41              		.loc 1 64 0
  42 0008 FFF7FEFF 		bl	ZC_ISR_Disable
  43              	.LVL1:
  65:.\User_Source/interrupts.c ****     
  66:.\User_Source/interrupts.c ****     TICK_CNT = 0;
  44              		.loc 1 66 0
  45 000c 0022     		mov	r2, #0
  46 000e 504B     		ldr	r3, .L44
  67:.\User_Source/interrupts.c ****     
  68:.\User_Source/interrupts.c **** //    //test the oscilator frequency using the zero cross interrupt
ARM GAS  C:\Users\syhaines\AppData\Local\Temp\ccTQm5X4.s 			page 3


  69:.\User_Source/interrupts.c **** //    if(ZC_TEST >= zc_test_min && ZC_TEST <= zc_test_max) MCU_OSC_ACC = 0;
  70:.\User_Source/interrupts.c **** //    else MCU_OSC_ACC++;
  71:.\User_Source/interrupts.c **** //    ZC_TEST = 0;
  72:.\User_Source/interrupts.c **** //    
  73:.\User_Source/interrupts.c **** //    if (MCU_OSC_ACC > 10) 
  74:.\User_Source/interrupts.c **** //    {
  75:.\User_Source/interrupts.c **** //        Relay_Offset_Sleep();
  76:.\User_Source/interrupts.c **** //    }
  77:.\User_Source/interrupts.c ****     
  78:.\User_Source/interrupts.c ****     if (DMR_Status.throwrelay) 
  47              		.loc 1 78 0
  48 0010 504C     		ldr	r4, .L44+4
  66:.\User_Source/interrupts.c ****     
  49              		.loc 1 66 0
  50 0012 1A80     		strh	r2, [r3]
  51              		.loc 1 78 0
  52 0014 6378     		ldrb	r3, [r4, #1]
  53 0016 9B07     		lsl	r3, r3, #30
  54 0018 04D5     		bpl	.L2
  79:.\User_Source/interrupts.c ****     {
  80:.\User_Source/interrupts.c ****         TMR_Status.zc_tick = SET;
  55              		.loc 1 80 0
  56 001a 0821     		mov	r1, #8
  57 001c 4E4A     		ldr	r2, .L44+8
  58 001e 1378     		ldrb	r3, [r2]
  59 0020 0B43     		orr	r3, r1
  60 0022 1370     		strb	r3, [r2]
  61              	.L2:
  81:.\User_Source/interrupts.c ****     }
  82:.\User_Source/interrupts.c ****     
  83:.\User_Source/interrupts.c ****     #if(OvrldEndurance == 0)
  84:.\User_Source/interrupts.c ****     if (!DMR_Status.goto_bed && !DMR_Status.mincalibration && !DMR_Status.maxcalibration) 
  62              		.loc 1 84 0
  63 0024 2288     		ldrh	r2, [r4]
  64 0026 4D4B     		ldr	r3, .L44+12
  65 0028 1A42     		tst	r2, r3
  66 002a 0ED1     		bne	.L3
  85:.\User_Source/interrupts.c ****     {
  86:.\User_Source/interrupts.c ****         UI_VAL = (user_interface_levels-((Dimming_ReadCompare()-PWM_MAX)/(PWM_CHG*translation_facto
  67              		.loc 1 86 0
  68 002c FFF7FEFF 		bl	Dimming_ReadCompare
  69              	.LVL2:
  70 0030 4B4B     		ldr	r3, .L44+16
  71 0032 1B88     		ldrh	r3, [r3]
  72 0034 C01A     		sub	r0, r0, r3
  73 0036 4B4B     		ldr	r3, .L44+20
  74 0038 1988     		ldrh	r1, [r3]
  75 003a 0523     		mov	r3, #5
  76 003c 5943     		mul	r1, r3
  77 003e FFF7FEFF 		bl	__aeabi_uidiv
  78              	.LVL3:
  79 0042 0723     		mov	r3, #7
  80 0044 181A     		sub	r0, r3, r0
  81 0046 484B     		ldr	r3, .L44+24
  82 0048 1880     		strh	r0, [r3]
  83              	.L3:
  87:.\User_Source/interrupts.c ****     }
ARM GAS  C:\Users\syhaines\AppData\Local\Temp\ccTQm5X4.s 			page 4


  88:.\User_Source/interrupts.c ****     
  89:.\User_Source/interrupts.c ****     
  90:.\User_Source/interrupts.c ****     //Current Sensing Tasks
  91:.\User_Source/interrupts.c ****     if (I_SENSE_CNT >= i_presence_threshold_hi)                                   //current thresho
  84              		.loc 1 91 0
  85 004a 4848     		ldr	r0, .L44+28
  86 004c 484B     		ldr	r3, .L44+32
  87 004e 0278     		ldrb	r2, [r0]
  88 0050 002A     		cmp	r2, #0
  89 0052 06D0     		beq	.L4
  92:.\User_Source/interrupts.c ****     {
  93:.\User_Source/interrupts.c ****         I_SENSE_ACC += 2;                                                           //accumulate if
  90              		.loc 1 93 0
  91 0054 1A88     		ldrh	r2, [r3]
  92 0056 0232     		add	r2, r2, #2
  93 0058 92B2     		uxth	r2, r2
  94:.\User_Source/interrupts.c ****         if (I_SENSE_ACC > i_sense_threshold) I_SENSE_ACC = i_sense_threshold;       //manage the ov
  94              		.loc 1 94 0
  95 005a 282A     		cmp	r2, #40
  96 005c 0AD9     		bls	.L41
  97              		.loc 1 94 0 is_stmt 0 discriminator 1
  98 005e 2822     		mov	r2, #40
  99 0060 08E0     		b	.L41
 100              	.L4:
  95:.\User_Source/interrupts.c ****     }
  96:.\User_Source/interrupts.c ****     else 
  97:.\User_Source/interrupts.c ****     {
  98:.\User_Source/interrupts.c ****         if (I_SENSE_CNT == 0) 
  99:.\User_Source/interrupts.c ****         {
 100:.\User_Source/interrupts.c ****             if (I_SENSE_ACC > 1) I_SENSE_ACC--;
 101              		.loc 1 100 0 is_stmt 1
 102 0062 1A88     		ldrh	r2, [r3]
 103 0064 012A     		cmp	r2, #1
 104 0066 01D9     		bls	.L7
 105              		.loc 1 100 0 is_stmt 0 discriminator 1
 106 0068 013A     		sub	r2, r2, #1
 107 006a 1A80     		strh	r2, [r3]
 108              	.L7:
 101:.\User_Source/interrupts.c ****             if (I_SENSE_ACC <= 1) I_SENSE_ACC = 0;                                //current not pre
 109              		.loc 1 101 0 is_stmt 1
 110 006c 1A88     		ldrh	r2, [r3]
 111 006e 012A     		cmp	r2, #1
 112 0070 01D8     		bhi	.L6
 113              		.loc 1 101 0 is_stmt 0 discriminator 1
 114 0072 0022     		mov	r2, #0
 115              	.L41:
 116 0074 1A80     		strh	r2, [r3]
 117              	.L6:
 102:.\User_Source/interrupts.c ****         }
 103:.\User_Source/interrupts.c ****     }
 104:.\User_Source/interrupts.c ****     
 105:.\User_Source/interrupts.c ****     //One Second Timer made from zero cross counting
 106:.\User_Source/interrupts.c ****     if(++ZC_CNTR >= one_second_interval) 
 118              		.loc 1 106 0 is_stmt 1
 119 0076 3F4A     		ldr	r2, .L44+36
 120 0078 1378     		ldrb	r3, [r2]
 121 007a 0133     		add	r3, r3, #1
ARM GAS  C:\Users\syhaines\AppData\Local\Temp\ccTQm5X4.s 			page 5


 122 007c DBB2     		uxtb	r3, r3
 123 007e 1370     		strb	r3, [r2]
 124 0080 3B2B     		cmp	r3, #59
 125 0082 43D9     		bls	.L9
 107:.\User_Source/interrupts.c ****     {
 108:.\User_Source/interrupts.c ****         TMR_Status.second = SET;
 126              		.loc 1 108 0
 127 0084 0425     		mov	r5, #4
 128 0086 3449     		ldr	r1, .L44+8
 129 0088 0B78     		ldrb	r3, [r1]
 130 008a 2B43     		orr	r3, r5
 131 008c 0B70     		strb	r3, [r1]
 109:.\User_Source/interrupts.c ****         
 110:.\User_Source/interrupts.c ****         if(PB_Status[PB_MAIN].held_on && DMR_Status.on) 
 132              		.loc 1 110 0
 133 008e 3A49     		ldr	r1, .L44+40
 134 0090 3A4B     		ldr	r3, .L44+44
 135 0092 0D78     		ldrb	r5, [r1]
 136 0094 AD07     		lsl	r5, r5, #30
 137 0096 05D5     		bpl	.L10
 138              		.loc 1 110 0 is_stmt 0 discriminator 1
 139 0098 2578     		ldrb	r5, [r4]
 140 009a ED07     		lsl	r5, r5, #31
 141 009c 02D5     		bpl	.L10
 111:.\User_Source/interrupts.c ****         {
 112:.\User_Source/interrupts.c ****             ++SECOND_CNTR;
 142              		.loc 1 112 0 is_stmt 1
 143 009e 1D78     		ldrb	r5, [r3]
 144 00a0 0135     		add	r5, r5, #1
 145 00a2 00E0     		b	.L42
 146              	.L10:
 113:.\User_Source/interrupts.c ****         }
 114:.\User_Source/interrupts.c ****         else SECOND_CNTR = 0;
 147              		.loc 1 114 0
 148 00a4 0025     		mov	r5, #0
 149              	.L42:
 150 00a6 1D70     		strb	r5, [r3]
 115:.\User_Source/interrupts.c ****         
 116:.\User_Source/interrupts.c ****         //Enter Calibraton Mode - Maximum Cal
 117:.\User_Source/interrupts.c ****         if(PWM_TARGET <= PWM_MAX && PB_Status[PB_UP].held_on && !DMR_Status.maxcalibration)
 151              		.loc 1 117 0
 152 00a8 354B     		ldr	r3, .L44+48
 153 00aa 1F88     		ldrh	r7, [r3]
 154 00ac 2C4B     		ldr	r3, .L44+16
 155 00ae 1B88     		ldrh	r3, [r3]
 156 00b0 BB42     		cmp	r3, r7
 157 00b2 13D3     		bcc	.L13
 158              		.loc 1 117 0 is_stmt 0 discriminator 1
 159 00b4 4B78     		ldrb	r3, [r1, #1]
 160 00b6 9B07     		lsl	r3, r3, #30
 161 00b8 10D5     		bpl	.L13
 162              		.loc 1 117 0 discriminator 2
 163 00ba 1023     		mov	r3, #16
 164 00bc 6578     		ldrb	r5, [r4, #1]
 165 00be 9C46     		mov	ip, r3
 166 00c0 1D42     		tst	r5, r3
 167 00c2 0BD1     		bne	.L13
ARM GAS  C:\Users\syhaines\AppData\Local\Temp\ccTQm5X4.s 			page 6


 118:.\User_Source/interrupts.c ****         {
 119:.\User_Source/interrupts.c ****             if (++PWM_CAL_CNT >= PWM_cal_count_limit) 
 168              		.loc 1 119 0 is_stmt 1
 169 00c4 2F4E     		ldr	r6, .L44+52
 170 00c6 3388     		ldrh	r3, [r6]
 171 00c8 0133     		add	r3, r3, #1
 172 00ca 9BB2     		uxth	r3, r3
 173 00cc 3380     		strh	r3, [r6]
 174 00ce 092B     		cmp	r3, #9
 175 00d0 04D9     		bls	.L13
 120:.\User_Source/interrupts.c ****             {
 121:.\User_Source/interrupts.c ****                 DMR_Status.maxcalibration = SET;
 176              		.loc 1 121 0
 177 00d2 6346     		mov	r3, ip
 178 00d4 2B43     		orr	r3, r5
 179 00d6 6370     		strb	r3, [r4, #1]
 122:.\User_Source/interrupts.c ****                 PWM_CAL_CNT = PWM_cal_count_limit;
 180              		.loc 1 122 0
 181 00d8 0A23     		mov	r3, #10
 182 00da 3380     		strh	r3, [r6]
 183              	.L13:
 123:.\User_Source/interrupts.c ****             }                
 124:.\User_Source/interrupts.c ****         }
 125:.\User_Source/interrupts.c ****         
 126:.\User_Source/interrupts.c ****         //Enter Calibraton Mode - Minimum Cal
 127:.\User_Source/interrupts.c ****         if(PWM_TARGET >= PWM_MIN && PB_Status[PB_DOWN].held_on && !DMR_Status.mincalibration)
 184              		.loc 1 127 0
 185 00dc 2A4B     		ldr	r3, .L44+56
 186 00de 1B88     		ldrh	r3, [r3]
 187 00e0 BB42     		cmp	r3, r7
 188 00e2 11D8     		bhi	.L16
 189              		.loc 1 127 0 is_stmt 0 discriminator 1
 190 00e4 8B78     		ldrb	r3, [r1, #2]
 191 00e6 9B07     		lsl	r3, r3, #30
 192 00e8 0ED5     		bpl	.L16
 193              		.loc 1 127 0 discriminator 2
 194 00ea 0826     		mov	r6, #8
 195 00ec 6178     		ldrb	r1, [r4, #1]
 196 00ee 3142     		tst	r1, r6
 197 00f0 0AD1     		bne	.L16
 128:.\User_Source/interrupts.c ****         {
 129:.\User_Source/interrupts.c ****             if (++PWM_CAL_CNT >= PWM_cal_count_limit) 
 198              		.loc 1 129 0 is_stmt 1
 199 00f2 244D     		ldr	r5, .L44+52
 200 00f4 2B88     		ldrh	r3, [r5]
 201 00f6 0133     		add	r3, r3, #1
 202 00f8 9BB2     		uxth	r3, r3
 203 00fa 2B80     		strh	r3, [r5]
 204 00fc 092B     		cmp	r3, #9
 205 00fe 03D9     		bls	.L16
 130:.\User_Source/interrupts.c ****             {
 131:.\User_Source/interrupts.c ****                 DMR_Status.mincalibration = SET;
 132:.\User_Source/interrupts.c ****                 PWM_CAL_CNT = PWM_cal_count_limit;
 206              		.loc 1 132 0
 207 0100 0A23     		mov	r3, #10
 131:.\User_Source/interrupts.c ****                 PWM_CAL_CNT = PWM_cal_count_limit;
 208              		.loc 1 131 0
ARM GAS  C:\Users\syhaines\AppData\Local\Temp\ccTQm5X4.s 			page 7


 209 0102 3143     		orr	r1, r6
 210 0104 6170     		strb	r1, [r4, #1]
 211              		.loc 1 132 0
 212 0106 2B80     		strh	r3, [r5]
 213              	.L16:
 133:.\User_Source/interrupts.c ****             }
 134:.\User_Source/interrupts.c ****         }
 135:.\User_Source/interrupts.c ****         
 136:.\User_Source/interrupts.c ****         ZC_CNTR = 0;
 214              		.loc 1 136 0
 215 0108 0023     		mov	r3, #0
 216 010a 1370     		strb	r3, [r2]
 217              	.L9:
 137:.\User_Source/interrupts.c ****     }
 138:.\User_Source/interrupts.c ****     
 139:.\User_Source/interrupts.c ****     //wait for the button release to set the calibration flag and reset the count
 140:.\User_Source/interrupts.c ****     if(DMR_Status.maxcalibration && !PB_Status[PB_UP].held_on && !DMR_Status.max_cal_adjust)
 218              		.loc 1 140 0
 219 010c 6378     		ldrb	r3, [r4, #1]
 220 010e DA06     		lsl	r2, r3, #27
 221 0110 0BD5     		bpl	.L18
 222              		.loc 1 140 0 is_stmt 0 discriminator 1
 223 0112 194A     		ldr	r2, .L44+40
 224 0114 5278     		ldrb	r2, [r2, #1]
 225 0116 9207     		lsl	r2, r2, #30
 226 0118 07D4     		bmi	.L18
 227              		.loc 1 140 0 discriminator 2
 228 011a 4022     		mov	r2, #64
 229 011c 191C     		mov	r1, r3
 230 011e 1140     		and	r1, r2
 231 0120 03D1     		bne	.L18
 141:.\User_Source/interrupts.c ****     {
 142:.\User_Source/interrupts.c ****         PWM_CAL_CNT = 0;
 232              		.loc 1 142 0 is_stmt 1
 233 0122 184D     		ldr	r5, .L44+52
 143:.\User_Source/interrupts.c ****         DMR_Status.max_cal_adjust = SET;
 234              		.loc 1 143 0
 235 0124 1343     		orr	r3, r2
 142:.\User_Source/interrupts.c ****         DMR_Status.max_cal_adjust = SET;
 236              		.loc 1 142 0
 237 0126 2980     		strh	r1, [r5]
 238              		.loc 1 143 0
 239 0128 6370     		strb	r3, [r4, #1]
 240              	.L18:
 144:.\User_Source/interrupts.c ****     }
 145:.\User_Source/interrupts.c ****     
 146:.\User_Source/interrupts.c ****         //wait for the button release to set the calibration flag and reset the count
 147:.\User_Source/interrupts.c ****     if(DMR_Status.mincalibration && !PB_Status[PB_DOWN].held_on  && !DMR_Status.min_cal_adjust)
 241              		.loc 1 147 0
 242 012a 6378     		ldrb	r3, [r4, #1]
 243 012c 1A07     		lsl	r2, r3, #28
 244 012e 0BD5     		bpl	.L19
 245              		.loc 1 147 0 is_stmt 0 discriminator 1
 246 0130 114A     		ldr	r2, .L44+40
 247 0132 9278     		ldrb	r2, [r2, #2]
 248 0134 9207     		lsl	r2, r2, #30
 249 0136 07D4     		bmi	.L19
ARM GAS  C:\Users\syhaines\AppData\Local\Temp\ccTQm5X4.s 			page 8


 250              		.loc 1 147 0 discriminator 2
 251 0138 2022     		mov	r2, #32
 252 013a 191C     		mov	r1, r3
 253 013c 1140     		and	r1, r2
 254 013e 03D1     		bne	.L19
 148:.\User_Source/interrupts.c ****     {
 149:.\User_Source/interrupts.c ****         PWM_CAL_CNT = 0;
 255              		.loc 1 149 0 is_stmt 1
 256 0140 104D     		ldr	r5, .L44+52
 150:.\User_Source/interrupts.c ****         DMR_Status.min_cal_adjust = SET;
 257              		.loc 1 150 0
 258 0142 1343     		orr	r3, r2
 149:.\User_Source/interrupts.c ****         DMR_Status.min_cal_adjust = SET;
 259              		.loc 1 149 0
 260 0144 2980     		strh	r1, [r5]
 261              		.loc 1 150 0
 262 0146 6370     		strb	r3, [r4, #1]
 263              	.L19:
 151:.\User_Source/interrupts.c ****     }
 152:.\User_Source/interrupts.c ****     #endif
 153:.\User_Source/interrupts.c ****     
 154:.\User_Source/interrupts.c ****     I_SENSE_CNT = 0;  
 264              		.loc 1 154 0
 265 0148 0023     		mov	r3, #0
 155:.\User_Source/interrupts.c **** 
 156:.\User_Source/interrupts.c **** }   //End of Zero Cross ISR
 266              		.loc 1 156 0
 267              		@ sp needed
 154:.\User_Source/interrupts.c **** 
 268              		.loc 1 154 0
 269 014a 0370     		strb	r3, [r0]
 270              		.loc 1 156 0
 271 014c F8BD     		pop	{r3, r4, r5, r6, r7, pc}
 272              	.L45:
 273 014e C046     		.align	2
 274              	.L44:
 275 0150 00000000 		.word	TICK_CNT
 276 0154 00000000 		.word	DMR_Status
 277 0158 00000000 		.word	TMR_Status
 278 015c 10180000 		.word	6160
 279 0160 00000000 		.word	PWM_MAX
 280 0164 00000000 		.word	PWM_CHG
 281 0168 00000000 		.word	UI_VAL
 282 016c 00000000 		.word	I_SENSE_CNT
 283 0170 00000000 		.word	I_SENSE_ACC
 284 0174 00000000 		.word	ZC_CNTR
 285 0178 00000000 		.word	PB_Status
 286 017c 00000000 		.word	SECOND_CNTR
 287 0180 00000000 		.word	PWM_TARGET
 288 0184 00000000 		.word	PWM_CAL_CNT
 289 0188 00000000 		.word	PWM_MIN
 290              		.cfi_endproc
 291              	.LFE33:
 292              		.size	zero_cross, .-zero_cross
 293              		.section	.text.pwm_timer,"ax",%progbits
 294              		.align	1
 295              		.global	pwm_timer
ARM GAS  C:\Users\syhaines\AppData\Local\Temp\ccTQm5X4.s 			page 9


 296              		.code	16
 297              		.thumb_func
 298              		.type	pwm_timer, %function
 299              	pwm_timer:
 300              	.LFB34:
 157:.\User_Source/interrupts.c **** /**************************************************************************************************
 158:.\User_Source/interrupts.c **** 
 159:.\User_Source/interrupts.c **** /**************************************************************************************************
 160:.\User_Source/interrupts.c **** void pwm_timer(void)
 161:.\User_Source/interrupts.c **** {
 301              		.loc 1 161 0
 302              		.cfi_startproc
 303 0000 38B5     		push	{r3, r4, r5, lr}
 304              		.cfi_def_cfa_offset 16
 305              		.cfi_offset 3, -16
 306              		.cfi_offset 4, -12
 307              		.cfi_offset 5, -8
 308              		.cfi_offset 14, -4
 162:.\User_Source/interrupts.c ****     Dimming_ClearInterrupt(Dimming_INTR_MASK_TC);   
 163:.\User_Source/interrupts.c ****     
 164:.\User_Source/interrupts.c ****     if (TMR_Status.single_tap)
 309              		.loc 1 164 0
 310 0002 2024     		mov	r4, #32
 162:.\User_Source/interrupts.c ****     Dimming_ClearInterrupt(Dimming_INTR_MASK_TC);   
 311              		.loc 1 162 0
 312 0004 0120     		mov	r0, #1
 313 0006 FFF7FEFF 		bl	Dimming_ClearInterrupt
 314              	.LVL4:
 315              		.loc 1 164 0
 316 000a 0B4B     		ldr	r3, .L51
 317 000c 1978     		ldrb	r1, [r3]
 318 000e 2142     		tst	r1, r4
 319 0010 0CD0     		beq	.L48
 165:.\User_Source/interrupts.c ****     {
 166:.\User_Source/interrupts.c ****         if (++TICK_DBL_TAP >= double_tap_interval)
 320              		.loc 1 166 0
 321 0012 0A48     		ldr	r0, .L51+4
 322 0014 0A4D     		ldr	r5, .L51+8
 323 0016 0288     		ldrh	r2, [r0]
 324 0018 0132     		add	r2, r2, #1
 325 001a 92B2     		uxth	r2, r2
 326 001c AA42     		cmp	r2, r5
 327 001e 01D8     		bhi	.L49
 328 0020 0280     		strh	r2, [r0]
 329 0022 03E0     		b	.L48
 330              	.L49:
 167:.\User_Source/interrupts.c ****         {
 168:.\User_Source/interrupts.c ****             TICK_DBL_TAP = 0;
 331              		.loc 1 168 0
 332 0024 0022     		mov	r2, #0
 169:.\User_Source/interrupts.c ****             TMR_Status.single_tap = CLEAR;
 333              		.loc 1 169 0
 334 0026 A143     		bic	r1, r4
 168:.\User_Source/interrupts.c ****             TMR_Status.single_tap = CLEAR;
 335              		.loc 1 168 0
 336 0028 0280     		strh	r2, [r0]
 337              		.loc 1 169 0
ARM GAS  C:\Users\syhaines\AppData\Local\Temp\ccTQm5X4.s 			page 10


 338 002a 1970     		strb	r1, [r3]
 339              	.L48:
 170:.\User_Source/interrupts.c ****         }
 171:.\User_Source/interrupts.c ****     }
 172:.\User_Source/interrupts.c ****     
 173:.\User_Source/interrupts.c ****     TMR_Status.pwmtick = SET;
 340              		.loc 1 173 0
 341 002c 0221     		mov	r1, #2
 342 002e 1A78     		ldrb	r2, [r3]
 174:.\User_Source/interrupts.c **** 
 175:.\User_Source/interrupts.c **** }  //End of the PWM Timer ISR
 343              		.loc 1 175 0
 344              		@ sp needed
 173:.\User_Source/interrupts.c **** 
 345              		.loc 1 173 0
 346 0030 0A43     		orr	r2, r1
 347 0032 1A70     		strb	r2, [r3]
 348              		.loc 1 175 0
 349 0034 38BD     		pop	{r3, r4, r5, pc}
 350              	.L52:
 351 0036 C046     		.align	2
 352              	.L51:
 353 0038 00000000 		.word	TMR_Status
 354 003c 00000000 		.word	TICK_DBL_TAP
 355 0040 ED020000 		.word	749
 356              		.cfi_endproc
 357              	.LFE34:
 358              		.size	pwm_timer, .-pwm_timer
 359              		.section	.text.Relay_Offset_timer,"ax",%progbits
 360              		.align	1
 361              		.global	Relay_Offset_timer
 362              		.code	16
 363              		.thumb_func
 364              		.type	Relay_Offset_timer, %function
 365              	Relay_Offset_timer:
 366              	.LFB35:
 176:.\User_Source/interrupts.c **** 
 177:.\User_Source/interrupts.c **** /**************************************************************************************************
 178:.\User_Source/interrupts.c **** void Relay_Offset_timer(void) 
 179:.\User_Source/interrupts.c **** {
 367              		.loc 1 179 0
 368              		.cfi_startproc
 369 0000 F8B5     		push	{r3, r4, r5, r6, r7, lr}
 370              		.cfi_def_cfa_offset 24
 371              		.cfi_offset 3, -24
 372              		.cfi_offset 4, -20
 373              		.cfi_offset 5, -16
 374              		.cfi_offset 6, -12
 375              		.cfi_offset 7, -8
 376              		.cfi_offset 14, -4
 180:.\User_Source/interrupts.c ****     Relay_Offset_ClearInterrupt(Relay_Offset_INTR_MASK_TC);
 377              		.loc 1 180 0
 378 0002 0120     		mov	r0, #1
 379 0004 FFF7FEFF 		bl	Relay_Offset_ClearInterrupt
 380              	.LVL5:
 181:.\User_Source/interrupts.c ****     
 182:.\User_Source/interrupts.c ****     TICK_CNT_100mS++;
ARM GAS  C:\Users\syhaines\AppData\Local\Temp\ccTQm5X4.s 			page 11


 381              		.loc 1 182 0
 382 0008 3A4A     		ldr	r2, .L75
 383 000a 1388     		ldrh	r3, [r2]
 384 000c 0133     		add	r3, r3, #1
 385 000e 1380     		strh	r3, [r2]
 183:.\User_Source/interrupts.c ****     ZC_TEST++;
 386              		.loc 1 183 0
 387 0010 394A     		ldr	r2, .L75+4
 388 0012 1388     		ldrh	r3, [r2]
 389 0014 0133     		add	r3, r3, #1
 390 0016 1380     		strh	r3, [r2]
 184:.\User_Source/interrupts.c ****         
 185:.\User_Source/interrupts.c ****     PB_INTERVAL_TICK++;             // marks every 10mS for pushbutton measurement
 391              		.loc 1 185 0
 392 0018 384A     		ldr	r2, .L75+8
 393 001a 1378     		ldrb	r3, [r2]
 394 001c 0133     		add	r3, r3, #1
 395 001e 1370     		strb	r3, [r2]
 186:.\User_Source/interrupts.c ****     //re-enable zero cross interrupt after acceptable number of PWM counts
 187:.\User_Source/interrupts.c ****     if (++TICK_CNT >= full_cycle_count) ZC_ISR_Enable();
 396              		.loc 1 187 0
 397 0020 374A     		ldr	r2, .L75+12
 398 0022 1388     		ldrh	r3, [r2]
 399 0024 0133     		add	r3, r3, #1
 400 0026 9BB2     		uxth	r3, r3
 401 0028 1380     		strh	r3, [r2]
 402 002a 2C22     		mov	r2, #44
 403 002c FF32     		add	r2, r2, #255
 404 002e 9342     		cmp	r3, r2
 405 0030 01D9     		bls	.L54
 406              		.loc 1 187 0 is_stmt 0 discriminator 1
 407 0032 FFF7FEFF 		bl	ZC_ISR_Enable
 408              	.LVL6:
 409              	.L54:
 188:.\User_Source/interrupts.c ****     
 189:.\User_Source/interrupts.c ****     //Attenuate the display to dim the bright LED's to some value
 190:.\User_Source/interrupts.c ****     TICK_CNT_Display++;
 410              		.loc 1 190 0 is_stmt 1
 411 0036 334A     		ldr	r2, .L75+16
 191:.\User_Source/interrupts.c ****     
 192:.\User_Source/interrupts.c ****     if (TMR_Status.zc_tick && DMR_Status.throwrelay && !TMR_Status.ovldend_bug)
 412              		.loc 1 192 0
 413 0038 334D     		ldr	r5, .L75+20
 190:.\User_Source/interrupts.c ****     
 414              		.loc 1 190 0
 415 003a 1378     		ldrb	r3, [r2]
 416 003c 0133     		add	r3, r3, #1
 417 003e 1370     		strb	r3, [r2]
 418              		.loc 1 192 0
 419 0040 2B78     		ldrb	r3, [r5]
 420 0042 1B07     		lsl	r3, r3, #28
 421 0044 55D5     		bpl	.L53
 422              		.loc 1 192 0 is_stmt 0 discriminator 1
 423 0046 314C     		ldr	r4, .L75+24
 424 0048 6378     		ldrb	r3, [r4, #1]
 425 004a 9B07     		lsl	r3, r3, #30
 426 004c 51D5     		bpl	.L53
ARM GAS  C:\Users\syhaines\AppData\Local\Temp\ccTQm5X4.s 			page 12


 427              		.loc 1 192 0 discriminator 2
 428 004e 0127     		mov	r7, #1
 429 0050 6B78     		ldrb	r3, [r5, #1]
 430 0052 3B42     		tst	r3, r7
 431 0054 4DD1     		bne	.L53
 193:.\User_Source/interrupts.c ****     {
 194:.\User_Source/interrupts.c ****         ++RELAY_CNT;
 432              		.loc 1 194 0 is_stmt 1
 433 0056 2E4E     		ldr	r6, .L75+28
 434 0058 3388     		ldrh	r3, [r6]
 435 005a DA19     		add	r2, r3, r7
 436 005c 3280     		strh	r2, [r6]
 195:.\User_Source/interrupts.c ****         if (DMR_Status.single_pole && RELAY_CNT >= relay_delay_1p && RELAY_CNT < Relay_coil_active 
 437              		.loc 1 195 0
 438 005e 2278     		ldrb	r2, [r4]
 439 0060 5106     		lsl	r1, r2, #25
 440 0062 0DD5     		bpl	.L58
 441              		.loc 1 195 0 is_stmt 0 discriminator 1
 442 0064 191C     		mov	r1, r3
 443 0066 C220     		mov	r0, #194
 444 0068 3139     		sub	r1, r1, #49
 445 006a 89B2     		uxth	r1, r1
 446 006c FF30     		add	r0, r0, #255
 447 006e 8142     		cmp	r1, r0
 448 0070 06D8     		bhi	.L58
 196:.\User_Source/interrupts.c ****         {
 197:.\User_Source/interrupts.c ****             if (RELAY_CNT >= relay_delay_1p) 
 198:.\User_Source/interrupts.c ****             {
 199:.\User_Source/interrupts.c ****                 Relay_3W_Write(0xFF);
 449              		.loc 1 199 0 is_stmt 1
 450 0072 C238     		sub	r0, r0, #194
 451 0074 FFF7FEFF 		bl	Relay_3W_Write
 452              	.LVL7:
 200:.\User_Source/interrupts.c ****                 DMR_Status.coilactive = SET;
 453              		.loc 1 200 0
 454 0078 6378     		ldrb	r3, [r4, #1]
 455 007a 1F43     		orr	r7, r3
 456 007c 6770     		strb	r7, [r4, #1]
 457 007e 0EE0     		b	.L59
 458              	.L58:
 201:.\User_Source/interrupts.c ****             }
 202:.\User_Source/interrupts.c ****         }
 203:.\User_Source/interrupts.c ****         else if (DMR_Status.three_way && RELAY_CNT >= relay_delay_3w && RELAY_CNT < Relay_coil_acti
 459              		.loc 1 203 0
 460 0080 D209     		lsr	r2, r2, #7
 461 0082 0CD0     		beq	.L59
 462              		.loc 1 203 0 is_stmt 0 discriminator 1
 463 0084 DE22     		mov	r2, #222
 464 0086 363B     		sub	r3, r3, #54
 465 0088 9BB2     		uxth	r3, r3
 466 008a 5200     		lsl	r2, r2, #1
 467 008c 9342     		cmp	r3, r2
 468 008e 06D8     		bhi	.L59
 204:.\User_Source/interrupts.c ****         {
 205:.\User_Source/interrupts.c ****             if (RELAY_CNT >= relay_delay_3w) 
 206:.\User_Source/interrupts.c ****             {
 207:.\User_Source/interrupts.c ****                 Relay_1P_Write(0xFF);
ARM GAS  C:\Users\syhaines\AppData\Local\Temp\ccTQm5X4.s 			page 13


 469              		.loc 1 207 0 is_stmt 1
 470 0090 FF20     		mov	r0, #255
 471 0092 FFF7FEFF 		bl	Relay_1P_Write
 472              	.LVL8:
 208:.\User_Source/interrupts.c ****                 DMR_Status.coilactive = SET;
 473              		.loc 1 208 0
 474 0096 0122     		mov	r2, #1
 475 0098 6378     		ldrb	r3, [r4, #1]
 476 009a 1343     		orr	r3, r2
 477 009c 6370     		strb	r3, [r4, #1]
 478              	.L59:
 209:.\User_Source/interrupts.c ****             }
 210:.\User_Source/interrupts.c ****         }
 211:.\User_Source/interrupts.c ****         
 212:.\User_Source/interrupts.c ****         if (RELAY_CNT >= Relay_coil_active)
 479              		.loc 1 212 0
 480 009e F423     		mov	r3, #244
 481 00a0 3288     		ldrh	r2, [r6]
 482 00a2 FF33     		add	r3, r3, #255
 483 00a4 9A42     		cmp	r2, r3
 484 00a6 24D9     		bls	.L53
 213:.\User_Source/interrupts.c ****         {
 214:.\User_Source/interrupts.c ****             if (DMR_Status.single_pole)
 485              		.loc 1 214 0
 486 00a8 4021     		mov	r1, #64
 487 00aa 2378     		ldrb	r3, [r4]
 488 00ac 0B42     		tst	r3, r1
 489 00ae 05D0     		beq	.L60
 215:.\User_Source/interrupts.c ****             {
 216:.\User_Source/interrupts.c ****                 DMR_Status.three_way = SET;
 490              		.loc 1 216 0
 491 00b0 8022     		mov	r2, #128
 492 00b2 5242     		neg	r2, r2
 493 00b4 1343     		orr	r3, r2
 217:.\User_Source/interrupts.c ****                 DMR_Status.single_pole = CLEAR;
 494              		.loc 1 217 0
 495 00b6 DBB2     		uxtb	r3, r3
 496 00b8 8B43     		bic	r3, r1
 497 00ba 02E0     		b	.L74
 498              	.L60:
 218:.\User_Source/interrupts.c ****             }
 219:.\User_Source/interrupts.c ****             else
 220:.\User_Source/interrupts.c ****             {
 221:.\User_Source/interrupts.c ****                 DMR_Status.three_way = CLEAR;
 222:.\User_Source/interrupts.c ****                 DMR_Status.single_pole = SET;
 499              		.loc 1 222 0
 500 00bc 7F22     		mov	r2, #127
 501 00be 1340     		and	r3, r2
 502 00c0 0B43     		orr	r3, r1
 503              	.L74:
 504 00c2 2370     		strb	r3, [r4]
 223:.\User_Source/interrupts.c ****             }
 224:.\User_Source/interrupts.c ****             RELAY_CNT = 0;
 225:.\User_Source/interrupts.c ****             #if(OvrldEndurance == 1)
 226:.\User_Source/interrupts.c ****             TMR_Status.ovldend_bug = SET;
 227:.\User_Source/interrupts.c ****             #endif
 228:.\User_Source/interrupts.c ****             DMR_Status.coilactive = CLEAR;
ARM GAS  C:\Users\syhaines\AppData\Local\Temp\ccTQm5X4.s 			page 14


 229:.\User_Source/interrupts.c ****             DMR_Status.throwrelay = CLEAR;
 505              		.loc 1 229 0
 506 00c4 FC23     		mov	r3, #252
 228:.\User_Source/interrupts.c ****             DMR_Status.throwrelay = CLEAR;
 507              		.loc 1 228 0
 508 00c6 6278     		ldrb	r2, [r4, #1]
 224:.\User_Source/interrupts.c ****             #if(OvrldEndurance == 1)
 509              		.loc 1 224 0
 510 00c8 0027     		mov	r7, #0
 511              		.loc 1 229 0
 512 00ca 1340     		and	r3, r2
 230:.\User_Source/interrupts.c ****             TMR_Status.zc_tick = CLEAR;
 513              		.loc 1 230 0
 514 00cc 0822     		mov	r2, #8
 229:.\User_Source/interrupts.c ****             TMR_Status.zc_tick = CLEAR;
 515              		.loc 1 229 0
 516 00ce 6370     		strb	r3, [r4, #1]
 517              		.loc 1 230 0
 518 00d0 2B78     		ldrb	r3, [r5]
 231:.\User_Source/interrupts.c ****             Relay_3W_Write(0);
 519              		.loc 1 231 0
 520 00d2 381C     		mov	r0, r7
 230:.\User_Source/interrupts.c ****             TMR_Status.zc_tick = CLEAR;
 521              		.loc 1 230 0
 522 00d4 9343     		bic	r3, r2
 523 00d6 2B70     		strb	r3, [r5]
 224:.\User_Source/interrupts.c ****             #if(OvrldEndurance == 1)
 524              		.loc 1 224 0
 525 00d8 3780     		strh	r7, [r6]
 526              		.loc 1 231 0
 527 00da FFF7FEFF 		bl	Relay_3W_Write
 528              	.LVL9:
 232:.\User_Source/interrupts.c ****             Relay_1P_Write(0);
 529              		.loc 1 232 0
 530 00de 381C     		mov	r0, r7
 531 00e0 FFF7FEFF 		bl	Relay_1P_Write
 532              	.LVL10:
 233:.\User_Source/interrupts.c ****             I_SENSE_ACC = 0;                // reset the current sense accumlation
 533              		.loc 1 233 0
 534 00e4 0B4B     		ldr	r3, .L75+32
 234:.\User_Source/interrupts.c ****             if (DMR_Status.fade_on) I_SENSE_ACC = i_sense_threshold;
 535              		.loc 1 234 0
 536 00e6 2278     		ldrb	r2, [r4]
 233:.\User_Source/interrupts.c ****             I_SENSE_ACC = 0;                // reset the current sense accumlation
 537              		.loc 1 233 0
 538 00e8 1F80     		strh	r7, [r3]
 539              		.loc 1 234 0
 540 00ea 5207     		lsl	r2, r2, #29
 541 00ec 01D5     		bpl	.L53
 542              		.loc 1 234 0 is_stmt 0 discriminator 1
 543 00ee 2822     		mov	r2, #40
 544 00f0 1A80     		strh	r2, [r3]
 545              	.L53:
 235:.\User_Source/interrupts.c ****         }
 236:.\User_Source/interrupts.c ****     }
 237:.\User_Source/interrupts.c **** }
 546              		.loc 1 237 0 is_stmt 1
ARM GAS  C:\Users\syhaines\AppData\Local\Temp\ccTQm5X4.s 			page 15


 547              		@ sp needed
 548 00f2 F8BD     		pop	{r3, r4, r5, r6, r7, pc}
 549              	.L76:
 550              		.align	2
 551              	.L75:
 552 00f4 00000000 		.word	TICK_CNT_100mS
 553 00f8 00000000 		.word	ZC_TEST
 554 00fc 00000000 		.word	PB_INTERVAL_TICK
 555 0100 00000000 		.word	TICK_CNT
 556 0104 00000000 		.word	TICK_CNT_Display
 557 0108 00000000 		.word	TMR_Status
 558 010c 00000000 		.word	DMR_Status
 559 0110 00000000 		.word	RELAY_CNT
 560 0114 00000000 		.word	I_SENSE_ACC
 561              		.cfi_endproc
 562              	.LFE35:
 563              		.size	Relay_Offset_timer, .-Relay_Offset_timer
 564              		.text
 565              	.Letext0:
 566              		.file 2 "c:\\program files (x86)\\cypress\\psoc creator\\3.3\\psoc creator\\import\\gnu\\arm\\4.9.
 567              		.file 3 "c:\\program files (x86)\\cypress\\psoc creator\\3.3\\psoc creator\\import\\gnu\\arm\\4.9.
 568              		.file 4 "Generated_Source\\PSoC4/cytypes.h"
 569              		.file 5 ".\\User_Source/user_main.h"
 570              		.file 6 "Generated_Source\\PSoC4/Zero_Cross.h"
 571              		.file 7 "Generated_Source\\PSoC4/Dimming.h"
 572              		.file 8 "Generated_Source\\PSoC4/Relay_Offset.h"
 573              		.file 9 "Generated_Source\\PSoC4/ZC_ISR.h"
 574              		.file 10 "Generated_Source\\PSoC4/Relay_3W.h"
 575              		.file 11 "Generated_Source\\PSoC4/Relay_1P.h"