ARM GAS  C:\Users\syhaines\AppData\Local\Temp\ccb8Rhum.s 			page 1


   1              		.cpu cortex-m0
   2              		.fpu softvfp
   3              		.eabi_attribute 20, 1
   4              		.eabi_attribute 21, 1
   5              		.eabi_attribute 23, 3
   6              		.eabi_attribute 24, 1
   7              		.eabi_attribute 25, 1
   8              		.eabi_attribute 26, 1
   9              		.eabi_attribute 30, 4
  10              		.eabi_attribute 34, 0
  11              		.eabi_attribute 18, 4
  12              		.code	16
  13              		.file	"main.c"
  14              		.text
  15              	.Ltext0:
  16              		.cfi_sections	.debug_frame
  17              		.section	.text.init_dimmer_status,"ax",%progbits
  18              		.align	1
  19              		.global	init_dimmer_status
  20              		.code	16
  21              		.thumb_func
  22              		.type	init_dimmer_status, %function
  23              	init_dimmer_status:
  24              	.LFB34:
  25              		.file 1 ".\\User_Source\\main.c"
   1:.\User_Source/main.c **** 
   2:.\User_Source/main.c **** /*----------------------------------------------------------------------------
   3:.\User_Source/main.c ****  *    ADORNE SOFTAP 4-WIRE DIMMER
   4:.\User_Source/main.c ****  *----------------------------------------------------------------------------
   5:.\User_Source/main.c ****  *    File Name:     user_main.c
   6:.\User_Source/main.c ****  *    Description:   Main Program File for sofTap 4-Wire Dimmer 
   7:.\User_Source/main.c ****  *    Target:        Cypress CY8C4124LQI-443
   8:.\User_Source/main.c ****  *    Environment:   PSoC Creator  3.1 SP3 (3.1.0.2288)
   9:.\User_Source/main.c ****  *    Author:        Josh Haines
  10:.\User_Source/main.c ****  *    Specification: Document #TBD
  11:.\User_Source/main.c ****  *----------------------------------------------------------------------------
  12:.\User_Source/main.c ****  *    Revisions:
  13:.\User_Source/main.c ****  *    1.00  Initial revision JPH 10/20/2014
  14:.\User_Source/main.c ****  *----------------------------------------------------------------------------
  15:.\User_Source/main.c ****  *    Notes:
  16:.\User_Source/main.c ****  *    1. 
  17:.\User_Source/main.c ****  *----------------------------------------------------------------------------
  18:.\User_Source/main.c ****  *    This code is the property of P&S Division of Legrand Corporation.
  19:.\User_Source/main.c ****  *    Copyright (c) 2013 - 2014 Legrand Corp. All rights reserved.
  20:.\User_Source/main.c ****  *---------------------------------------------------------------------------*/
  21:.\User_Source/main.c **** #define _MAIN_C   // for global variable declarations in user_main.h
  22:.\User_Source/main.c **** 
  23:.\User_Source/main.c **** #include <user_main.h>
  24:.\User_Source/main.c **** #include <pushbutton.h>
  25:.\User_Source/main.c **** #include <dimming_ctrl.h>
  26:.\User_Source/main.c **** #include <project.h>
  27:.\User_Source/main.c **** #include <CY8C4124.h>
  28:.\User_Source/main.c **** 
  29:.\User_Source/main.c ****   
  30:.\User_Source/main.c **** /*----------------------------------------------------------------------------
  31:.\User_Source/main.c ****  *  Private Functions
  32:.\User_Source/main.c ****  *---------------------------------------------------------------------------*/ 
ARM GAS  C:\Users\syhaines\AppData\Local\Temp\ccb8Rhum.s 			page 2


  33:.\User_Source/main.c **** 
  34:.\User_Source/main.c **** /*----------------------------------------------------------------------------
  35:.\User_Source/main.c ****  *  Public Interface
  36:.\User_Source/main.c ****  *---------------------------------------------------------------------------*/ 
  37:.\User_Source/main.c **** 
  38:.\User_Source/main.c **** /*----------------------------------------------------------------------------
  39:.\User_Source/main.c ****  *  user_main() 
  40:.\User_Source/main.c ****  *---------------------------------------------------------------------------*/ 
  41:.\User_Source/main.c **** int main(void)
  42:.\User_Source/main.c **** {
  43:.\User_Source/main.c ****     Test_Write(0);
  44:.\User_Source/main.c ****     
  45:.\User_Source/main.c ****     
  46:.\User_Source/main.c ****     read_data_flash();
  47:.\User_Source/main.c ****     
  48:.\User_Source/main.c ****     init_dimmer_status();
  49:.\User_Source/main.c ****     init_pb_status();
  50:.\User_Source/main.c ****     
  51:.\User_Source/main.c ****     CyGlobalIntEnable;
  52:.\User_Source/main.c ****     
  53:.\User_Source/main.c ****     #if(SofTap == 0)
  54:.\User_Source/main.c ****     // captouch status
  55:.\User_Source/main.c ****     init_ct_status();               // Init CapSense pushbutton status reg
  56:.\User_Source/main.c ****     CapSense_1_Start();	            // Start the CapSense component    
  57:.\User_Source/main.c ****     CapSense_1_InitializeAllBaselines();  //Loads the CapSense Baseline array with initial values b
  58:.\User_Source/main.c ****     #endif    //  CapSense Initialization
  59:.\User_Source/main.c ****     
  60:.\User_Source/main.c ****     while (FOREVER)
  61:.\User_Source/main.c ****     {   
  62:.\User_Source/main.c ****         #if(Wdog_Enable)
  63:.\User_Source/main.c ****         SERVICE_WDT();       // strobe WDog - confirms no endless loop, action timer & interrupts r
  64:.\User_Source/main.c ****         #endif
  65:.\User_Source/main.c ****         Test_Write(~Test_ReadDataReg());
  66:.\User_Source/main.c ****         PWM_CURRENT = Dimming_ReadCompare();
  67:.\User_Source/main.c ****         
  68:.\User_Source/main.c ****         #if(OvrldEndurance == 0)
  69:.\User_Source/main.c ****     // Gotobed calculation and set flag
  70:.\User_Source/main.c ****         if (SECOND_CNTR >= gotobed_interval && !DMR_Status.min_cal_adjust && !DMR_Status.max_cal_ad
  71:.\User_Source/main.c ****         {
  72:.\User_Source/main.c ****             DMR_Status.goto_bed = SET;
  73:.\User_Source/main.c ****             GOTO_BED_INTERVAL = (gotobed_totaltime*gotobed_scalefactor)/((PWM_MIN-PWM_TARGET)/PWM_C
  74:.\User_Source/main.c ****             //scaled so that is always takes about 25s to 'go to bed'
  75:.\User_Source/main.c ****             SECOND_CNTR = 0;
  76:.\User_Source/main.c ****         }
  77:.\User_Source/main.c ****         #endif
  78:.\User_Source/main.c ****     
  79:.\User_Source/main.c ****     //Determine positve versus negative half cycle
  80:.\User_Source/main.c ****         if (Zero_Cross_GetCompare() == 0) 
  81:.\User_Source/main.c ****         {
  82:.\User_Source/main.c ****             TMR_Status.pos_half = CLEAR;
  83:.\User_Source/main.c ****             TMR_Status.neg_half = SET;
  84:.\User_Source/main.c ****         }
  85:.\User_Source/main.c ****         else 
  86:.\User_Source/main.c ****         {
  87:.\User_Source/main.c ****             TMR_Status.pos_half = SET;
  88:.\User_Source/main.c ****             TMR_Status.neg_half = CLEAR;
  89:.\User_Source/main.c ****         }
ARM GAS  C:\Users\syhaines\AppData\Local\Temp\ccb8Rhum.s 			page 3


  90:.\User_Source/main.c ****         
  91:.\User_Source/main.c **** 
  92:.\User_Source/main.c ****     //Collect Current Sense Data
  93:.\User_Source/main.c ****         if (TMR_Status.pwmtick && I_Sense_Read() == HIGH && TMR_Status.neg_half) 
  94:.\User_Source/main.c ****         {
  95:.\User_Source/main.c ****             if (++I_SENSE_CNT > max_current_sense) I_SENSE_CNT = max_current_sense;
  96:.\User_Source/main.c ****         }
  97:.\User_Source/main.c **** 
  98:.\User_Source/main.c ****     // Poll buttons and take the appropriate actions
  99:.\User_Source/main.c ****         if (PB_INTERVAL_TICK >= pushbutton_interval)
 100:.\User_Source/main.c ****         {
 101:.\User_Source/main.c ****             
 102:.\User_Source/main.c ****         #if(SofTap == 0)
 103:.\User_Source/main.c ****             // captouch status
 104:.\User_Source/main.c ****             CapTouch_Scan();      
 105:.\User_Source/main.c ****         #endif
 106:.\User_Source/main.c ****             
 107:.\User_Source/main.c ****             read_pushbutton(PB_MAIN);
 108:.\User_Source/main.c ****             read_pushbutton(PB_UP);
 109:.\User_Source/main.c ****             read_pushbutton(PB_DOWN);
 110:.\User_Source/main.c ****             
 111:.\User_Source/main.c ****             button_response();
 112:.\User_Source/main.c ****             
 113:.\User_Source/main.c ****             PB_INTERVAL_TICK = 0;
 114:.\User_Source/main.c ****         }  
 115:.\User_Source/main.c ****         
 116:.\User_Source/main.c ****         #if(OvrldEndurance == 0)
 117:.\User_Source/main.c ****     // EEPROM Write if requested; checked and performed once per second
 118:.\User_Source/main.c ****         if (DMR_Status.store_status && TMR_Status.second)
 119:.\User_Source/main.c ****         {
 120:.\User_Source/main.c ****             NON_VOL_A[PWM_Max_High] = (PWM_MAX>>8); 
 121:.\User_Source/main.c ****             NON_VOL_A[PWM_Max_Low] = PWM_MAX & 0xFF; 
 122:.\User_Source/main.c ****             NON_VOL_A[PWM_Min_High] = (PWM_MIN>>8); 
 123:.\User_Source/main.c ****             NON_VOL_A[PWM_Min_Low] = PWM_MIN & 0xFF; 
 124:.\User_Source/main.c ****             NON_VOL_A[PWM_Trgt_High] = (PWM_TARGET>>8); 
 125:.\User_Source/main.c ****             NON_VOL_A[PWM_Trgt_Low] = PWM_TARGET & 0xFF;
 126:.\User_Source/main.c ****             // store key so that future cal updates
 127:.\User_Source/main.c ****             // won't be overwritten after power cycle   
 128:.\User_Source/main.c ****             NON_VOL_A[Cal_Key] = cal_key_value;
 129:.\User_Source/main.c ****             write_data_flash();
 130:.\User_Source/main.c ****             DMR_Status.store_status = CLEAR;
 131:.\User_Source/main.c ****         }
 132:.\User_Source/main.c ****         #endif
 133:.\User_Source/main.c ****         
 134:.\User_Source/main.c ****     // Drive Display to current value; also manages the dimming component
 135:.\User_Source/main.c ****         if (TICK_CNT_Display >= PWM_display_interval) 
 136:.\User_Source/main.c ****         {
 137:.\User_Source/main.c ****             TICK_CNT_Display = 0;
 138:.\User_Source/main.c ****             if ((DMR_Status.on || DMR_Status.fade_off || DMR_Status.fade_on) && !DMR_Status.throwre
 139:.\User_Source/main.c ****             {
 140:.\User_Source/main.c ****                 user_interface(UI_VAL);
 141:.\User_Source/main.c ****                 LED_Main_Write(0xFF);
 142:.\User_Source/main.c ****                 LED_Plus_Write(0);
 143:.\User_Source/main.c ****                 LED_Minus_Write(0);
 144:.\User_Source/main.c ****             }
 145:.\User_Source/main.c ****             else 
 146:.\User_Source/main.c ****             {
ARM GAS  C:\Users\syhaines\AppData\Local\Temp\ccb8Rhum.s 			page 4


 147:.\User_Source/main.c ****                 user_interface(0);
 148:.\User_Source/main.c ****                 LED_Main_Write(0);
 149:.\User_Source/main.c ****                 LED_Plus_Write(0xFF);
 150:.\User_Source/main.c ****                 LED_Minus_Write(0xFF);
 151:.\User_Source/main.c ****             }
 152:.\User_Source/main.c ****         }
 153:.\User_Source/main.c ****         if (TICK_CNT_Display >= PWM_display_on_off) LED_Main_Write(0xFF);
 154:.\User_Source/main.c ****         if (TICK_CNT_Display >= PWM_display_bargraph) user_interface(0);
 155:.\User_Source/main.c ****         if (TICK_CNT_Display >= PWM_display_plusminus)
 156:.\User_Source/main.c ****         {
 157:.\User_Source/main.c ****             LED_Plus_Write(0xFF);
 158:.\User_Source/main.c ****             LED_Minus_Write(0xFF);
 159:.\User_Source/main.c ****         }
 160:.\User_Source/main.c ****         
 161:.\User_Source/main.c ****     // Perform 100mS increment tasks
 162:.\User_Source/main.c ****         if (TICK_CNT_100mS >= pwm_100mS_count)
 163:.\User_Source/main.c ****         {
 164:.\User_Source/main.c ****         TICK_CNT_100mS = 0;
 165:.\User_Source/main.c ****         TMR_Status.gp_100mS_tick = SET;
 166:.\User_Source/main.c ****         gp_100mS_timer();
 167:.\User_Source/main.c ****         }
 168:.\User_Source/main.c ****         
 169:.\User_Source/main.c ****     // Reset timer flags
 170:.\User_Source/main.c ****         TMR_Status.pwmtick = CLEAR;         //TMR_Status.pwmtick set in the PWM interrupt
 171:.\User_Source/main.c ****         TMR_Status.second = CLEAR;          //clear the second flag
 172:.\User_Source/main.c ****         
 173:.\User_Source/main.c ****         
 174:.\User_Source/main.c ****         CySysPmSleep();
 175:.\User_Source/main.c ****     }
 176:.\User_Source/main.c **** }
 177:.\User_Source/main.c ****  //end of user_main()
 178:.\User_Source/main.c **** 
 179:.\User_Source/main.c **** 
 180:.\User_Source/main.c **** /*----------------------------------------------------------------------------
 181:.\User_Source/main.c ****  *  Initialize Dimmer
 182:.\User_Source/main.c ****  *---------------------------------------------------------------------------*/ 
 183:.\User_Source/main.c **** void init_dimmer_status(void)
 184:.\User_Source/main.c **** {
  26              		.loc 1 184 0
  27              		.cfi_startproc
  28 0000 F8B5     		push	{r3, r4, r5, r6, r7, lr}
  29              		.cfi_def_cfa_offset 24
  30              		.cfi_offset 3, -24
  31              		.cfi_offset 4, -20
  32              		.cfi_offset 5, -16
  33              		.cfi_offset 6, -12
  34              		.cfi_offset 7, -8
  35              		.cfi_offset 14, -4
 185:.\User_Source/main.c ****     if (NON_VOL_A[Cal_Key] != cal_key_value)
  36              		.loc 1 185 0
  37 0002 3E4C     		ldr	r4, .L7
  38 0004 2378     		ldrb	r3, [r4]
  39 0006 1B2B     		cmp	r3, #27
  40 0008 0DD0     		beq	.L2
 186:.\User_Source/main.c ****     // calibration not valid, load eeprom with defaults  
 187:.\User_Source/main.c ****     {
 188:.\User_Source/main.c ****         NON_VOL_A[PWM_Max_High] = (PWM_max_default>>8); 
ARM GAS  C:\Users\syhaines\AppData\Local\Temp\ccb8Rhum.s 			page 5


  41              		.loc 1 188 0
  42 000a 0023     		mov	r3, #0
 189:.\User_Source/main.c ****         NON_VOL_A[PWM_Max_Low] = PWM_max_default & 0xFF; 
 190:.\User_Source/main.c ****         NON_VOL_A[PWM_Min_High] = (PWM_min_default>>8); 
  43              		.loc 1 190 0
  44 000c 0222     		mov	r2, #2
 188:.\User_Source/main.c ****         NON_VOL_A[PWM_Max_Low] = PWM_max_default & 0xFF; 
  45              		.loc 1 188 0
  46 000e 2371     		strb	r3, [r4, #4]
 189:.\User_Source/main.c ****         NON_VOL_A[PWM_Max_Low] = PWM_max_default & 0xFF; 
  47              		.loc 1 189 0
  48 0010 0133     		add	r3, r3, #1
  49 0012 E370     		strb	r3, [r4, #3]
 191:.\User_Source/main.c ****         NON_VOL_A[PWM_Min_Low] = PWM_min_default & 0xFF; 
  50              		.loc 1 191 0
  51 0014 2033     		add	r3, r3, #32
 190:.\User_Source/main.c ****         NON_VOL_A[PWM_Min_Low] = PWM_min_default & 0xFF; 
  52              		.loc 1 190 0
  53 0016 A270     		strb	r2, [r4, #2]
  54              		.loc 1 191 0
  55 0018 6370     		strb	r3, [r4, #1]
 192:.\User_Source/main.c ****         NON_VOL_A[PWM_Trgt_High] = (PWM_min_default>>8); 
  56              		.loc 1 192 0
  57 001a A271     		strb	r2, [r4, #6]
 193:.\User_Source/main.c ****         NON_VOL_A[PWM_Trgt_Low] = PWM_min_default & 0xFF;
  58              		.loc 1 193 0
  59 001c 6371     		strb	r3, [r4, #5]
 194:.\User_Source/main.c ****         //NON_VOL_A[I_Thresh_Saved] = I_THRESH_DEF;
 195:.\User_Source/main.c ****         // store key so that future cal updates
 196:.\User_Source/main.c ****         // won't be overwritten after power cycle   
 197:.\User_Source/main.c ****         NON_VOL_A[Cal_Key] = cal_key_value;
  60              		.loc 1 197 0
  61 001e 063B     		sub	r3, r3, #6
  62 0020 2370     		strb	r3, [r4]
 198:.\User_Source/main.c ****         write_data_flash();
  63              		.loc 1 198 0
  64 0022 FFF7FEFF 		bl	write_data_flash
  65              	.LVL0:
  66              	.L2:
 199:.\User_Source/main.c ****     }  
 200:.\User_Source/main.c **** 
 201:.\User_Source/main.c ****     // load ram with cal values from eeprom
 202:.\User_Source/main.c ****     PWM_MIN = (uint16_t)(NON_VOL_A[PWM_Min_High]<<8);
  67              		.loc 1 202 0
  68 0026 A378     		ldrb	r3, [r4, #2]
 203:.\User_Source/main.c ****     PWM_MIN += (uint16_t)NON_VOL_A[PWM_Min_Low];
  69              		.loc 1 203 0
  70 0028 6178     		ldrb	r1, [r4, #1]
 202:.\User_Source/main.c ****     PWM_MIN += (uint16_t)NON_VOL_A[PWM_Min_Low];
  71              		.loc 1 202 0
  72 002a 1B02     		lsl	r3, r3, #8
  73              		.loc 1 203 0
  74 002c 344E     		ldr	r6, .L7+4
  75 002e 5B18     		add	r3, r3, r1
  76 0030 9AB2     		uxth	r2, r3
  77 0032 3280     		strh	r2, [r6]
 204:.\User_Source/main.c ****     PWM_MAX = (uint16_t)(NON_VOL_A[PWM_Max_High]<<8);
ARM GAS  C:\Users\syhaines\AppData\Local\Temp\ccb8Rhum.s 			page 6


  78              		.loc 1 204 0
  79 0034 2379     		ldrb	r3, [r4, #4]
 205:.\User_Source/main.c ****     PWM_MAX += (uint16_t)NON_VOL_A[PWM_Max_Low];
  80              		.loc 1 205 0
  81 0036 E178     		ldrb	r1, [r4, #3]
 204:.\User_Source/main.c ****     PWM_MAX = (uint16_t)(NON_VOL_A[PWM_Max_High]<<8);
  82              		.loc 1 204 0
  83 0038 1B02     		lsl	r3, r3, #8
  84              		.loc 1 205 0
  85 003a 5B18     		add	r3, r3, r1
  86 003c 3149     		ldr	r1, .L7+8
  87 003e 9BB2     		uxth	r3, r3
  88 0040 0B80     		strh	r3, [r1]
 206:.\User_Source/main.c ****     PWM_TARGET = (uint16_t)(NON_VOL_A[PWM_Trgt_High]<<8);
  89              		.loc 1 206 0
  90 0042 A179     		ldrb	r1, [r4, #6]
 207:.\User_Source/main.c ****     PWM_TARGET += (uint16_t)NON_VOL_A[PWM_Trgt_Low];
  91              		.loc 1 207 0
  92 0044 6079     		ldrb	r0, [r4, #5]
 206:.\User_Source/main.c ****     PWM_TARGET = (uint16_t)(NON_VOL_A[PWM_Trgt_High]<<8);
  93              		.loc 1 206 0
  94 0046 0902     		lsl	r1, r1, #8
 208:.\User_Source/main.c **** 
 209:.\User_Source/main.c ****     //Calculate the amount of up and down incremental change based on the min and max stored values
 210:.\User_Source/main.c ****     PWM_CHG = ((PWM_MIN-PWM_MAX)/desired_dim_levels);
 211:.\User_Source/main.c ****     
 212:.\User_Source/main.c ****     
 213:.\User_Source/main.c ****     
 214:.\User_Source/main.c ****     DMR_Status.on = CLEAR;
  95              		.loc 1 214 0
  96 0048 0124     		mov	r4, #1
 207:.\User_Source/main.c ****     PWM_TARGET += (uint16_t)NON_VOL_A[PWM_Trgt_Low];
  97              		.loc 1 207 0
  98 004a 0918     		add	r1, r1, r0
  99 004c 2E48     		ldr	r0, .L7+12
 215:.\User_Source/main.c ****     DMR_Status.off = SET;
 100              		.loc 1 215 0
 101 004e 0225     		mov	r5, #2
 207:.\User_Source/main.c ****     PWM_TARGET += (uint16_t)NON_VOL_A[PWM_Trgt_Low];
 102              		.loc 1 207 0
 103 0050 0180     		strh	r1, [r0]
 216:.\User_Source/main.c ****     DMR_Status.fade_on = CLEAR;
 104              		.loc 1 216 0
 105 0052 0420     		mov	r0, #4
 217:.\User_Source/main.c ****     DMR_Status.fade_off = CLEAR;
 106              		.loc 1 217 0
 107 0054 0827     		mov	r7, #8
 218:.\User_Source/main.c ****     DMR_Status.goto_bed = CLEAR;
 219:.\User_Source/main.c ****     DMR_Status.single_pole = SET;
 108              		.loc 1 219 0
 109 0056 1021     		mov	r1, #16
 210:.\User_Source/main.c ****     
 110              		.loc 1 210 0
 111 0058 D31A     		sub	r3, r2, r3
 112 005a DA17     		asr	r2, r3, #31
 113 005c D20E     		lsr	r2, r2, #27
 114 005e D318     		add	r3, r2, r3
ARM GAS  C:\Users\syhaines\AppData\Local\Temp\ccb8Rhum.s 			page 7


 115 0060 2A4A     		ldr	r2, .L7+16
 116 0062 5B11     		asr	r3, r3, #5
 117 0064 1380     		strh	r3, [r2]
 214:.\User_Source/main.c ****     DMR_Status.off = SET;
 118              		.loc 1 214 0
 119 0066 2A4A     		ldr	r2, .L7+20
 220:.\User_Source/main.c ****     DMR_Status.three_way = CLEAR;
 221:.\User_Source/main.c ****     DMR_Status.store_status = CLEAR;
 222:.\User_Source/main.c ****     DMR_Status.mincalibration = CLEAR;
 223:.\User_Source/main.c ****     DMR_Status.maxcalibration = CLEAR;
 224:.\User_Source/main.c ****     TMR_Status.single_tap = CLEAR;
 225:.\User_Source/main.c ****     
 226:.\User_Source/main.c ****     ZC_ISR_Start();                 // Enable, Set Priority and Start the ZC ISR
 227:.\User_Source/main.c ****     Zero_Cross_Start();             // Setup and Enable the Analog Comparator
 228:.\User_Source/main.c ****     
 229:.\User_Source/main.c ****     #if(OvrldEndurance == 0)
 230:.\User_Source/main.c ****     PWM_ISR_Start();                // PWM Interupt Service Routine
 231:.\User_Source/main.c ****     Dimming_Start();                // PWM Timer; 1000 counts * 1uS source = 1mS Timer
 232:.\User_Source/main.c ****     Opto_PWM_Start();               // Constant Current Control OpAmp
 233:.\User_Source/main.c ****     #endif
 234:.\User_Source/main.c ****     
 235:.\User_Source/main.c ****     Relay_Fire_ISR_Start();         // Relay first ISR timer is used to zero cross closes for the r
 236:.\User_Source/main.c ****     Relay_Offset_Start();           // 50µS Timer
 237:.\User_Source/main.c ****     
 238:.\User_Source/main.c ****     /*
 239:.\User_Source/main.c ****     2016-09-22: there appears to be a hang-up issue where at Rocom, on the test fixture, when
 240:.\User_Source/main.c ****     the unit is changed from 1P to 3W, the unit appears to dim beyond the boundaries established
 241:.\User_Source/main.c ****     by PWM_MIN and PWM_MAX and consequently, while fading on (when it comes into range, the bargrap
 242:.\User_Source/main.c ****     increases from min to max, thus fade_on) none of the other buttons work because it is in an 
 243:.\User_Source/main.c ****     endless loop.
 244:.\User_Source/main.c ****     Change 1: A change was made to the default values in the "Dimming" pwm timer block in the 
 245:.\User_Source/main.c ****     schematic where the default compare value is changed to PWM_min_default (545); the original 
 246:.\User_Source/main.c ****     was 250, which is not a conducive value to the prescribed values allowed
 247:.\User_Source/main.c ****     Change 2: Immediately following this description is a PWM Write command that initializes 
 248:.\User_Source/main.c ****     the starting point of the PWM value at any given POR
 249:.\User_Source/main.c ****     */
 250:.\User_Source/main.c ****     Dimming_WriteCompare(PWM_MIN);
 251:.\User_Source/main.c ****     
 252:.\User_Source/main.c ****     #ifdef Wdog_Enable
 253:.\User_Source/main.c ****     // Enable Watchdog
 254:.\User_Source/main.c ****     /* WDT is clocked by LFCLK which for the CY84125 is the 32kHz ILO */
 255:.\User_Source/main.c ****     /* Note: ILO accuracy is +/- 60% over voltage & temperature range */
 256:.\User_Source/main.c ****     /* The WDT counters should be cleared by calling the CySysWdtResetCounters() */
 257:.\User_Source/main.c ****     /* Set WDT counter 0 to generate interrupt on match */
 258:.\User_Source/main.c ****     /* Cntr 0 = 0x7FFF (32767 * 1/32000) = 1 second & Cntr 1 = 0x08 gives 8 second Wdog window */
 259:.\User_Source/main.c **** 
 260:.\User_Source/main.c ****     /* Update from Carl Finke - 08182015
 261:.\User_Source/main.c ****     Cntr0 is a prescaler when Cntr0 & Cntr1 are cascaded
 262:.\User_Source/main.c ****     Cntr0 = 2 then 32khz = 16khz and Cntr1 = 65535 then 4(5) second Timeout
 263:.\User_Source/main.c ****     */
 264:.\User_Source/main.c ****     /* NOTE: Wdog can only be checked w/o emulator - appears to just hangup & does not respond if
 265:.\User_Source/main.c ****             Wdog trips.  Verify using programmed part.
 266:.\User_Source/main.c ****     */
 267:.\User_Source/main.c **** 
 268:.\User_Source/main.c ****     // Set Cntr0 as Free Running - No action on match for cntr 0
 269:.\User_Source/main.c ****     CySysWdtWriteMode(CY_SYS_WDT_COUNTER0, CY_SYS_WDT_MODE_NONE);
 270:.\User_Source/main.c ****     CySysWdtWriteMatch(CY_SYS_WDT_COUNTER0, WDT_COUNT0_MATCH);
ARM GAS  C:\Users\syhaines\AppData\Local\Temp\ccb8Rhum.s 			page 8


 271:.\User_Source/main.c ****     CySysWdtWriteClearOnMatch(CY_SYS_WDT_COUNTER0, 1u);
 272:.\User_Source/main.c ****     
 273:.\User_Source/main.c ****     /* Enable WDT counters 0 and 1 cascade */
 274:.\User_Source/main.c ****     CySysWdtWriteCascade(CY_SYS_WDT_CASCADE_01);
 275:.\User_Source/main.c ****     
 276:.\User_Source/main.c ****     /* Set WDT counter 1 to generate reset on match */
 277:.\User_Source/main.c ****     CySysWdtWriteMode(CY_SYS_WDT_COUNTER1, CY_SYS_WDT_MODE_RESET);
 278:.\User_Source/main.c ****     CySysWdtWriteMatch(CY_SYS_WDT_COUNTER1, WDT_COUNT1_MATCH);
 279:.\User_Source/main.c ****     CySysWdtWriteClearOnMatch(CY_SYS_WDT_COUNTER1, 1u);
 280:.\User_Source/main.c **** 
 281:.\User_Source/main.c ****     /* Enable WDT counters 0 and 1 */
 282:.\User_Source/main.c ****     CySysWdtEnable(CY_SYS_WDT_COUNTER0_MASK | CY_SYS_WDT_COUNTER1_MASK);
 283:.\User_Source/main.c **** 
 284:.\User_Source/main.c ****     /* Lock WDT registers and try to disable WDT counters 0 and 1 */
 285:.\User_Source/main.c ****     /* If not commented out, the counters can not be reset & Reset occurs */
 286:.\User_Source/main.c ****     CySysWdtLock();
 287:.\User_Source/main.c ****     //End of WatchDog Initialization & Setup
 288:.\User_Source/main.c ****     #endif
 289:.\User_Source/main.c **** }
 120              		.loc 1 289 0
 121              		@ sp needed
 214:.\User_Source/main.c ****     DMR_Status.off = SET;
 122              		.loc 1 214 0
 123 0068 1378     		ldrb	r3, [r2]
 215:.\User_Source/main.c ****     DMR_Status.fade_on = CLEAR;
 124              		.loc 1 215 0
 125 006a A343     		bic	r3, r4
 216:.\User_Source/main.c ****     DMR_Status.fade_off = CLEAR;
 126              		.loc 1 216 0
 127 006c 2B43     		orr	r3, r5
 217:.\User_Source/main.c ****     DMR_Status.goto_bed = CLEAR;
 128              		.loc 1 217 0
 129 006e 8343     		bic	r3, r0
 218:.\User_Source/main.c ****     DMR_Status.single_pole = SET;
 130              		.loc 1 218 0
 131 0070 BB43     		bic	r3, r7
 219:.\User_Source/main.c ****     DMR_Status.three_way = CLEAR;
 132              		.loc 1 219 0
 133 0072 8B43     		bic	r3, r1
 220:.\User_Source/main.c ****     DMR_Status.store_status = CLEAR;
 134              		.loc 1 220 0
 135 0074 3031     		add	r1, r1, #48
 136 0076 0B43     		orr	r3, r1
 137 0078 3F31     		add	r1, r1, #63
 138 007a 0B40     		and	r3, r1
 139 007c 1370     		strb	r3, [r2]
 221:.\User_Source/main.c ****     DMR_Status.mincalibration = CLEAR;
 140              		.loc 1 221 0
 141 007e 5378     		ldrb	r3, [r2, #1]
 223:.\User_Source/main.c ****     TMR_Status.single_tap = CLEAR;
 142              		.loc 1 223 0
 143 0080 6F39     		sub	r1, r1, #111
 222:.\User_Source/main.c ****     DMR_Status.maxcalibration = CLEAR;
 144              		.loc 1 222 0
 145 0082 8343     		bic	r3, r0
 223:.\User_Source/main.c ****     TMR_Status.single_tap = CLEAR;
 146              		.loc 1 223 0
ARM GAS  C:\Users\syhaines\AppData\Local\Temp\ccb8Rhum.s 			page 9


 147 0084 BB43     		bic	r3, r7
 148 0086 8B43     		bic	r3, r1
 149 0088 5370     		strb	r3, [r2, #1]
 224:.\User_Source/main.c ****     
 150              		.loc 1 224 0
 151 008a 224A     		ldr	r2, .L7+24
 152 008c 1031     		add	r1, r1, #16
 153 008e 1378     		ldrb	r3, [r2]
 154 0090 8B43     		bic	r3, r1
 155 0092 1370     		strb	r3, [r2]
 226:.\User_Source/main.c ****     Zero_Cross_Start();             // Setup and Enable the Analog Comparator
 156              		.loc 1 226 0
 157 0094 FFF7FEFF 		bl	ZC_ISR_Start
 158              	.LVL1:
 227:.\User_Source/main.c ****     
 159              		.loc 1 227 0
 160 0098 FFF7FEFF 		bl	Zero_Cross_Start
 161              	.LVL2:
 230:.\User_Source/main.c ****     Dimming_Start();                // PWM Timer; 1000 counts * 1uS source = 1mS Timer
 162              		.loc 1 230 0
 163 009c FFF7FEFF 		bl	PWM_ISR_Start
 164              	.LVL3:
 231:.\User_Source/main.c ****     Opto_PWM_Start();               // Constant Current Control OpAmp
 165              		.loc 1 231 0
 166 00a0 FFF7FEFF 		bl	Dimming_Start
 167              	.LVL4:
 232:.\User_Source/main.c ****     #endif
 168              		.loc 1 232 0
 169 00a4 FFF7FEFF 		bl	Opto_PWM_Start
 170              	.LVL5:
 235:.\User_Source/main.c ****     Relay_Offset_Start();           // 50µS Timer
 171              		.loc 1 235 0
 172 00a8 FFF7FEFF 		bl	Relay_Fire_ISR_Start
 173              	.LVL6:
 236:.\User_Source/main.c ****     
 174              		.loc 1 236 0
 175 00ac FFF7FEFF 		bl	Relay_Offset_Start
 176              	.LVL7:
 250:.\User_Source/main.c ****     
 177              		.loc 1 250 0
 178 00b0 3088     		ldrh	r0, [r6]
 179 00b2 FFF7FEFF 		bl	Dimming_WriteCompare
 180              	.LVL8:
 269:.\User_Source/main.c ****     CySysWdtWriteMatch(CY_SYS_WDT_COUNTER0, WDT_COUNT0_MATCH);
 181              		.loc 1 269 0
 182 00b6 0020     		mov	r0, #0
 183 00b8 011C     		mov	r1, r0
 184 00ba FFF7FEFF 		bl	CySysWdtWriteMode
 185              	.LVL9:
 270:.\User_Source/main.c ****     CySysWdtWriteClearOnMatch(CY_SYS_WDT_COUNTER0, 1u);
 186              		.loc 1 270 0
 187 00be 291C     		mov	r1, r5
 188 00c0 0020     		mov	r0, #0
 189 00c2 FFF7FEFF 		bl	CySysWdtWriteMatch
 190              	.LVL10:
 271:.\User_Source/main.c ****     
 191              		.loc 1 271 0
ARM GAS  C:\Users\syhaines\AppData\Local\Temp\ccb8Rhum.s 			page 10


 192 00c6 211C     		mov	r1, r4
 193 00c8 0020     		mov	r0, #0
 194 00ca FFF7FEFF 		bl	CySysWdtWriteClearOnMatch
 195              	.LVL11:
 274:.\User_Source/main.c ****     
 196              		.loc 1 274 0
 197 00ce 381C     		mov	r0, r7
 198 00d0 FFF7FEFF 		bl	CySysWdtWriteCascade
 199              	.LVL12:
 277:.\User_Source/main.c ****     CySysWdtWriteMatch(CY_SYS_WDT_COUNTER1, WDT_COUNT1_MATCH);
 200              		.loc 1 277 0
 201 00d4 291C     		mov	r1, r5
 202 00d6 201C     		mov	r0, r4
 203 00d8 FFF7FEFF 		bl	CySysWdtWriteMode
 204              	.LVL13:
 278:.\User_Source/main.c ****     CySysWdtWriteClearOnMatch(CY_SYS_WDT_COUNTER1, 1u);
 205              		.loc 1 278 0
 206 00dc 8021     		mov	r1, #128
 207 00de 201C     		mov	r0, r4
 208 00e0 C901     		lsl	r1, r1, #7
 209 00e2 FFF7FEFF 		bl	CySysWdtWriteMatch
 210              	.LVL14:
 279:.\User_Source/main.c **** 
 211              		.loc 1 279 0
 212 00e6 211C     		mov	r1, r4
 213 00e8 201C     		mov	r0, r4
 214 00ea FFF7FEFF 		bl	CySysWdtWriteClearOnMatch
 215              	.LVL15:
 282:.\User_Source/main.c **** 
 216              		.loc 1 282 0
 217 00ee 0220     		mov	r0, #2
 218 00f0 FF30     		add	r0, r0, #255
 219 00f2 FFF7FEFF 		bl	CySysWdtEnable
 220              	.LVL16:
 286:.\User_Source/main.c ****     //End of WatchDog Initialization & Setup
 221              		.loc 1 286 0
 222 00f6 FFF7FEFF 		bl	CySysWdtLock
 223              	.LVL17:
 224              		.loc 1 289 0
 225 00fa F8BD     		pop	{r3, r4, r5, r6, r7, pc}
 226              	.L8:
 227              		.align	2
 228              	.L7:
 229 00fc 00000000 		.word	NON_VOL_A
 230 0100 00000000 		.word	PWM_MIN
 231 0104 00000000 		.word	PWM_MAX
 232 0108 00000000 		.word	PWM_TARGET
 233 010c 00000000 		.word	PWM_CHG
 234 0110 00000000 		.word	DMR_Status
 235 0114 00000000 		.word	TMR_Status
 236              		.cfi_endproc
 237              	.LFE34:
 238              		.size	init_dimmer_status, .-init_dimmer_status
 239              		.global	__aeabi_uidiv
 240              		.section	.text.gp_100mS_timer,"ax",%progbits
 241              		.align	1
 242              		.global	gp_100mS_timer
ARM GAS  C:\Users\syhaines\AppData\Local\Temp\ccb8Rhum.s 			page 11


 243              		.code	16
 244              		.thumb_func
 245              		.type	gp_100mS_timer, %function
 246              	gp_100mS_timer:
 247              	.LFB35:
 290:.\User_Source/main.c **** 
 291:.\User_Source/main.c **** /*----------------------------------------------------------------------------
 292:.\User_Source/main.c ****  *  General Purpose 100mS
 293:.\User_Source/main.c ****  *---------------------------------------------------------------------------*/
 294:.\User_Source/main.c **** void gp_100mS_timer(void)  //called from the PWM Timer
 295:.\User_Source/main.c **** { 
 248              		.loc 1 295 0
 249              		.cfi_startproc
 250 0000 F8B5     		push	{r3, r4, r5, r6, r7, lr}
 251              		.cfi_def_cfa_offset 24
 252              		.cfi_offset 3, -24
 253              		.cfi_offset 4, -20
 254              		.cfi_offset 5, -16
 255              		.cfi_offset 6, -12
 256              		.cfi_offset 7, -8
 257              		.cfi_offset 14, -4
 296:.\User_Source/main.c ****     if (DMR_Status.goto_bed || DMR_Status.maxcalibration || DMR_Status.mincalibration)
 258              		.loc 1 296 0
 259 0002 2B4C     		ldr	r4, .L20
 260 0004 2B4B     		ldr	r3, .L20+4
 261 0006 2288     		ldrh	r2, [r4]
 262 0008 1A42     		tst	r2, r3
 263 000a 2FD0     		beq	.L10
 297:.\User_Source/main.c ****     {    
 298:.\User_Source/main.c ****         if (++FLASH_CNT >= flash_threshold)
 264              		.loc 1 298 0
 265 000c 2A49     		ldr	r1, .L20+8
 266 000e 0B78     		ldrb	r3, [r1]
 267 0010 0133     		add	r3, r3, #1
 268 0012 DBB2     		uxtb	r3, r3
 269 0014 0B70     		strb	r3, [r1]
 270 0016 022B     		cmp	r3, #2
 271 0018 0BD9     		bls	.L11
 299:.\User_Source/main.c ****         {
 300:.\User_Source/main.c ****             DMR_Status.flash = ~DMR_Status.flash;
 272              		.loc 1 300 0
 273 001a 0122     		mov	r2, #1
 274 001c 2378     		ldrb	r3, [r4]
 275 001e 9806     		lsl	r0, r3, #26
 276 0020 C00F     		lsr	r0, r0, #31
 277 0022 8243     		bic	r2, r0
 278 0024 2020     		mov	r0, #32
 279 0026 5201     		lsl	r2, r2, #5
 280 0028 8343     		bic	r3, r0
 281 002a 1343     		orr	r3, r2
 282 002c 2370     		strb	r3, [r4]
 301:.\User_Source/main.c ****             FLASH_CNT = 0;
 283              		.loc 1 301 0
 284 002e 0023     		mov	r3, #0
 285 0030 0B70     		strb	r3, [r1]
 286              	.L11:
 302:.\User_Source/main.c ****         }
ARM GAS  C:\Users\syhaines\AppData\Local\Temp\ccb8Rhum.s 			page 12


 303:.\User_Source/main.c ****     
 304:.\User_Source/main.c ****         if (DMR_Status.flash) UI_VAL = (user_interface_levels-((Dimming_ReadCompare()-PWM_MAX)/(PWM
 287              		.loc 1 304 0
 288 0032 2378     		ldrb	r3, [r4]
 289 0034 214D     		ldr	r5, .L20+12
 290 0036 224F     		ldr	r7, .L20+16
 291 0038 224E     		ldr	r6, .L20+20
 292 003a 9B06     		lsl	r3, r3, #26
 293 003c 0AD5     		bpl	.L12
 294              		.loc 1 304 0 is_stmt 0 discriminator 1
 295 003e FFF7FEFF 		bl	Dimming_ReadCompare
 296              	.LVL18:
 297 0042 3B88     		ldrh	r3, [r7]
 298 0044 3188     		ldrh	r1, [r6]
 299 0046 C01A     		sub	r0, r0, r3
 300 0048 0523     		mov	r3, #5
 301 004a 5943     		mul	r1, r3
 302 004c FFF7FEFF 		bl	__aeabi_uidiv
 303              	.LVL19:
 304 0050 0623     		mov	r3, #6
 305 0052 09E0     		b	.L19
 306              	.L12:
 305:.\User_Source/main.c ****         else UI_VAL = (user_interface_levels-((Dimming_ReadCompare()-PWM_MAX)/(PWM_CHG*translation_
 307              		.loc 1 305 0 is_stmt 1
 308 0054 FFF7FEFF 		bl	Dimming_ReadCompare
 309              	.LVL20:
 310 0058 3B88     		ldrh	r3, [r7]
 311 005a 3188     		ldrh	r1, [r6]
 312 005c C01A     		sub	r0, r0, r3
 313 005e 0523     		mov	r3, #5
 314 0060 5943     		mul	r1, r3
 315 0062 FFF7FEFF 		bl	__aeabi_uidiv
 316              	.LVL21:
 317 0066 0723     		mov	r3, #7
 318              	.L19:
 319 0068 181A     		sub	r0, r3, r0
 320 006a 2880     		strh	r0, [r5]
 321              	.L10:
 306:.\User_Source/main.c ****     }
 307:.\User_Source/main.c **** 
 308:.\User_Source/main.c ****     if (TMR_Status.ovldend_bug) 
 322              		.loc 1 308 0
 323 006c 0122     		mov	r2, #1
 324 006e 164D     		ldr	r5, .L20+24
 325 0070 164E     		ldr	r6, .L20+28
 326 0072 6B78     		ldrb	r3, [r5, #1]
 327 0074 1340     		and	r3, r2
 328 0076 12D0     		beq	.L13
 309:.\User_Source/main.c ****     {
 310:.\User_Source/main.c ****         ++Nuisance_Trigger;  
 329              		.loc 1 310 0
 330 0078 3378     		ldrb	r3, [r6]
 311:.\User_Source/main.c ****         DMR_Status.coilactive = CLEAR;
 312:.\User_Source/main.c ****         DMR_Status.throwrelay = CLEAR;
 313:.\User_Source/main.c ****         TMR_Status.zc_tick = CLEAR;
 314:.\User_Source/main.c ****         Relay_3W_Write(0);
 331              		.loc 1 314 0
ARM GAS  C:\Users\syhaines\AppData\Local\Temp\ccb8Rhum.s 			page 13


 332 007a 0020     		mov	r0, #0
 310:.\User_Source/main.c ****         DMR_Status.coilactive = CLEAR;
 333              		.loc 1 310 0
 334 007c 9B18     		add	r3, r3, r2
 335 007e 3370     		strb	r3, [r6]
 311:.\User_Source/main.c ****         DMR_Status.coilactive = CLEAR;
 336              		.loc 1 311 0
 337 0080 6378     		ldrb	r3, [r4, #1]
 312:.\User_Source/main.c ****         TMR_Status.zc_tick = CLEAR;
 338              		.loc 1 312 0
 339 0082 9343     		bic	r3, r2
 340 0084 9218     		add	r2, r2, r2
 341 0086 9343     		bic	r3, r2
 342 0088 6370     		strb	r3, [r4, #1]
 313:.\User_Source/main.c ****         Relay_3W_Write(0);
 343              		.loc 1 313 0
 344 008a 2B78     		ldrb	r3, [r5]
 345 008c 0632     		add	r2, r2, #6
 346 008e 9343     		bic	r3, r2
 347 0090 2B70     		strb	r3, [r5]
 348              		.loc 1 314 0
 349 0092 FFF7FEFF 		bl	Relay_3W_Write
 350              	.LVL22:
 315:.\User_Source/main.c ****         Relay_1P_Write(0);
 351              		.loc 1 315 0
 352 0096 0020     		mov	r0, #0
 353 0098 FFF7FEFF 		bl	Relay_1P_Write
 354              	.LVL23:
 355 009c 00E0     		b	.L14
 356              	.L13:
 316:.\User_Source/main.c ****     }
 317:.\User_Source/main.c ****     else Nuisance_Trigger = 0;
 357              		.loc 1 317 0
 358 009e 3370     		strb	r3, [r6]
 359              	.L14:
 318:.\User_Source/main.c ****     
 319:.\User_Source/main.c ****     if (Nuisance_Trigger >= dead_zone) 
 360              		.loc 1 319 0
 361 00a0 3378     		ldrb	r3, [r6]
 362 00a2 022B     		cmp	r3, #2
 363 00a4 03D9     		bls	.L9
 320:.\User_Source/main.c ****     {
 321:.\User_Source/main.c ****         TMR_Status.ovldend_bug = CLEAR;
 364              		.loc 1 321 0
 365 00a6 0122     		mov	r2, #1
 366 00a8 6B78     		ldrb	r3, [r5, #1]
 367 00aa 9343     		bic	r3, r2
 368 00ac 6B70     		strb	r3, [r5, #1]
 369              	.L9:
 322:.\User_Source/main.c ****     }
 323:.\User_Source/main.c **** 
 324:.\User_Source/main.c **** }
 370              		.loc 1 324 0
 371              		@ sp needed
 372 00ae F8BD     		pop	{r3, r4, r5, r6, r7, pc}
 373              	.L21:
 374              		.align	2
ARM GAS  C:\Users\syhaines\AppData\Local\Temp\ccb8Rhum.s 			page 14


 375              	.L20:
 376 00b0 00000000 		.word	DMR_Status
 377 00b4 10180000 		.word	6160
 378 00b8 00000000 		.word	FLASH_CNT
 379 00bc 00000000 		.word	UI_VAL
 380 00c0 00000000 		.word	PWM_MAX
 381 00c4 00000000 		.word	PWM_CHG
 382 00c8 00000000 		.word	TMR_Status
 383 00cc 00000000 		.word	Nuisance_Trigger
 384              		.cfi_endproc
 385              	.LFE35:
 386              		.size	gp_100mS_timer, .-gp_100mS_timer
 387              		.global	__aeabi_idiv
 388              		.section	.text.startup.main,"ax",%progbits
 389              		.align	1
 390              		.global	main
 391              		.code	16
 392              		.thumb_func
 393              		.type	main, %function
 394              	main:
 395              	.LFB33:
  42:.\User_Source/main.c ****     Test_Write(0);
 396              		.loc 1 42 0
 397              		.cfi_startproc
 398 0000 70B5     		push	{r4, r5, r6, lr}
 399              		.cfi_def_cfa_offset 16
 400              		.cfi_offset 4, -16
 401              		.cfi_offset 5, -12
 402              		.cfi_offset 6, -8
 403              		.cfi_offset 14, -4
  43:.\User_Source/main.c ****     
 404              		.loc 1 43 0
 405 0002 0020     		mov	r0, #0
 406 0004 FFF7FEFF 		bl	Test_Write
 407              	.LVL24:
  46:.\User_Source/main.c ****     
 408              		.loc 1 46 0
 409 0008 FFF7FEFF 		bl	read_data_flash
 410              	.LVL25:
  48:.\User_Source/main.c ****     init_pb_status();
 411              		.loc 1 48 0
 412 000c FFF7FEFF 		bl	init_dimmer_status
 413              	.LVL26:
  49:.\User_Source/main.c ****     
 414              		.loc 1 49 0
 415 0010 FFF7FEFF 		bl	init_pb_status
 416              	.LVL27:
  51:.\User_Source/main.c ****     
 417              		.loc 1 51 0
 418              	@ 51 ".\User_Source\main.c" 1
 419 0014 62B6     		CPSIE   i
 420              	@ 0 "" 2
 421              		.code	16
 422              	.L38:
  63:.\User_Source/main.c ****         #endif
 423              		.loc 1 63 0
 424 0016 FFF7FEFF 		bl	CySysWdtUnlock
ARM GAS  C:\Users\syhaines\AppData\Local\Temp\ccb8Rhum.s 			page 15


 425              	.LVL28:
 426 001a 8020     		mov	r0, #128
 427 001c 0001     		lsl	r0, r0, #4
 428 001e FFF7FEFF 		bl	CySysWdtResetCounters
 429              	.LVL29:
 430 0022 FFF7FEFF 		bl	CySysWdtLock
 431              	.LVL30:
  65:.\User_Source/main.c ****         PWM_CURRENT = Dimming_ReadCompare();
 432              		.loc 1 65 0
 433 0026 FFF7FEFF 		bl	Test_ReadDataReg
 434              	.LVL31:
 435 002a C043     		mvn	r0, r0
 436 002c C0B2     		uxtb	r0, r0
 437 002e FFF7FEFF 		bl	Test_Write
 438              	.LVL32:
  66:.\User_Source/main.c ****         
 439              		.loc 1 66 0
 440 0032 FFF7FEFF 		bl	Dimming_ReadCompare
 441              	.LVL33:
 442 0036 604B     		ldr	r3, .L54
  70:.\User_Source/main.c ****         {
 443              		.loc 1 70 0
 444 0038 604E     		ldr	r6, .L54+4
  66:.\User_Source/main.c ****         
 445              		.loc 1 66 0
 446 003a 1880     		strh	r0, [r3]
  70:.\User_Source/main.c ****         {
 447              		.loc 1 70 0
 448 003c 3378     		ldrb	r3, [r6]
 449 003e 604D     		ldr	r5, .L54+8
 450 0040 012B     		cmp	r3, #1
 451 0042 17D9     		bls	.L23
  70:.\User_Source/main.c ****         {
 452              		.loc 1 70 0 is_stmt 0 discriminator 1
 453 0044 6023     		mov	r3, #96
 454 0046 6C78     		ldrb	r4, [r5, #1]
 455 0048 1C40     		and	r4, r3
 456 004a 13D1     		bne	.L23
  72:.\User_Source/main.c ****             GOTO_BED_INTERVAL = (gotobed_totaltime*gotobed_scalefactor)/((PWM_MIN-PWM_TARGET)/PWM_C
 457              		.loc 1 72 0 is_stmt 1
 458 004c 1022     		mov	r2, #16
 459 004e 2B78     		ldrb	r3, [r5]
 460 0050 1343     		orr	r3, r2
 461 0052 2B70     		strb	r3, [r5]
  73:.\User_Source/main.c ****             //scaled so that is always takes about 25s to 'go to bed'
 462              		.loc 1 73 0
 463 0054 5B4A     		ldr	r2, .L54+12
 464 0056 5C4B     		ldr	r3, .L54+16
 465 0058 1088     		ldrh	r0, [r2]
 466 005a 1B88     		ldrh	r3, [r3]
 467 005c 181A     		sub	r0, r3, r0
 468 005e 5B4B     		ldr	r3, .L54+20
 469 0060 1988     		ldrh	r1, [r3]
 470 0062 FFF7FEFF 		bl	__aeabi_idiv
 471              	.LVL34:
 472 0066 011C     		mov	r1, r0
 473 0068 FA20     		mov	r0, #250
ARM GAS  C:\Users\syhaines\AppData\Local\Temp\ccb8Rhum.s 			page 16


 474 006a FFF7FEFF 		bl	__aeabi_idiv
 475              	.LVL35:
 476 006e 584B     		ldr	r3, .L54+24
  75:.\User_Source/main.c ****         }
 477              		.loc 1 75 0
 478 0070 3470     		strb	r4, [r6]
  73:.\User_Source/main.c ****             //scaled so that is always takes about 25s to 'go to bed'
 479              		.loc 1 73 0
 480 0072 1870     		strb	r0, [r3]
 481              	.L23:
  80:.\User_Source/main.c ****         {
 482              		.loc 1 80 0
 483 0074 FFF7FEFF 		bl	Zero_Cross_GetCompare
 484              	.LVL36:
 485 0078 564C     		ldr	r4, .L54+28
 486 007a 4022     		mov	r2, #64
  82:.\User_Source/main.c ****             TMR_Status.neg_half = SET;
 487              		.loc 1 82 0
 488 007c 2378     		ldrb	r3, [r4]
  80:.\User_Source/main.c ****         {
 489              		.loc 1 80 0
 490 007e 0028     		cmp	r0, #0
 491 0080 03D1     		bne	.L24
  83:.\User_Source/main.c ****         }
 492              		.loc 1 83 0
 493 0082 9343     		bic	r3, r2
 494 0084 C03A     		sub	r2, r2, #192
 495 0086 1343     		orr	r3, r2
 496 0088 02E0     		b	.L51
 497              	.L24:
  88:.\User_Source/main.c ****         }
 498              		.loc 1 88 0
 499 008a 1343     		orr	r3, r2
 500 008c 7F22     		mov	r2, #127
 501 008e 1340     		and	r3, r2
 502              	.L51:
 503 0090 2370     		strb	r3, [r4]
  93:.\User_Source/main.c ****         {
 504              		.loc 1 93 0
 505 0092 2378     		ldrb	r3, [r4]
 506 0094 9B07     		lsl	r3, r3, #30
 507 0096 0ED5     		bpl	.L27
  93:.\User_Source/main.c ****         {
 508              		.loc 1 93 0 is_stmt 0 discriminator 1
 509 0098 FFF7FEFF 		bl	I_Sense_Read
 510              	.LVL37:
 511 009c 0128     		cmp	r0, #1
 512 009e 0AD1     		bne	.L27
  93:.\User_Source/main.c ****         {
 513              		.loc 1 93 0 discriminator 2
 514 00a0 2378     		ldrb	r3, [r4]
 515 00a2 DB09     		lsr	r3, r3, #7
 516 00a4 07D0     		beq	.L27
  95:.\User_Source/main.c ****         }
 517              		.loc 1 95 0 is_stmt 1
 518 00a6 4C4A     		ldr	r2, .L54+32
 519 00a8 1378     		ldrb	r3, [r2]
ARM GAS  C:\Users\syhaines\AppData\Local\Temp\ccb8Rhum.s 			page 17


 520 00aa 0133     		add	r3, r3, #1
 521 00ac DBB2     		uxtb	r3, r3
 522 00ae 082B     		cmp	r3, #8
 523 00b0 00D9     		bls	.L52
  95:.\User_Source/main.c ****         }
 524              		.loc 1 95 0 is_stmt 0 discriminator 1
 525 00b2 0823     		mov	r3, #8
 526              	.L52:
 527 00b4 1370     		strb	r3, [r2]
 528              	.L27:
  99:.\User_Source/main.c ****         {
 529              		.loc 1 99 0 is_stmt 1
 530 00b6 494E     		ldr	r6, .L54+36
 531 00b8 3378     		ldrb	r3, [r6]
 532 00ba C72B     		cmp	r3, #199
 533 00bc 0CD9     		bls	.L30
 107:.\User_Source/main.c ****             read_pushbutton(PB_UP);
 534              		.loc 1 107 0
 535 00be 0020     		mov	r0, #0
 536 00c0 FFF7FEFF 		bl	read_pushbutton
 537              	.LVL38:
 108:.\User_Source/main.c ****             read_pushbutton(PB_DOWN);
 538              		.loc 1 108 0
 539 00c4 0120     		mov	r0, #1
 540 00c6 FFF7FEFF 		bl	read_pushbutton
 541              	.LVL39:
 109:.\User_Source/main.c ****             
 542              		.loc 1 109 0
 543 00ca 0220     		mov	r0, #2
 544 00cc FFF7FEFF 		bl	read_pushbutton
 545              	.LVL40:
 111:.\User_Source/main.c ****             
 546              		.loc 1 111 0
 547 00d0 FFF7FEFF 		bl	button_response
 548              	.LVL41:
 113:.\User_Source/main.c ****         }  
 549              		.loc 1 113 0
 550 00d4 0023     		mov	r3, #0
 551 00d6 3370     		strb	r3, [r6]
 552              	.L30:
 118:.\User_Source/main.c ****         {
 553              		.loc 1 118 0
 554 00d8 0426     		mov	r6, #4
 555 00da 6B78     		ldrb	r3, [r5, #1]
 556 00dc 3342     		tst	r3, r6
 557 00de 1CD0     		beq	.L31
 118:.\User_Source/main.c ****         {
 558              		.loc 1 118 0 is_stmt 0 discriminator 1
 559 00e0 2378     		ldrb	r3, [r4]
 560 00e2 3342     		tst	r3, r6
 561 00e4 19D0     		beq	.L31
 120:.\User_Source/main.c ****             NON_VOL_A[PWM_Max_Low] = PWM_MAX & 0xFF; 
 562              		.loc 1 120 0 is_stmt 1
 563 00e6 3E4B     		ldr	r3, .L54+40
 564 00e8 1A88     		ldrh	r2, [r3]
 565 00ea 3E4B     		ldr	r3, .L54+44
 566 00ec 110A     		lsr	r1, r2, #8
ARM GAS  C:\Users\syhaines\AppData\Local\Temp\ccb8Rhum.s 			page 18


 121:.\User_Source/main.c ****             NON_VOL_A[PWM_Min_High] = (PWM_MIN>>8); 
 567              		.loc 1 121 0
 568 00ee D2B2     		uxtb	r2, r2
 120:.\User_Source/main.c ****             NON_VOL_A[PWM_Max_Low] = PWM_MAX & 0xFF; 
 569              		.loc 1 120 0
 570 00f0 1971     		strb	r1, [r3, #4]
 121:.\User_Source/main.c ****             NON_VOL_A[PWM_Min_High] = (PWM_MIN>>8); 
 571              		.loc 1 121 0
 572 00f2 DA70     		strb	r2, [r3, #3]
 122:.\User_Source/main.c ****             NON_VOL_A[PWM_Min_Low] = PWM_MIN & 0xFF; 
 573              		.loc 1 122 0
 574 00f4 344A     		ldr	r2, .L54+16
 575 00f6 1288     		ldrh	r2, [r2]
 576 00f8 110A     		lsr	r1, r2, #8
 123:.\User_Source/main.c ****             NON_VOL_A[PWM_Trgt_High] = (PWM_TARGET>>8); 
 577              		.loc 1 123 0
 578 00fa D2B2     		uxtb	r2, r2
 122:.\User_Source/main.c ****             NON_VOL_A[PWM_Min_Low] = PWM_MIN & 0xFF; 
 579              		.loc 1 122 0
 580 00fc 9970     		strb	r1, [r3, #2]
 123:.\User_Source/main.c ****             NON_VOL_A[PWM_Trgt_High] = (PWM_TARGET>>8); 
 581              		.loc 1 123 0
 582 00fe 5A70     		strb	r2, [r3, #1]
 124:.\User_Source/main.c ****             NON_VOL_A[PWM_Trgt_Low] = PWM_TARGET & 0xFF;
 583              		.loc 1 124 0
 584 0100 304A     		ldr	r2, .L54+12
 585 0102 1288     		ldrh	r2, [r2]
 586 0104 110A     		lsr	r1, r2, #8
 125:.\User_Source/main.c ****             // store key so that future cal updates
 587              		.loc 1 125 0
 588 0106 D2B2     		uxtb	r2, r2
 124:.\User_Source/main.c ****             NON_VOL_A[PWM_Trgt_Low] = PWM_TARGET & 0xFF;
 589              		.loc 1 124 0
 590 0108 9971     		strb	r1, [r3, #6]
 125:.\User_Source/main.c ****             // store key so that future cal updates
 591              		.loc 1 125 0
 592 010a 5A71     		strb	r2, [r3, #5]
 128:.\User_Source/main.c ****             write_data_flash();
 593              		.loc 1 128 0
 594 010c 1B22     		mov	r2, #27
 595 010e 1A70     		strb	r2, [r3]
 129:.\User_Source/main.c ****             DMR_Status.store_status = CLEAR;
 596              		.loc 1 129 0
 597 0110 FFF7FEFF 		bl	write_data_flash
 598              	.LVL42:
 130:.\User_Source/main.c ****         }
 599              		.loc 1 130 0
 600 0114 6B78     		ldrb	r3, [r5, #1]
 601 0116 B343     		bic	r3, r6
 602 0118 6B70     		strb	r3, [r5, #1]
 603              	.L31:
 135:.\User_Source/main.c ****         {
 604              		.loc 1 135 0
 605 011a 334E     		ldr	r6, .L54+48
 606 011c 3378     		ldrb	r3, [r6]
 607 011e 632B     		cmp	r3, #99
 608 0120 21D9     		bls	.L32
ARM GAS  C:\Users\syhaines\AppData\Local\Temp\ccb8Rhum.s 			page 19


 137:.\User_Source/main.c ****             if ((DMR_Status.on || DMR_Status.fade_off || DMR_Status.fade_on) && !DMR_Status.throwre
 609              		.loc 1 137 0
 610 0122 0023     		mov	r3, #0
 138:.\User_Source/main.c ****             {
 611              		.loc 1 138 0
 612 0124 2A78     		ldrb	r2, [r5]
 137:.\User_Source/main.c ****             if ((DMR_Status.on || DMR_Status.fade_off || DMR_Status.fade_on) && !DMR_Status.throwre
 613              		.loc 1 137 0
 614 0126 3370     		strb	r3, [r6]
 138:.\User_Source/main.c ****             {
 615              		.loc 1 138 0
 616 0128 0D33     		add	r3, r3, #13
 617 012a 1A42     		tst	r2, r3
 618 012c 0FD0     		beq	.L33
 138:.\User_Source/main.c ****             {
 619              		.loc 1 138 0 is_stmt 0 discriminator 1
 620 012e 6D78     		ldrb	r5, [r5, #1]
 621 0130 0B3B     		sub	r3, r3, #11
 622 0132 1D40     		and	r5, r3
 623 0134 0BD1     		bne	.L33
 140:.\User_Source/main.c ****                 LED_Main_Write(0xFF);
 624              		.loc 1 140 0 is_stmt 1
 625 0136 2D4B     		ldr	r3, .L54+52
 626 0138 1878     		ldrb	r0, [r3]
 627 013a FFF7FEFF 		bl	user_interface
 628              	.LVL43:
 141:.\User_Source/main.c ****                 LED_Plus_Write(0);
 629              		.loc 1 141 0
 630 013e FF20     		mov	r0, #255
 631 0140 FFF7FEFF 		bl	LED_Main_Write
 632              	.LVL44:
 142:.\User_Source/main.c ****                 LED_Minus_Write(0);
 633              		.loc 1 142 0
 634 0144 281C     		mov	r0, r5
 635 0146 FFF7FEFF 		bl	LED_Plus_Write
 636              	.LVL45:
 143:.\User_Source/main.c ****             }
 637              		.loc 1 143 0
 638 014a 281C     		mov	r0, r5
 639 014c 09E0     		b	.L53
 640              	.L33:
 147:.\User_Source/main.c ****                 LED_Main_Write(0);
 641              		.loc 1 147 0
 642 014e 0020     		mov	r0, #0
 643 0150 FFF7FEFF 		bl	user_interface
 644              	.LVL46:
 148:.\User_Source/main.c ****                 LED_Plus_Write(0xFF);
 645              		.loc 1 148 0
 646 0154 0020     		mov	r0, #0
 647 0156 FFF7FEFF 		bl	LED_Main_Write
 648              	.LVL47:
 149:.\User_Source/main.c ****                 LED_Minus_Write(0xFF);
 649              		.loc 1 149 0
 650 015a FF20     		mov	r0, #255
 651 015c FFF7FEFF 		bl	LED_Plus_Write
 652              	.LVL48:
 150:.\User_Source/main.c ****             }
ARM GAS  C:\Users\syhaines\AppData\Local\Temp\ccb8Rhum.s 			page 20


 653              		.loc 1 150 0
 654 0160 FF20     		mov	r0, #255
 655              	.L53:
 656 0162 FFF7FEFF 		bl	LED_Minus_Write
 657              	.LVL49:
 658              	.L32:
 153:.\User_Source/main.c ****         if (TICK_CNT_Display >= PWM_display_bargraph) user_interface(0);
 659              		.loc 1 153 0
 660 0166 3378     		ldrb	r3, [r6]
 661 0168 042B     		cmp	r3, #4
 662 016a 02D9     		bls	.L34
 153:.\User_Source/main.c ****         if (TICK_CNT_Display >= PWM_display_bargraph) user_interface(0);
 663              		.loc 1 153 0 is_stmt 0 discriminator 1
 664 016c FF20     		mov	r0, #255
 665 016e FFF7FEFF 		bl	LED_Main_Write
 666              	.LVL50:
 667              	.L34:
 154:.\User_Source/main.c ****         if (TICK_CNT_Display >= PWM_display_plusminus)
 668              		.loc 1 154 0 is_stmt 1
 669 0172 3378     		ldrb	r3, [r6]
 670 0174 272B     		cmp	r3, #39
 671 0176 02D9     		bls	.L35
 154:.\User_Source/main.c ****         if (TICK_CNT_Display >= PWM_display_plusminus)
 672              		.loc 1 154 0 is_stmt 0 discriminator 1
 673 0178 0020     		mov	r0, #0
 674 017a FFF7FEFF 		bl	user_interface
 675              	.LVL51:
 676              	.L35:
 155:.\User_Source/main.c ****         {
 677              		.loc 1 155 0 is_stmt 1
 678 017e 3378     		ldrb	r3, [r6]
 679 0180 272B     		cmp	r3, #39
 680 0182 05D9     		bls	.L36
 157:.\User_Source/main.c ****             LED_Minus_Write(0xFF);
 681              		.loc 1 157 0
 682 0184 FF20     		mov	r0, #255
 683 0186 FFF7FEFF 		bl	LED_Plus_Write
 684              	.LVL52:
 158:.\User_Source/main.c ****         }
 685              		.loc 1 158 0
 686 018a FF20     		mov	r0, #255
 687 018c FFF7FEFF 		bl	LED_Minus_Write
 688              	.LVL53:
 689              	.L36:
 162:.\User_Source/main.c ****         {
 690              		.loc 1 162 0
 691 0190 174B     		ldr	r3, .L54+56
 692 0192 184A     		ldr	r2, .L54+60
 693 0194 1988     		ldrh	r1, [r3]
 694 0196 9142     		cmp	r1, r2
 695 0198 07D9     		bls	.L37
 164:.\User_Source/main.c ****         TMR_Status.gp_100mS_tick = SET;
 696              		.loc 1 164 0
 697 019a 0022     		mov	r2, #0
 698 019c 1A80     		strh	r2, [r3]
 165:.\User_Source/main.c ****         gp_100mS_timer();
 699              		.loc 1 165 0
ARM GAS  C:\Users\syhaines\AppData\Local\Temp\ccb8Rhum.s 			page 21


 700 019e 2378     		ldrb	r3, [r4]
 701 01a0 1032     		add	r2, r2, #16
 702 01a2 1343     		orr	r3, r2
 703 01a4 2370     		strb	r3, [r4]
 166:.\User_Source/main.c ****         }
 704              		.loc 1 166 0
 705 01a6 FFF7FEFF 		bl	gp_100mS_timer
 706              	.LVL54:
 707              	.L37:
 171:.\User_Source/main.c ****         
 708              		.loc 1 171 0
 709 01aa F923     		mov	r3, #249
 170:.\User_Source/main.c ****         TMR_Status.second = CLEAR;          //clear the second flag
 710              		.loc 1 170 0
 711 01ac 2278     		ldrb	r2, [r4]
 171:.\User_Source/main.c ****         
 712              		.loc 1 171 0
 713 01ae 1340     		and	r3, r2
 714 01b0 2370     		strb	r3, [r4]
 174:.\User_Source/main.c ****     }
 715              		.loc 1 174 0
 716 01b2 FFF7FEFF 		bl	CySysPmSleep
 717              	.LVL55:
 175:.\User_Source/main.c **** }
 718              		.loc 1 175 0
 719 01b6 2EE7     		b	.L38
 720              	.L55:
 721              		.align	2
 722              	.L54:
 723 01b8 00000000 		.word	PWM_CURRENT
 724 01bc 00000000 		.word	SECOND_CNTR
 725 01c0 00000000 		.word	DMR_Status
 726 01c4 00000000 		.word	PWM_TARGET
 727 01c8 00000000 		.word	PWM_MIN
 728 01cc 00000000 		.word	PWM_CHG
 729 01d0 00000000 		.word	GOTO_BED_INTERVAL
 730 01d4 00000000 		.word	TMR_Status
 731 01d8 00000000 		.word	I_SENSE_CNT
 732 01dc 00000000 		.word	PB_INTERVAL_TICK
 733 01e0 00000000 		.word	PWM_MAX
 734 01e4 00000000 		.word	NON_VOL_A
 735 01e8 00000000 		.word	TICK_CNT_Display
 736 01ec 00000000 		.word	UI_VAL
 737 01f0 00000000 		.word	TICK_CNT_100mS
 738 01f4 CF070000 		.word	1999
 739              		.cfi_endproc
 740              	.LFE33:
 741              		.size	main, .-main
 742              		.comm	DMR_Status,2,2
 743              		.comm	TMR_Status,2,1
 744              		.comm	PB_Status,3,1
 745              		.comm	RELAY_STATE,1,1
 746              		.comm	NON_VOL_A,8,1
 747              		.comm	PWM_CAL_CNT,2,2
 748              		.comm	PWM_TARGET,2,2
 749              		.comm	PWM_MIN,2,2
 750              		.comm	PWM_CHG,2,2
ARM GAS  C:\Users\syhaines\AppData\Local\Temp\ccb8Rhum.s 			page 22


 751              		.comm	PWM_MAX,2,2
 752              		.comm	PWM_CURRENT,2,2
 753              		.comm	FLASH_CNT,1,1
 754              		.comm	GOTO_BED_INTERVAL,1,1
 755              		.comm	Nuisance_Trigger,1,1
 756              		.comm	RELAY_OFFSET,1,1
 757              		.comm	RELAY_CNT,2,2
 758              		.comm	I_SENSE_ACC,2,2
 759              		.comm	I_SENSE_CNT,1,1
 760              		.comm	TICK_CNT_Display,1,1
 761              		.comm	TICK_DBL_TAP,2,2
 762              		.comm	TICK_CNT_100mS,2,2
 763              		.comm	TICK_CNT,2,2
 764              		.comm	DMR_ADJ_CNT,1,1
 765              		.comm	FADE_CNT,1,1
 766              		.comm	UI_TICK_CNT,1,1
 767              		.comm	SECOND_CNTR,1,1
 768              		.comm	ZC_CNTR,1,1
 769              		.comm	PB_INTERVAL_TICK,1,1
 770              		.comm	MCU_OSC_ACC,1,1
 771              		.comm	ZC_TEST,2,2
 772              		.comm	UI_VAL,2,2
 773              		.comm	UI_CNTR,1,1
 774              		.text
 775              	.Letext0:
 776              		.file 2 "c:\\program files (x86)\\cypress\\psoc creator\\3.3\\psoc creator\\import\\gnu\\arm\\4.9.
 777              		.file 3 "c:\\program files (x86)\\cypress\\psoc creator\\3.3\\psoc creator\\import\\gnu\\arm\\4.9.
 778              		.file 4 "Generated_Source\\PSoC4/cytypes.h"
 779              		.file 5 ".\\User_Source/user_main.h"
 780              		.file 6 ".\\User_Source/CY8C4124.h"
 781              		.file 7 "Generated_Source\\PSoC4/ZC_ISR.h"
 782              		.file 8 "Generated_Source\\PSoC4/Zero_Cross.h"
 783              		.file 9 "Generated_Source\\PSoC4/PWM_ISR.h"
 784              		.file 10 "Generated_Source\\PSoC4/Dimming.h"
 785              		.file 11 "Generated_Source\\PSoC4/Opto_PWM.h"
 786              		.file 12 "Generated_Source\\PSoC4/Relay_Fire_ISR.h"
 787              		.file 13 "Generated_Source\\PSoC4/Relay_Offset.h"
 788              		.file 14 "Generated_Source\\PSoC4/CyLib.h"
 789              		.file 15 "Generated_Source\\PSoC4/Relay_3W.h"
 790              		.file 16 "Generated_Source\\PSoC4/Relay_1P.h"
 791              		.file 17 "Generated_Source\\PSoC4/Test.h"
 792              		.file 18 ".\\User_Source/pushbutton.h"
 793              		.file 19 "Generated_Source\\PSoC4/I_Sense.h"
 794              		.file 20 ".\\User_Source/dimming_ctrl.h"
 795              		.file 21 "Generated_Source\\PSoC4/LED_Main.h"
 796              		.file 22 "Generated_Source\\PSoC4/LED_Plus.h"
 797              		.file 23 "Generated_Source\\PSoC4/LED_Minus.h"
 798              		.file 24 "Generated_Source\\PSoC4/cyPm.h"