ARM GAS  C:\Users\syhaines\AppData\Local\Temp\ccAcuQYc.s 			page 1


   1              		.cpu cortex-m0
   2              		.fpu softvfp
   3              		.eabi_attribute 20, 1
   4              		.eabi_attribute 21, 1
   5              		.eabi_attribute 23, 3
   6              		.eabi_attribute 24, 1
   7              		.eabi_attribute 25, 1
   8              		.eabi_attribute 26, 1
   9              		.eabi_attribute 30, 4
  10              		.eabi_attribute 34, 0
  11              		.eabi_attribute 18, 4
  12              		.code	16
  13              		.file	"Relay_Cal_Bytes.c"
  14              		.text
  15              	.Ltext0:
  16              		.cfi_sections	.debug_frame
  17              		.section	.text.Relay_Cal_Bytes_Start,"ax",%progbits
  18              		.align	1
  19              		.global	Relay_Cal_Bytes_Start
  20              		.code	16
  21              		.thumb_func
  22              		.type	Relay_Cal_Bytes_Start, %function
  23              	Relay_Cal_Bytes_Start:
  24              	.LFB0:
  25              		.file 1 ".\\Generated_Source\\PSoC4\\Relay_Cal_Bytes.c"
   1:.\Generated_Source\PSoC4/Relay_Cal_Bytes.c **** /*******************************************************************************
   2:.\Generated_Source\PSoC4/Relay_Cal_Bytes.c **** * File Name: Relay_Cal_Bytes.c
   3:.\Generated_Source\PSoC4/Relay_Cal_Bytes.c **** * Version 1.10
   4:.\Generated_Source\PSoC4/Relay_Cal_Bytes.c **** *
   5:.\Generated_Source\PSoC4/Relay_Cal_Bytes.c **** * Description:
   6:.\Generated_Source\PSoC4/Relay_Cal_Bytes.c **** *  This file provides the source code to API for the Emulated EEPROM Component.
   7:.\Generated_Source\PSoC4/Relay_Cal_Bytes.c **** *
   8:.\Generated_Source\PSoC4/Relay_Cal_Bytes.c **** ********************************************************************************
   9:.\Generated_Source\PSoC4/Relay_Cal_Bytes.c **** * Copyright 2013, Cypress Semiconductor Corporation.  All rights reserved.
  10:.\Generated_Source\PSoC4/Relay_Cal_Bytes.c **** * You may use this file only in accordance with the license, terms, conditions,
  11:.\Generated_Source\PSoC4/Relay_Cal_Bytes.c **** * disclaimers, and limitations in the end user license agreement accompanying
  12:.\Generated_Source\PSoC4/Relay_Cal_Bytes.c **** * the software package with which this file was provided.
  13:.\Generated_Source\PSoC4/Relay_Cal_Bytes.c **** *******************************************************************************/
  14:.\Generated_Source\PSoC4/Relay_Cal_Bytes.c **** 
  15:.\Generated_Source\PSoC4/Relay_Cal_Bytes.c **** #include "Relay_Cal_Bytes.h"
  16:.\Generated_Source\PSoC4/Relay_Cal_Bytes.c **** 
  17:.\Generated_Source\PSoC4/Relay_Cal_Bytes.c **** 
  18:.\Generated_Source\PSoC4/Relay_Cal_Bytes.c **** /*******************************************************************************
  19:.\Generated_Source\PSoC4/Relay_Cal_Bytes.c **** * Function Name: Relay_Cal_Bytes_Start
  20:.\Generated_Source\PSoC4/Relay_Cal_Bytes.c **** ********************************************************************************
  21:.\Generated_Source\PSoC4/Relay_Cal_Bytes.c **** *
  22:.\Generated_Source\PSoC4/Relay_Cal_Bytes.c **** * Summary:
  23:.\Generated_Source\PSoC4/Relay_Cal_Bytes.c **** *  Empty function. Included for consistency with other
  24:.\Generated_Source\PSoC4/Relay_Cal_Bytes.c **** *  components.
  25:.\Generated_Source\PSoC4/Relay_Cal_Bytes.c **** *
  26:.\Generated_Source\PSoC4/Relay_Cal_Bytes.c **** * Parameters:
  27:.\Generated_Source\PSoC4/Relay_Cal_Bytes.c **** *  None
  28:.\Generated_Source\PSoC4/Relay_Cal_Bytes.c **** *
  29:.\Generated_Source\PSoC4/Relay_Cal_Bytes.c **** * Return:
  30:.\Generated_Source\PSoC4/Relay_Cal_Bytes.c **** *  None
  31:.\Generated_Source\PSoC4/Relay_Cal_Bytes.c **** *
  32:.\Generated_Source\PSoC4/Relay_Cal_Bytes.c **** *******************************************************************************/
ARM GAS  C:\Users\syhaines\AppData\Local\Temp\ccAcuQYc.s 			page 2


  33:.\Generated_Source\PSoC4/Relay_Cal_Bytes.c **** void Relay_Cal_Bytes_Start(void) 
  34:.\Generated_Source\PSoC4/Relay_Cal_Bytes.c **** {
  26              		.loc 1 34 0
  27              		.cfi_startproc
  35:.\Generated_Source\PSoC4/Relay_Cal_Bytes.c **** 
  36:.\Generated_Source\PSoC4/Relay_Cal_Bytes.c **** }
  28              		.loc 1 36 0
  29              		@ sp needed
  30 0000 7047     		bx	lr
  31              		.cfi_endproc
  32              	.LFE0:
  33              		.size	Relay_Cal_Bytes_Start, .-Relay_Cal_Bytes_Start
  34              		.section	.text.Relay_Cal_Bytes_Stop,"ax",%progbits
  35              		.align	1
  36              		.global	Relay_Cal_Bytes_Stop
  37              		.code	16
  38              		.thumb_func
  39              		.type	Relay_Cal_Bytes_Stop, %function
  40              	Relay_Cal_Bytes_Stop:
  41              	.LFB1:
  37:.\Generated_Source\PSoC4/Relay_Cal_Bytes.c **** 
  38:.\Generated_Source\PSoC4/Relay_Cal_Bytes.c **** 
  39:.\Generated_Source\PSoC4/Relay_Cal_Bytes.c **** /*******************************************************************************
  40:.\Generated_Source\PSoC4/Relay_Cal_Bytes.c **** * Function Name: Relay_Cal_Bytes_Stop
  41:.\Generated_Source\PSoC4/Relay_Cal_Bytes.c **** ********************************************************************************
  42:.\Generated_Source\PSoC4/Relay_Cal_Bytes.c **** *
  43:.\Generated_Source\PSoC4/Relay_Cal_Bytes.c **** * Summary:
  44:.\Generated_Source\PSoC4/Relay_Cal_Bytes.c **** *  Empty function. Included for consistency with other
  45:.\Generated_Source\PSoC4/Relay_Cal_Bytes.c **** *  components.
  46:.\Generated_Source\PSoC4/Relay_Cal_Bytes.c **** *
  47:.\Generated_Source\PSoC4/Relay_Cal_Bytes.c **** * Parameters:
  48:.\Generated_Source\PSoC4/Relay_Cal_Bytes.c **** *  None
  49:.\Generated_Source\PSoC4/Relay_Cal_Bytes.c **** *
  50:.\Generated_Source\PSoC4/Relay_Cal_Bytes.c **** * Return:
  51:.\Generated_Source\PSoC4/Relay_Cal_Bytes.c **** *  None
  52:.\Generated_Source\PSoC4/Relay_Cal_Bytes.c **** *
  53:.\Generated_Source\PSoC4/Relay_Cal_Bytes.c **** *******************************************************************************/
  54:.\Generated_Source\PSoC4/Relay_Cal_Bytes.c **** void Relay_Cal_Bytes_Stop(void) 
  55:.\Generated_Source\PSoC4/Relay_Cal_Bytes.c **** {
  42              		.loc 1 55 0
  43              		.cfi_startproc
  56:.\Generated_Source\PSoC4/Relay_Cal_Bytes.c **** 
  57:.\Generated_Source\PSoC4/Relay_Cal_Bytes.c **** }
  44              		.loc 1 57 0
  45              		@ sp needed
  46 0000 7047     		bx	lr
  47              		.cfi_endproc
  48              	.LFE1:
  49              		.size	Relay_Cal_Bytes_Stop, .-Relay_Cal_Bytes_Stop
  50              		.section	.text.Relay_Cal_Bytes_Write,"ax",%progbits
  51              		.align	1
  52              		.global	Relay_Cal_Bytes_Write
  53              		.code	16
  54              		.thumb_func
  55              		.type	Relay_Cal_Bytes_Write, %function
  56              	Relay_Cal_Bytes_Write:
  57              	.LFB2:
ARM GAS  C:\Users\syhaines\AppData\Local\Temp\ccAcuQYc.s 			page 3


  58:.\Generated_Source\PSoC4/Relay_Cal_Bytes.c **** 
  59:.\Generated_Source\PSoC4/Relay_Cal_Bytes.c **** 
  60:.\Generated_Source\PSoC4/Relay_Cal_Bytes.c **** /*******************************************************************************
  61:.\Generated_Source\PSoC4/Relay_Cal_Bytes.c **** * Function Name: Relay_Cal_Bytes_Write
  62:.\Generated_Source\PSoC4/Relay_Cal_Bytes.c **** ********************************************************************************
  63:.\Generated_Source\PSoC4/Relay_Cal_Bytes.c **** *
  64:.\Generated_Source\PSoC4/Relay_Cal_Bytes.c **** * Summary:
  65:.\Generated_Source\PSoC4/Relay_Cal_Bytes.c **** *  Writes the specified number of bytes from the source buffer in SRAM to the
  66:.\Generated_Source\PSoC4/Relay_Cal_Bytes.c **** *  emulated EEPROM array in flash, without modifying other data in flash.
  67:.\Generated_Source\PSoC4/Relay_Cal_Bytes.c **** *
  68:.\Generated_Source\PSoC4/Relay_Cal_Bytes.c **** * Parameters:
  69:.\Generated_Source\PSoC4/Relay_Cal_Bytes.c **** *  srcBuf:    Pointer to the SRAM buffer holding the data to write.
  70:.\Generated_Source\PSoC4/Relay_Cal_Bytes.c **** *  eepromPtr: Pointer to the array or variable in flash representing
  71:.\Generated_Source\PSoC4/Relay_Cal_Bytes.c **** *             the emulated EEPROM.
  72:.\Generated_Source\PSoC4/Relay_Cal_Bytes.c **** *  byteCount: Number of bytes to write from srcBuf to eepromPtr.
  73:.\Generated_Source\PSoC4/Relay_Cal_Bytes.c **** *
  74:.\Generated_Source\PSoC4/Relay_Cal_Bytes.c **** * Return:
  75:.\Generated_Source\PSoC4/Relay_Cal_Bytes.c **** *    CYRET_SUCCESS     Successful write.
  76:.\Generated_Source\PSoC4/Relay_Cal_Bytes.c **** *    CYRET_BAD_PARAM   eepromPtr is out of range of flash memory.
  77:.\Generated_Source\PSoC4/Relay_Cal_Bytes.c **** *    CYRET_UNKNOWN     Other error in writing flash.
  78:.\Generated_Source\PSoC4/Relay_Cal_Bytes.c **** *
  79:.\Generated_Source\PSoC4/Relay_Cal_Bytes.c **** *******************************************************************************/
  80:.\Generated_Source\PSoC4/Relay_Cal_Bytes.c **** #if (CY_PSOC3)
  81:.\Generated_Source\PSoC4/Relay_Cal_Bytes.c ****     cystatus Relay_Cal_Bytes_Write(const uint8 srcBuf[], const uint8 eepromPtr[], uint16 byteCount)
  82:.\Generated_Source\PSoC4/Relay_Cal_Bytes.c ****                                                                             
  83:.\Generated_Source\PSoC4/Relay_Cal_Bytes.c **** #else
  84:.\Generated_Source\PSoC4/Relay_Cal_Bytes.c ****     cystatus Relay_Cal_Bytes_Write(const uint8 srcBuf[], const uint8 eepromPtr[], uint32 byteCount)
  85:.\Generated_Source\PSoC4/Relay_Cal_Bytes.c **** #endif /* (!CY_PSOC3) */
  86:.\Generated_Source\PSoC4/Relay_Cal_Bytes.c **** {
  58              		.loc 1 86 0
  59              		.cfi_startproc
  60              	.LVL0:
  61 0000 F0B5     		push	{r4, r5, r6, r7, lr}
  62              		.cfi_def_cfa_offset 20
  63              		.cfi_offset 4, -20
  64              		.cfi_offset 5, -16
  65              		.cfi_offset 6, -12
  66              		.cfi_offset 7, -8
  67              		.cfi_offset 14, -4
  87:.\Generated_Source\PSoC4/Relay_Cal_Bytes.c ****     uint8 writeBuffer[CY_FLASH_SIZEOF_ROW];
  88:.\Generated_Source\PSoC4/Relay_Cal_Bytes.c ****     uint32 arrayId;
  89:.\Generated_Source\PSoC4/Relay_Cal_Bytes.c ****     uint32 rowId;
  90:.\Generated_Source\PSoC4/Relay_Cal_Bytes.c ****     uint32 dstIndex;
  91:.\Generated_Source\PSoC4/Relay_Cal_Bytes.c ****     uint32 srcIndex;
  92:.\Generated_Source\PSoC4/Relay_Cal_Bytes.c ****     cystatus rc;
  93:.\Generated_Source\PSoC4/Relay_Cal_Bytes.c ****     uint32 eeOffset;
  94:.\Generated_Source\PSoC4/Relay_Cal_Bytes.c ****     uint32 byteOffset;
  95:.\Generated_Source\PSoC4/Relay_Cal_Bytes.c ****     
  96:.\Generated_Source\PSoC4/Relay_Cal_Bytes.c ****     #if (!CY_PSOC4)
  97:.\Generated_Source\PSoC4/Relay_Cal_Bytes.c ****         #if (CYDEV_ECC_ENABLE == 0)
  98:.\Generated_Source\PSoC4/Relay_Cal_Bytes.c ****             uint8 rowBuffer[CY_FLASH_SIZEOF_ROW + CY_FLASH_SIZEOF_ECC_ROW];
  99:.\Generated_Source\PSoC4/Relay_Cal_Bytes.c ****         #endif /* CYDEV_ECC_ENABLE == 0) */
 100:.\Generated_Source\PSoC4/Relay_Cal_Bytes.c ****     #endif /* (!CY_PSOC4) */
 101:.\Generated_Source\PSoC4/Relay_Cal_Bytes.c **** 
 102:.\Generated_Source\PSoC4/Relay_Cal_Bytes.c ****     eeOffset = (uint32)eepromPtr;
 103:.\Generated_Source\PSoC4/Relay_Cal_Bytes.c ****     #if (CY_PSOC3)
 104:.\Generated_Source\PSoC4/Relay_Cal_Bytes.c ****         eeOffset &= Relay_Cal_Bytes_CODE_ADDR_MASK;
ARM GAS  C:\Users\syhaines\AppData\Local\Temp\ccAcuQYc.s 			page 4


 105:.\Generated_Source\PSoC4/Relay_Cal_Bytes.c ****     #endif /* (CY_PSOC3) */
 106:.\Generated_Source\PSoC4/Relay_Cal_Bytes.c **** 
 107:.\Generated_Source\PSoC4/Relay_Cal_Bytes.c ****     /* Make sure, that eepromPtr[] points to ROM */
 108:.\Generated_Source\PSoC4/Relay_Cal_Bytes.c ****     #if (CY_PSOC3)
 109:.\Generated_Source\PSoC4/Relay_Cal_Bytes.c ****         if (((uint32)eepromPtr >= Relay_Cal_Bytes_CODE_ADDR_OFFSET) &&
 110:.\Generated_Source\PSoC4/Relay_Cal_Bytes.c ****             (((uint32)eepromPtr + byteCount) <= Relay_Cal_Bytes_CODE_ADDR_END))
 111:.\Generated_Source\PSoC4/Relay_Cal_Bytes.c ****     #else
 112:.\Generated_Source\PSoC4/Relay_Cal_Bytes.c ****         if (((uint32)eepromPtr + byteCount) < Relay_Cal_Bytes_FLASH_END_ADDR)
  68              		.loc 1 112 0
  69 0002 1D4B     		ldr	r3, .L16
  70 0004 8D18     		add	r5, r1, r2
  86:.\Generated_Source\PSoC4/Relay_Cal_Bytes.c ****     uint8 writeBuffer[CY_FLASH_SIZEOF_ROW];
  71              		.loc 1 86 0
  72 0006 A5B0     		sub	sp, sp, #148
  73              		.cfi_def_cfa_offset 168
 113:.\Generated_Source\PSoC4/Relay_Cal_Bytes.c ****     #endif /* (CY_PSOC3) */
 114:.\Generated_Source\PSoC4/Relay_Cal_Bytes.c ****     {
 115:.\Generated_Source\PSoC4/Relay_Cal_Bytes.c ****         #if (!CY_PSOC4)
 116:.\Generated_Source\PSoC4/Relay_Cal_Bytes.c ****             (void)CySetTemp();
 117:.\Generated_Source\PSoC4/Relay_Cal_Bytes.c **** 
 118:.\Generated_Source\PSoC4/Relay_Cal_Bytes.c ****             #if(CYDEV_ECC_ENABLE == 0)
 119:.\Generated_Source\PSoC4/Relay_Cal_Bytes.c ****                 (void)CySetFlashEEBuffer(rowBuffer);
 120:.\Generated_Source\PSoC4/Relay_Cal_Bytes.c ****             #endif
 121:.\Generated_Source\PSoC4/Relay_Cal_Bytes.c ****         #endif /* (!CY_PSOC4) */
 122:.\Generated_Source\PSoC4/Relay_Cal_Bytes.c **** 
 123:.\Generated_Source\PSoC4/Relay_Cal_Bytes.c ****         arrayId = eeOffset / CY_FLASH_SIZEOF_ARRAY;
 124:.\Generated_Source\PSoC4/Relay_Cal_Bytes.c ****         rowId = (eeOffset / CY_FLASH_SIZEOF_ROW) % Relay_Cal_Bytes_ROWS_IN_ARRAY;
 125:.\Generated_Source\PSoC4/Relay_Cal_Bytes.c ****         byteOffset = (CY_FLASH_SIZEOF_ARRAY * arrayId) + (CY_FLASH_SIZEOF_ROW * rowId);
 126:.\Generated_Source\PSoC4/Relay_Cal_Bytes.c ****         srcIndex = 0u;
 127:.\Generated_Source\PSoC4/Relay_Cal_Bytes.c **** 
 128:.\Generated_Source\PSoC4/Relay_Cal_Bytes.c ****         rc = CYRET_SUCCESS;
 129:.\Generated_Source\PSoC4/Relay_Cal_Bytes.c **** 
 130:.\Generated_Source\PSoC4/Relay_Cal_Bytes.c ****         while ((srcIndex < byteCount) && (CYRET_SUCCESS == rc))
 131:.\Generated_Source\PSoC4/Relay_Cal_Bytes.c ****         {
 132:.\Generated_Source\PSoC4/Relay_Cal_Bytes.c ****             /* Copy data to the write buffer either from the source buffer or from the flash */
 133:.\Generated_Source\PSoC4/Relay_Cal_Bytes.c ****             for (dstIndex = 0u; dstIndex < CY_FLASH_SIZEOF_ROW; dstIndex++)
 134:.\Generated_Source\PSoC4/Relay_Cal_Bytes.c ****             {
 135:.\Generated_Source\PSoC4/Relay_Cal_Bytes.c ****                 if ((byteOffset >= eeOffset) && (srcIndex < byteCount))
 136:.\Generated_Source\PSoC4/Relay_Cal_Bytes.c ****                 {
 137:.\Generated_Source\PSoC4/Relay_Cal_Bytes.c ****                     writeBuffer[dstIndex] = srcBuf[srcIndex];
 138:.\Generated_Source\PSoC4/Relay_Cal_Bytes.c ****                     srcIndex++;
 139:.\Generated_Source\PSoC4/Relay_Cal_Bytes.c ****                 }
 140:.\Generated_Source\PSoC4/Relay_Cal_Bytes.c ****                 else
 141:.\Generated_Source\PSoC4/Relay_Cal_Bytes.c ****                 {
 142:.\Generated_Source\PSoC4/Relay_Cal_Bytes.c ****                     writeBuffer[dstIndex] = CY_GET_XTND_REG8(CYDEV_FLASH_BASE + byteOffset);
 143:.\Generated_Source\PSoC4/Relay_Cal_Bytes.c ****                 }
 144:.\Generated_Source\PSoC4/Relay_Cal_Bytes.c ****                 byteOffset++;
 145:.\Generated_Source\PSoC4/Relay_Cal_Bytes.c ****             }
 146:.\Generated_Source\PSoC4/Relay_Cal_Bytes.c **** 
 147:.\Generated_Source\PSoC4/Relay_Cal_Bytes.c ****             /* Write flash row */
 148:.\Generated_Source\PSoC4/Relay_Cal_Bytes.c ****             #if (CY_PSOC4)
 149:.\Generated_Source\PSoC4/Relay_Cal_Bytes.c ****                 rc = CySysFlashWriteRow(rowId, writeBuffer);
 150:.\Generated_Source\PSoC4/Relay_Cal_Bytes.c ****             #else
 151:.\Generated_Source\PSoC4/Relay_Cal_Bytes.c ****                 rc = CyWriteRowData((uint8)arrayId, (uint16)rowId, writeBuffer);
 152:.\Generated_Source\PSoC4/Relay_Cal_Bytes.c ****             #endif /* (CY_PSOC4) */
 153:.\Generated_Source\PSoC4/Relay_Cal_Bytes.c **** 
 154:.\Generated_Source\PSoC4/Relay_Cal_Bytes.c ****             /* Go to the next row */
ARM GAS  C:\Users\syhaines\AppData\Local\Temp\ccAcuQYc.s 			page 5


 155:.\Generated_Source\PSoC4/Relay_Cal_Bytes.c ****             rowId++;
 156:.\Generated_Source\PSoC4/Relay_Cal_Bytes.c ****             #if (CY_FLASH_NUMBER_ARRAYS > 1)
 157:.\Generated_Source\PSoC4/Relay_Cal_Bytes.c ****                 if (rowId >= Relay_Cal_Bytes_ROWS_IN_ARRAY)
 158:.\Generated_Source\PSoC4/Relay_Cal_Bytes.c ****                 {
 159:.\Generated_Source\PSoC4/Relay_Cal_Bytes.c ****                     arrayId++;
 160:.\Generated_Source\PSoC4/Relay_Cal_Bytes.c ****                     rowId = 0u;
 161:.\Generated_Source\PSoC4/Relay_Cal_Bytes.c ****                 }
 162:.\Generated_Source\PSoC4/Relay_Cal_Bytes.c ****             #endif /* (CY_FLASH_NUMBER_ARRAYS > 1) */
 163:.\Generated_Source\PSoC4/Relay_Cal_Bytes.c ****         }
 164:.\Generated_Source\PSoC4/Relay_Cal_Bytes.c **** 
 165:.\Generated_Source\PSoC4/Relay_Cal_Bytes.c ****         /* Flush both Cache and PHUB prefetch buffer */
 166:.\Generated_Source\PSoC4/Relay_Cal_Bytes.c ****         #if (CY_PSOC5)
 167:.\Generated_Source\PSoC4/Relay_Cal_Bytes.c ****             CyFlushCache();
 168:.\Generated_Source\PSoC4/Relay_Cal_Bytes.c ****         #elif (CY_PSOC3)
 169:.\Generated_Source\PSoC4/Relay_Cal_Bytes.c ****             CY_FLASH_CONTROL_REG |= 6u;
 170:.\Generated_Source\PSoC4/Relay_Cal_Bytes.c ****         #endif /* (CY_PSOC5) */
 171:.\Generated_Source\PSoC4/Relay_Cal_Bytes.c ****     }
 172:.\Generated_Source\PSoC4/Relay_Cal_Bytes.c ****     else
 173:.\Generated_Source\PSoC4/Relay_Cal_Bytes.c ****     {
 174:.\Generated_Source\PSoC4/Relay_Cal_Bytes.c ****         rc = CYRET_BAD_PARAM;
  74              		.loc 1 174 0
  75 0008 0124     		mov	r4, #1
 112:.\Generated_Source\PSoC4/Relay_Cal_Bytes.c ****     #endif /* (CY_PSOC3) */
  76              		.loc 1 112 0
  77 000a 9D42     		cmp	r5, r3
  78 000c 30D8     		bhi	.L10
  79 000e 0390     		str	r0, [sp, #12]
  80              	.LVL1:
 128:.\Generated_Source\PSoC4/Relay_Cal_Bytes.c **** 
  81              		.loc 1 128 0
  82 0010 0020     		mov	r0, #0
  83              	.LVL2:
 126:.\Generated_Source\PSoC4/Relay_Cal_Bytes.c **** 
  84              		.loc 1 126 0
  85 0012 071C     		mov	r7, r0
 124:.\Generated_Source\PSoC4/Relay_Cal_Bytes.c ****         byteOffset = (CY_FLASH_SIZEOF_ARRAY * arrayId) + (CY_FLASH_SIZEOF_ROW * rowId);
  86              		.loc 1 124 0
  87 0014 8D04     		lsl	r5, r1, #18
 123:.\Generated_Source\PSoC4/Relay_Cal_Bytes.c ****         rowId = (eeOffset / CY_FLASH_SIZEOF_ROW) % Relay_Cal_Bytes_ROWS_IN_ARRAY;
  88              		.loc 1 123 0
  89 0016 8C0B     		lsr	r4, r1, #14
 124:.\Generated_Source\PSoC4/Relay_Cal_Bytes.c ****         byteOffset = (CY_FLASH_SIZEOF_ARRAY * arrayId) + (CY_FLASH_SIZEOF_ROW * rowId);
  90              		.loc 1 124 0
  91 0018 6D0E     		lsr	r5, r5, #25
  92              	.LVL3:
 125:.\Generated_Source\PSoC4/Relay_Cal_Bytes.c ****         srcIndex = 0u;
  93              		.loc 1 125 0
  94 001a E401     		lsl	r4, r4, #7
  95 001c 6419     		add	r4, r4, r5
  96 001e E401     		lsl	r4, r4, #7
  97              	.LVL4:
  98 0020 04AE     		add	r6, sp, #16
  99 0022 0292     		str	r2, [sp, #8]
 100 0024 0191     		str	r1, [sp, #4]
 101              	.LVL5:
 102 0026 361B     		sub	r6, r6, r4
 103              	.LVL6:
ARM GAS  C:\Users\syhaines\AppData\Local\Temp\ccAcuQYc.s 			page 6


 104              	.L5:
 130:.\Generated_Source\PSoC4/Relay_Cal_Bytes.c ****         {
 105              		.loc 1 130 0
 106 0028 029B     		ldr	r3, [sp, #8]
 107 002a 9F42     		cmp	r7, r3
 108 002c 05D3     		bcc	.L9
 109              	.L14:
 110 002e 041E     		sub	r4, r0, #0
 111              	.LVL7:
 175:.\Generated_Source\PSoC4/Relay_Cal_Bytes.c ****     }
 176:.\Generated_Source\PSoC4/Relay_Cal_Bytes.c **** 
 177:.\Generated_Source\PSoC4/Relay_Cal_Bytes.c ****     /* Mask return codes from flash, if they are not supported */
 178:.\Generated_Source\PSoC4/Relay_Cal_Bytes.c ****     if ((CYRET_SUCCESS != rc) && (CYRET_BAD_PARAM != rc))
 112              		.loc 1 178 0
 113 0030 012C     		cmp	r4, #1
 114 0032 1DD9     		bls	.L10
 115              	.LVL8:
 179:.\Generated_Source\PSoC4/Relay_Cal_Bytes.c ****     {
 180:.\Generated_Source\PSoC4/Relay_Cal_Bytes.c ****         rc = CYRET_UNKNOWN;
 116              		.loc 1 180 0
 117 0034 0124     		mov	r4, #1
 118 0036 6442     		neg	r4, r4
 119 0038 1AE0     		b	.L10
 120              	.LVL9:
 121              	.L9:
 130:.\Generated_Source\PSoC4/Relay_Cal_Bytes.c ****         {
 122              		.loc 1 130 0 discriminator 1
 123 003a 0028     		cmp	r0, #0
 124 003c F7D1     		bne	.L14
 125 003e 231C     		mov	r3, r4
 126 0040 8033     		add	r3, r3, #128
 127              	.L8:
 128              	.LVL10:
 135:.\Generated_Source\PSoC4/Relay_Cal_Bytes.c ****                 {
 129              		.loc 1 135 0
 130 0042 019A     		ldr	r2, [sp, #4]
 131 0044 A242     		cmp	r2, r4
 132 0046 07D8     		bhi	.L6
 135:.\Generated_Source\PSoC4/Relay_Cal_Bytes.c ****                 {
 133              		.loc 1 135 0 is_stmt 0 discriminator 1
 134 0048 029A     		ldr	r2, [sp, #8]
 135 004a 9742     		cmp	r7, r2
 136 004c 04D2     		bcs	.L6
 137:.\Generated_Source\PSoC4/Relay_Cal_Bytes.c ****                     srcIndex++;
 137              		.loc 1 137 0 is_stmt 1
 138 004e 039A     		ldr	r2, [sp, #12]
 139 0050 D25D     		ldrb	r2, [r2, r7]
 138:.\Generated_Source\PSoC4/Relay_Cal_Bytes.c ****                 }
 140              		.loc 1 138 0
 141 0052 0137     		add	r7, r7, #1
 142              	.LVL11:
 137:.\Generated_Source\PSoC4/Relay_Cal_Bytes.c ****                     srcIndex++;
 143              		.loc 1 137 0
 144 0054 3255     		strb	r2, [r6, r4]
 138:.\Generated_Source\PSoC4/Relay_Cal_Bytes.c ****                 }
 145              		.loc 1 138 0
 146 0056 01E0     		b	.L7
ARM GAS  C:\Users\syhaines\AppData\Local\Temp\ccAcuQYc.s 			page 7


 147              	.L6:
 142:.\Generated_Source\PSoC4/Relay_Cal_Bytes.c ****                 }
 148              		.loc 1 142 0
 149 0058 2278     		ldrb	r2, [r4]
 150 005a 3255     		strb	r2, [r6, r4]
 151              	.L7:
 144:.\Generated_Source\PSoC4/Relay_Cal_Bytes.c ****             }
 152              		.loc 1 144 0 discriminator 2
 153 005c 0134     		add	r4, r4, #1
 154              	.LVL12:
 133:.\Generated_Source\PSoC4/Relay_Cal_Bytes.c ****             {
 155              		.loc 1 133 0 discriminator 2
 156 005e 9C42     		cmp	r4, r3
 157 0060 EFD1     		bne	.L8
 149:.\Generated_Source\PSoC4/Relay_Cal_Bytes.c ****             #else
 158              		.loc 1 149 0
 159 0062 281C     		mov	r0, r5
 160              	.LVL13:
 161 0064 04A9     		add	r1, sp, #16
 162 0066 FFF7FEFF 		bl	CySysFlashWriteRow
 163              	.LVL14:
 155:.\Generated_Source\PSoC4/Relay_Cal_Bytes.c ****             #if (CY_FLASH_NUMBER_ARRAYS > 1)
 164              		.loc 1 155 0
 165 006a 0135     		add	r5, r5, #1
 166              	.LVL15:
 167 006c 803E     		sub	r6, r6, #128
 168 006e DBE7     		b	.L5
 169              	.LVL16:
 170              	.L10:
 181:.\Generated_Source\PSoC4/Relay_Cal_Bytes.c ****     }
 182:.\Generated_Source\PSoC4/Relay_Cal_Bytes.c ****     
 183:.\Generated_Source\PSoC4/Relay_Cal_Bytes.c ****     return (rc);
 184:.\Generated_Source\PSoC4/Relay_Cal_Bytes.c **** }
 171              		.loc 1 184 0
 172 0070 201C     		mov	r0, r4
 173 0072 25B0     		add	sp, sp, #148
 174              		@ sp needed
 175              	.LVL17:
 176 0074 F0BD     		pop	{r4, r5, r6, r7, pc}
 177              	.L17:
 178 0076 C046     		.align	2
 179              	.L16:
 180 0078 FF3F0000 		.word	16383
 181              		.cfi_endproc
 182              	.LFE2:
 183              		.size	Relay_Cal_Bytes_Write, .-Relay_Cal_Bytes_Write
 184              		.text
 185              	.Letext0:
 186              		.file 2 ".\\Generated_Source\\PSoC4\\cytypes.h"
 187              		.file 3 ".\\Generated_Source\\PSoC4\\CyFlash.h"