ARM GAS  C:\Users\syhaines\AppData\Local\Temp\ccw1hiA6.s 			page 1


   1              		.cpu cortex-m0
   2              		.fpu softvfp
   3              		.eabi_attribute 20, 1
   4              		.eabi_attribute 21, 1
   5              		.eabi_attribute 23, 3
   6              		.eabi_attribute 24, 1
   7              		.eabi_attribute 25, 1
   8              		.eabi_attribute 26, 1
   9              		.eabi_attribute 30, 4
  10              		.eabi_attribute 34, 0
  11              		.eabi_attribute 18, 4
  12              		.code	16
  13              		.file	"Relay_Offset.c"
  14              		.text
  15              	.Ltext0:
  16              		.cfi_sections	.debug_frame
  17              		.section	.text.Relay_Offset_Init,"ax",%progbits
  18              		.align	1
  19              		.global	Relay_Offset_Init
  20              		.code	16
  21              		.thumb_func
  22              		.type	Relay_Offset_Init, %function
  23              	Relay_Offset_Init:
  24              	.LFB0:
  25              		.file 1 ".\\Generated_Source\\PSoC4\\Relay_Offset.c"
   1:.\Generated_Source\PSoC4/Relay_Offset.c **** /*******************************************************************************
   2:.\Generated_Source\PSoC4/Relay_Offset.c **** * File Name: Relay_Offset.c
   3:.\Generated_Source\PSoC4/Relay_Offset.c **** * Version 2.0
   4:.\Generated_Source\PSoC4/Relay_Offset.c **** *
   5:.\Generated_Source\PSoC4/Relay_Offset.c **** * Description:
   6:.\Generated_Source\PSoC4/Relay_Offset.c **** *  This file provides the source code to the API for the Relay_Offset
   7:.\Generated_Source\PSoC4/Relay_Offset.c **** *  component
   8:.\Generated_Source\PSoC4/Relay_Offset.c **** *
   9:.\Generated_Source\PSoC4/Relay_Offset.c **** * Note:
  10:.\Generated_Source\PSoC4/Relay_Offset.c **** *  None
  11:.\Generated_Source\PSoC4/Relay_Offset.c **** *
  12:.\Generated_Source\PSoC4/Relay_Offset.c **** ********************************************************************************
  13:.\Generated_Source\PSoC4/Relay_Offset.c **** * Copyright 2013-2014, Cypress Semiconductor Corporation.  All rights reserved.
  14:.\Generated_Source\PSoC4/Relay_Offset.c **** * You may use this file only in accordance with the license, terms, conditions,
  15:.\Generated_Source\PSoC4/Relay_Offset.c **** * disclaimers, and limitations in the end user license agreement accompanying
  16:.\Generated_Source\PSoC4/Relay_Offset.c **** * the software package with which this file was provided.
  17:.\Generated_Source\PSoC4/Relay_Offset.c **** *******************************************************************************/
  18:.\Generated_Source\PSoC4/Relay_Offset.c **** 
  19:.\Generated_Source\PSoC4/Relay_Offset.c **** #include "Relay_Offset.h"
  20:.\Generated_Source\PSoC4/Relay_Offset.c **** 
  21:.\Generated_Source\PSoC4/Relay_Offset.c **** uint8 Relay_Offset_initVar = 0u;
  22:.\Generated_Source\PSoC4/Relay_Offset.c **** 
  23:.\Generated_Source\PSoC4/Relay_Offset.c **** 
  24:.\Generated_Source\PSoC4/Relay_Offset.c **** /*******************************************************************************
  25:.\Generated_Source\PSoC4/Relay_Offset.c **** * Function Name: Relay_Offset_Init
  26:.\Generated_Source\PSoC4/Relay_Offset.c **** ********************************************************************************
  27:.\Generated_Source\PSoC4/Relay_Offset.c **** *
  28:.\Generated_Source\PSoC4/Relay_Offset.c **** * Summary:
  29:.\Generated_Source\PSoC4/Relay_Offset.c **** *  Initialize/Restore default Relay_Offset configuration.
  30:.\Generated_Source\PSoC4/Relay_Offset.c **** *
  31:.\Generated_Source\PSoC4/Relay_Offset.c **** * Parameters:
  32:.\Generated_Source\PSoC4/Relay_Offset.c **** *  None
ARM GAS  C:\Users\syhaines\AppData\Local\Temp\ccw1hiA6.s 			page 2


  33:.\Generated_Source\PSoC4/Relay_Offset.c **** *
  34:.\Generated_Source\PSoC4/Relay_Offset.c **** * Return:
  35:.\Generated_Source\PSoC4/Relay_Offset.c **** *  None
  36:.\Generated_Source\PSoC4/Relay_Offset.c **** *
  37:.\Generated_Source\PSoC4/Relay_Offset.c **** *******************************************************************************/
  38:.\Generated_Source\PSoC4/Relay_Offset.c **** void Relay_Offset_Init(void)
  39:.\Generated_Source\PSoC4/Relay_Offset.c **** {
  26              		.loc 1 39 0
  27              		.cfi_startproc
  40:.\Generated_Source\PSoC4/Relay_Offset.c **** 
  41:.\Generated_Source\PSoC4/Relay_Offset.c ****     /* Set values from customizer to CTRL */
  42:.\Generated_Source\PSoC4/Relay_Offset.c ****     #if (Relay_Offset__QUAD == Relay_Offset_CONFIG)
  43:.\Generated_Source\PSoC4/Relay_Offset.c ****         Relay_Offset_CONTROL_REG = Relay_Offset_CTRL_QUAD_BASE_CONFIG;
  44:.\Generated_Source\PSoC4/Relay_Offset.c ****         
  45:.\Generated_Source\PSoC4/Relay_Offset.c ****         /* Set values from customizer to CTRL1 */
  46:.\Generated_Source\PSoC4/Relay_Offset.c ****         Relay_Offset_TRIG_CONTROL1_REG  = Relay_Offset_QUAD_SIGNALS_MODES;
  47:.\Generated_Source\PSoC4/Relay_Offset.c **** 
  48:.\Generated_Source\PSoC4/Relay_Offset.c ****         /* Set values from customizer to INTR */
  49:.\Generated_Source\PSoC4/Relay_Offset.c ****         Relay_Offset_SetInterruptMode(Relay_Offset_QUAD_INTERRUPT_MASK);
  50:.\Generated_Source\PSoC4/Relay_Offset.c ****         
  51:.\Generated_Source\PSoC4/Relay_Offset.c ****          /* Set other values */
  52:.\Generated_Source\PSoC4/Relay_Offset.c ****         Relay_Offset_SetCounterMode(Relay_Offset_COUNT_DOWN);
  53:.\Generated_Source\PSoC4/Relay_Offset.c ****         Relay_Offset_WritePeriod(Relay_Offset_QUAD_PERIOD_INIT_VALUE);
  54:.\Generated_Source\PSoC4/Relay_Offset.c ****         Relay_Offset_WriteCounter(Relay_Offset_QUAD_PERIOD_INIT_VALUE);
  55:.\Generated_Source\PSoC4/Relay_Offset.c ****     #endif  /* (Relay_Offset__QUAD == Relay_Offset_CONFIG) */
  56:.\Generated_Source\PSoC4/Relay_Offset.c **** 
  57:.\Generated_Source\PSoC4/Relay_Offset.c ****     #if (Relay_Offset__TIMER == Relay_Offset_CONFIG)
  58:.\Generated_Source\PSoC4/Relay_Offset.c ****         Relay_Offset_CONTROL_REG = Relay_Offset_CTRL_TIMER_BASE_CONFIG;
  28              		.loc 1 58 0
  29 0000 8022     		mov	r2, #128
  30 0002 084B     		ldr	r3, .L2
  31 0004 9204     		lsl	r2, r2, #18
  32 0006 1A60     		str	r2, [r3]
  59:.\Generated_Source\PSoC4/Relay_Offset.c ****         
  60:.\Generated_Source\PSoC4/Relay_Offset.c ****         /* Set values from customizer to CTRL1 */
  61:.\Generated_Source\PSoC4/Relay_Offset.c ****         Relay_Offset_TRIG_CONTROL1_REG  = Relay_Offset_TIMER_SIGNALS_MODES;
  33              		.loc 1 61 0
  34 0008 0C22     		mov	r2, #12
  35 000a 074B     		ldr	r3, .L2+4
  62:.\Generated_Source\PSoC4/Relay_Offset.c ****     
  63:.\Generated_Source\PSoC4/Relay_Offset.c ****         /* Set values from customizer to INTR */
  64:.\Generated_Source\PSoC4/Relay_Offset.c ****         Relay_Offset_SetInterruptMode(Relay_Offset_TC_INTERRUPT_MASK);
  65:.\Generated_Source\PSoC4/Relay_Offset.c ****         
  66:.\Generated_Source\PSoC4/Relay_Offset.c ****         /* Set other values from customizer */
  67:.\Generated_Source\PSoC4/Relay_Offset.c ****         Relay_Offset_WritePeriod(Relay_Offset_TC_PERIOD_VALUE );
  68:.\Generated_Source\PSoC4/Relay_Offset.c **** 
  69:.\Generated_Source\PSoC4/Relay_Offset.c ****         #if (Relay_Offset__COMPARE == Relay_Offset_TC_COMP_CAP_MODE)
  70:.\Generated_Source\PSoC4/Relay_Offset.c ****             Relay_Offset_WriteCompare(Relay_Offset_TC_COMPARE_VALUE);
  71:.\Generated_Source\PSoC4/Relay_Offset.c **** 
  72:.\Generated_Source\PSoC4/Relay_Offset.c ****             #if (1u == Relay_Offset_TC_COMPARE_SWAP)
  73:.\Generated_Source\PSoC4/Relay_Offset.c ****                 Relay_Offset_SetCompareSwap(1u);
  74:.\Generated_Source\PSoC4/Relay_Offset.c ****                 Relay_Offset_WriteCompareBuf(Relay_Offset_TC_COMPARE_BUF_VALUE);
  75:.\Generated_Source\PSoC4/Relay_Offset.c ****             #endif  /* (1u == Relay_Offset_TC_COMPARE_SWAP) */
  76:.\Generated_Source\PSoC4/Relay_Offset.c ****         #endif  /* (Relay_Offset__COMPARE == Relay_Offset_TC_COMP_CAP_MODE) */
  77:.\Generated_Source\PSoC4/Relay_Offset.c **** 
  78:.\Generated_Source\PSoC4/Relay_Offset.c ****         /* Initialize counter value */
  79:.\Generated_Source\PSoC4/Relay_Offset.c ****         #if (Relay_Offset_CY_TCPWM_V2 && Relay_Offset_TIMER_UPDOWN_CNT_USED && !Relay_Offset_CY_TCP
ARM GAS  C:\Users\syhaines\AppData\Local\Temp\ccw1hiA6.s 			page 3


  80:.\Generated_Source\PSoC4/Relay_Offset.c ****             Relay_Offset_WriteCounter(1u);
  81:.\Generated_Source\PSoC4/Relay_Offset.c ****         #elif(Relay_Offset__COUNT_DOWN == Relay_Offset_TC_COUNTER_MODE)
  82:.\Generated_Source\PSoC4/Relay_Offset.c ****             Relay_Offset_WriteCounter(Relay_Offset_TC_PERIOD_VALUE);
  83:.\Generated_Source\PSoC4/Relay_Offset.c ****         #else
  84:.\Generated_Source\PSoC4/Relay_Offset.c ****             Relay_Offset_WriteCounter(0u);
  85:.\Generated_Source\PSoC4/Relay_Offset.c ****         #endif /* (Relay_Offset_CY_TCPWM_V2 && Relay_Offset_TIMER_UPDOWN_CNT_USED && !Relay_Offset_
  86:.\Generated_Source\PSoC4/Relay_Offset.c ****     #endif  /* (Relay_Offset__TIMER == Relay_Offset_CONFIG) */
  87:.\Generated_Source\PSoC4/Relay_Offset.c **** 
  88:.\Generated_Source\PSoC4/Relay_Offset.c ****     #if (Relay_Offset__PWM_SEL == Relay_Offset_CONFIG)
  89:.\Generated_Source\PSoC4/Relay_Offset.c ****         Relay_Offset_CONTROL_REG = Relay_Offset_CTRL_PWM_BASE_CONFIG;
  90:.\Generated_Source\PSoC4/Relay_Offset.c **** 
  91:.\Generated_Source\PSoC4/Relay_Offset.c ****         #if (Relay_Offset__PWM_PR == Relay_Offset_PWM_MODE)
  92:.\Generated_Source\PSoC4/Relay_Offset.c ****             Relay_Offset_CONTROL_REG |= Relay_Offset_CTRL_PWM_RUN_MODE;
  93:.\Generated_Source\PSoC4/Relay_Offset.c ****             Relay_Offset_WriteCounter(Relay_Offset_PWM_PR_INIT_VALUE);
  94:.\Generated_Source\PSoC4/Relay_Offset.c ****         #else
  95:.\Generated_Source\PSoC4/Relay_Offset.c ****             Relay_Offset_CONTROL_REG |= Relay_Offset_CTRL_PWM_ALIGN | Relay_Offset_CTRL_PWM_KILL_EV
  96:.\Generated_Source\PSoC4/Relay_Offset.c ****             
  97:.\Generated_Source\PSoC4/Relay_Offset.c ****             /* Initialize counter value */
  98:.\Generated_Source\PSoC4/Relay_Offset.c ****             #if (Relay_Offset_CY_TCPWM_V2 && Relay_Offset_PWM_UPDOWN_CNT_USED && !Relay_Offset_CY_T
  99:.\Generated_Source\PSoC4/Relay_Offset.c ****                 Relay_Offset_WriteCounter(1u);
 100:.\Generated_Source\PSoC4/Relay_Offset.c ****             #elif (Relay_Offset__RIGHT == Relay_Offset_PWM_ALIGN)
 101:.\Generated_Source\PSoC4/Relay_Offset.c ****                 Relay_Offset_WriteCounter(Relay_Offset_PWM_PERIOD_VALUE);
 102:.\Generated_Source\PSoC4/Relay_Offset.c ****             #else 
 103:.\Generated_Source\PSoC4/Relay_Offset.c ****                 Relay_Offset_WriteCounter(0u);
 104:.\Generated_Source\PSoC4/Relay_Offset.c ****             #endif  /* (Relay_Offset_CY_TCPWM_V2 && Relay_Offset_PWM_UPDOWN_CNT_USED && !Relay_Offs
 105:.\Generated_Source\PSoC4/Relay_Offset.c ****         #endif  /* (Relay_Offset__PWM_PR == Relay_Offset_PWM_MODE) */
 106:.\Generated_Source\PSoC4/Relay_Offset.c **** 
 107:.\Generated_Source\PSoC4/Relay_Offset.c ****         #if (Relay_Offset__PWM_DT == Relay_Offset_PWM_MODE)
 108:.\Generated_Source\PSoC4/Relay_Offset.c ****             Relay_Offset_CONTROL_REG |= Relay_Offset_CTRL_PWM_DEAD_TIME_CYCLE;
 109:.\Generated_Source\PSoC4/Relay_Offset.c ****         #endif  /* (Relay_Offset__PWM_DT == Relay_Offset_PWM_MODE) */
 110:.\Generated_Source\PSoC4/Relay_Offset.c **** 
 111:.\Generated_Source\PSoC4/Relay_Offset.c ****         #if (Relay_Offset__PWM == Relay_Offset_PWM_MODE)
 112:.\Generated_Source\PSoC4/Relay_Offset.c ****             Relay_Offset_CONTROL_REG |= Relay_Offset_CTRL_PWM_PRESCALER;
 113:.\Generated_Source\PSoC4/Relay_Offset.c ****         #endif  /* (Relay_Offset__PWM == Relay_Offset_PWM_MODE) */
 114:.\Generated_Source\PSoC4/Relay_Offset.c **** 
 115:.\Generated_Source\PSoC4/Relay_Offset.c ****         /* Set values from customizer to CTRL1 */
 116:.\Generated_Source\PSoC4/Relay_Offset.c ****         Relay_Offset_TRIG_CONTROL1_REG  = Relay_Offset_PWM_SIGNALS_MODES;
 117:.\Generated_Source\PSoC4/Relay_Offset.c ****     
 118:.\Generated_Source\PSoC4/Relay_Offset.c ****         /* Set values from customizer to INTR */
 119:.\Generated_Source\PSoC4/Relay_Offset.c ****         Relay_Offset_SetInterruptMode(Relay_Offset_PWM_INTERRUPT_MASK);
 120:.\Generated_Source\PSoC4/Relay_Offset.c **** 
 121:.\Generated_Source\PSoC4/Relay_Offset.c ****         /* Set values from customizer to CTRL2 */
 122:.\Generated_Source\PSoC4/Relay_Offset.c ****         #if (Relay_Offset__PWM_PR == Relay_Offset_PWM_MODE)
 123:.\Generated_Source\PSoC4/Relay_Offset.c ****             Relay_Offset_TRIG_CONTROL2_REG =
 124:.\Generated_Source\PSoC4/Relay_Offset.c ****                     (Relay_Offset_CC_MATCH_NO_CHANGE    |
 125:.\Generated_Source\PSoC4/Relay_Offset.c ****                     Relay_Offset_OVERLOW_NO_CHANGE      |
 126:.\Generated_Source\PSoC4/Relay_Offset.c ****                     Relay_Offset_UNDERFLOW_NO_CHANGE);
 127:.\Generated_Source\PSoC4/Relay_Offset.c ****         #else
 128:.\Generated_Source\PSoC4/Relay_Offset.c ****             #if (Relay_Offset__LEFT == Relay_Offset_PWM_ALIGN)
 129:.\Generated_Source\PSoC4/Relay_Offset.c ****                 Relay_Offset_TRIG_CONTROL2_REG = Relay_Offset_PWM_MODE_LEFT;
 130:.\Generated_Source\PSoC4/Relay_Offset.c ****             #endif  /* ( Relay_Offset_PWM_LEFT == Relay_Offset_PWM_ALIGN) */
 131:.\Generated_Source\PSoC4/Relay_Offset.c **** 
 132:.\Generated_Source\PSoC4/Relay_Offset.c ****             #if (Relay_Offset__RIGHT == Relay_Offset_PWM_ALIGN)
 133:.\Generated_Source\PSoC4/Relay_Offset.c ****                 Relay_Offset_TRIG_CONTROL2_REG = Relay_Offset_PWM_MODE_RIGHT;
 134:.\Generated_Source\PSoC4/Relay_Offset.c ****             #endif  /* ( Relay_Offset_PWM_RIGHT == Relay_Offset_PWM_ALIGN) */
 135:.\Generated_Source\PSoC4/Relay_Offset.c **** 
 136:.\Generated_Source\PSoC4/Relay_Offset.c ****             #if (Relay_Offset__CENTER == Relay_Offset_PWM_ALIGN)
ARM GAS  C:\Users\syhaines\AppData\Local\Temp\ccw1hiA6.s 			page 4


 137:.\Generated_Source\PSoC4/Relay_Offset.c ****                 Relay_Offset_TRIG_CONTROL2_REG = Relay_Offset_PWM_MODE_CENTER;
 138:.\Generated_Source\PSoC4/Relay_Offset.c ****             #endif  /* ( Relay_Offset_PWM_CENTER == Relay_Offset_PWM_ALIGN) */
 139:.\Generated_Source\PSoC4/Relay_Offset.c **** 
 140:.\Generated_Source\PSoC4/Relay_Offset.c ****             #if (Relay_Offset__ASYMMETRIC == Relay_Offset_PWM_ALIGN)
 141:.\Generated_Source\PSoC4/Relay_Offset.c ****                 Relay_Offset_TRIG_CONTROL2_REG = Relay_Offset_PWM_MODE_ASYM;
 142:.\Generated_Source\PSoC4/Relay_Offset.c ****             #endif  /* (Relay_Offset__ASYMMETRIC == Relay_Offset_PWM_ALIGN) */
 143:.\Generated_Source\PSoC4/Relay_Offset.c ****         #endif  /* (Relay_Offset__PWM_PR == Relay_Offset_PWM_MODE) */
 144:.\Generated_Source\PSoC4/Relay_Offset.c **** 
 145:.\Generated_Source\PSoC4/Relay_Offset.c ****         /* Set other values from customizer */
 146:.\Generated_Source\PSoC4/Relay_Offset.c ****         Relay_Offset_WritePeriod(Relay_Offset_PWM_PERIOD_VALUE );
 147:.\Generated_Source\PSoC4/Relay_Offset.c ****         Relay_Offset_WriteCompare(Relay_Offset_PWM_COMPARE_VALUE);
 148:.\Generated_Source\PSoC4/Relay_Offset.c **** 
 149:.\Generated_Source\PSoC4/Relay_Offset.c ****         #if (1u == Relay_Offset_PWM_COMPARE_SWAP)
 150:.\Generated_Source\PSoC4/Relay_Offset.c ****             Relay_Offset_SetCompareSwap(1u);
 151:.\Generated_Source\PSoC4/Relay_Offset.c ****             Relay_Offset_WriteCompareBuf(Relay_Offset_PWM_COMPARE_BUF_VALUE);
 152:.\Generated_Source\PSoC4/Relay_Offset.c ****         #endif  /* (1u == Relay_Offset_PWM_COMPARE_SWAP) */
 153:.\Generated_Source\PSoC4/Relay_Offset.c **** 
 154:.\Generated_Source\PSoC4/Relay_Offset.c ****         #if (1u == Relay_Offset_PWM_PERIOD_SWAP)
 155:.\Generated_Source\PSoC4/Relay_Offset.c ****             Relay_Offset_SetPeriodSwap(1u);
 156:.\Generated_Source\PSoC4/Relay_Offset.c ****             Relay_Offset_WritePeriodBuf(Relay_Offset_PWM_PERIOD_BUF_VALUE);
 157:.\Generated_Source\PSoC4/Relay_Offset.c ****         #endif  /* (1u == Relay_Offset_PWM_PERIOD_SWAP) */
 158:.\Generated_Source\PSoC4/Relay_Offset.c ****     #endif  /* (Relay_Offset__PWM_SEL == Relay_Offset_CONFIG) */
 159:.\Generated_Source\PSoC4/Relay_Offset.c ****     
 160:.\Generated_Source\PSoC4/Relay_Offset.c **** }
  36              		.loc 1 160 0
  37              		@ sp needed
  61:.\Generated_Source\PSoC4/Relay_Offset.c ****     
  38              		.loc 1 61 0
  39 000c 1A60     		str	r2, [r3]
  40              	.LVL0:
  41              	.LBB8:
  42              	.LBB9:
 161:.\Generated_Source\PSoC4/Relay_Offset.c **** 
 162:.\Generated_Source\PSoC4/Relay_Offset.c **** 
 163:.\Generated_Source\PSoC4/Relay_Offset.c **** /*******************************************************************************
 164:.\Generated_Source\PSoC4/Relay_Offset.c **** * Function Name: Relay_Offset_Enable
 165:.\Generated_Source\PSoC4/Relay_Offset.c **** ********************************************************************************
 166:.\Generated_Source\PSoC4/Relay_Offset.c **** *
 167:.\Generated_Source\PSoC4/Relay_Offset.c **** * Summary:
 168:.\Generated_Source\PSoC4/Relay_Offset.c **** *  Enables the Relay_Offset.
 169:.\Generated_Source\PSoC4/Relay_Offset.c **** *
 170:.\Generated_Source\PSoC4/Relay_Offset.c **** * Parameters:
 171:.\Generated_Source\PSoC4/Relay_Offset.c **** *  None
 172:.\Generated_Source\PSoC4/Relay_Offset.c **** *
 173:.\Generated_Source\PSoC4/Relay_Offset.c **** * Return:
 174:.\Generated_Source\PSoC4/Relay_Offset.c **** *  None
 175:.\Generated_Source\PSoC4/Relay_Offset.c **** *
 176:.\Generated_Source\PSoC4/Relay_Offset.c **** *******************************************************************************/
 177:.\Generated_Source\PSoC4/Relay_Offset.c **** void Relay_Offset_Enable(void)
 178:.\Generated_Source\PSoC4/Relay_Offset.c **** {
 179:.\Generated_Source\PSoC4/Relay_Offset.c ****     uint8 enableInterrupts;
 180:.\Generated_Source\PSoC4/Relay_Offset.c **** 
 181:.\Generated_Source\PSoC4/Relay_Offset.c ****     enableInterrupts = CyEnterCriticalSection();
 182:.\Generated_Source\PSoC4/Relay_Offset.c ****     Relay_Offset_BLOCK_CONTROL_REG |= Relay_Offset_MASK;
 183:.\Generated_Source\PSoC4/Relay_Offset.c ****     CyExitCriticalSection(enableInterrupts);
 184:.\Generated_Source\PSoC4/Relay_Offset.c **** 
 185:.\Generated_Source\PSoC4/Relay_Offset.c ****     /* Start Timer or PWM if start input is absent */
ARM GAS  C:\Users\syhaines\AppData\Local\Temp\ccw1hiA6.s 			page 5


 186:.\Generated_Source\PSoC4/Relay_Offset.c ****     #if (Relay_Offset__PWM_SEL == Relay_Offset_CONFIG)
 187:.\Generated_Source\PSoC4/Relay_Offset.c ****         #if (0u == Relay_Offset_PWM_START_SIGNAL_PRESENT)
 188:.\Generated_Source\PSoC4/Relay_Offset.c ****             Relay_Offset_TriggerCommand(Relay_Offset_MASK, Relay_Offset_CMD_START);
 189:.\Generated_Source\PSoC4/Relay_Offset.c ****         #endif /* (0u == Relay_Offset_PWM_START_SIGNAL_PRESENT) */
 190:.\Generated_Source\PSoC4/Relay_Offset.c ****     #endif /* (Relay_Offset__PWM_SEL == Relay_Offset_CONFIG) */
 191:.\Generated_Source\PSoC4/Relay_Offset.c **** 
 192:.\Generated_Source\PSoC4/Relay_Offset.c ****     #if (Relay_Offset__TIMER == Relay_Offset_CONFIG)
 193:.\Generated_Source\PSoC4/Relay_Offset.c ****         #if (0u == Relay_Offset_TC_START_SIGNAL_PRESENT)
 194:.\Generated_Source\PSoC4/Relay_Offset.c ****             Relay_Offset_TriggerCommand(Relay_Offset_MASK, Relay_Offset_CMD_START);
 195:.\Generated_Source\PSoC4/Relay_Offset.c ****         #endif /* (0u == Relay_Offset_TC_START_SIGNAL_PRESENT) */
 196:.\Generated_Source\PSoC4/Relay_Offset.c ****     #endif /* (Relay_Offset__TIMER == Relay_Offset_CONFIG) */
 197:.\Generated_Source\PSoC4/Relay_Offset.c **** }
 198:.\Generated_Source\PSoC4/Relay_Offset.c **** 
 199:.\Generated_Source\PSoC4/Relay_Offset.c **** 
 200:.\Generated_Source\PSoC4/Relay_Offset.c **** /*******************************************************************************
 201:.\Generated_Source\PSoC4/Relay_Offset.c **** * Function Name: Relay_Offset_Start
 202:.\Generated_Source\PSoC4/Relay_Offset.c **** ********************************************************************************
 203:.\Generated_Source\PSoC4/Relay_Offset.c **** *
 204:.\Generated_Source\PSoC4/Relay_Offset.c **** * Summary:
 205:.\Generated_Source\PSoC4/Relay_Offset.c **** *  Initializes the Relay_Offset with default customizer
 206:.\Generated_Source\PSoC4/Relay_Offset.c **** *  values when called the first time and enables the Relay_Offset.
 207:.\Generated_Source\PSoC4/Relay_Offset.c **** *  For subsequent calls the configuration is left unchanged and the component is
 208:.\Generated_Source\PSoC4/Relay_Offset.c **** *  just enabled.
 209:.\Generated_Source\PSoC4/Relay_Offset.c **** *
 210:.\Generated_Source\PSoC4/Relay_Offset.c **** * Parameters:
 211:.\Generated_Source\PSoC4/Relay_Offset.c **** *  None
 212:.\Generated_Source\PSoC4/Relay_Offset.c **** *
 213:.\Generated_Source\PSoC4/Relay_Offset.c **** * Return:
 214:.\Generated_Source\PSoC4/Relay_Offset.c **** *  None
 215:.\Generated_Source\PSoC4/Relay_Offset.c **** *
 216:.\Generated_Source\PSoC4/Relay_Offset.c **** * Global variables:
 217:.\Generated_Source\PSoC4/Relay_Offset.c **** *  Relay_Offset_initVar: global variable is used to indicate initial
 218:.\Generated_Source\PSoC4/Relay_Offset.c **** *  configuration of this component.  The variable is initialized to zero and set
 219:.\Generated_Source\PSoC4/Relay_Offset.c **** *  to 1 the first time Relay_Offset_Start() is called. This allows
 220:.\Generated_Source\PSoC4/Relay_Offset.c **** *  enabling/disabling a component without re-initialization in all subsequent
 221:.\Generated_Source\PSoC4/Relay_Offset.c **** *  calls to the Relay_Offset_Start() routine.
 222:.\Generated_Source\PSoC4/Relay_Offset.c **** *
 223:.\Generated_Source\PSoC4/Relay_Offset.c **** *******************************************************************************/
 224:.\Generated_Source\PSoC4/Relay_Offset.c **** void Relay_Offset_Start(void)
 225:.\Generated_Source\PSoC4/Relay_Offset.c **** {
 226:.\Generated_Source\PSoC4/Relay_Offset.c ****     if (0u == Relay_Offset_initVar)
 227:.\Generated_Source\PSoC4/Relay_Offset.c ****     {
 228:.\Generated_Source\PSoC4/Relay_Offset.c ****         Relay_Offset_Init();
 229:.\Generated_Source\PSoC4/Relay_Offset.c ****         Relay_Offset_initVar = 1u;
 230:.\Generated_Source\PSoC4/Relay_Offset.c ****     }
 231:.\Generated_Source\PSoC4/Relay_Offset.c **** 
 232:.\Generated_Source\PSoC4/Relay_Offset.c ****     Relay_Offset_Enable();
 233:.\Generated_Source\PSoC4/Relay_Offset.c **** }
 234:.\Generated_Source\PSoC4/Relay_Offset.c **** 
 235:.\Generated_Source\PSoC4/Relay_Offset.c **** 
 236:.\Generated_Source\PSoC4/Relay_Offset.c **** /*******************************************************************************
 237:.\Generated_Source\PSoC4/Relay_Offset.c **** * Function Name: Relay_Offset_Stop
 238:.\Generated_Source\PSoC4/Relay_Offset.c **** ********************************************************************************
 239:.\Generated_Source\PSoC4/Relay_Offset.c **** *
 240:.\Generated_Source\PSoC4/Relay_Offset.c **** * Summary:
 241:.\Generated_Source\PSoC4/Relay_Offset.c **** *  Disables the Relay_Offset.
 242:.\Generated_Source\PSoC4/Relay_Offset.c **** *
ARM GAS  C:\Users\syhaines\AppData\Local\Temp\ccw1hiA6.s 			page 6


 243:.\Generated_Source\PSoC4/Relay_Offset.c **** * Parameters:
 244:.\Generated_Source\PSoC4/Relay_Offset.c **** *  None
 245:.\Generated_Source\PSoC4/Relay_Offset.c **** *
 246:.\Generated_Source\PSoC4/Relay_Offset.c **** * Return:
 247:.\Generated_Source\PSoC4/Relay_Offset.c **** *  None
 248:.\Generated_Source\PSoC4/Relay_Offset.c **** *
 249:.\Generated_Source\PSoC4/Relay_Offset.c **** *******************************************************************************/
 250:.\Generated_Source\PSoC4/Relay_Offset.c **** void Relay_Offset_Stop(void)
 251:.\Generated_Source\PSoC4/Relay_Offset.c **** {
 252:.\Generated_Source\PSoC4/Relay_Offset.c ****     uint8 enableInterrupts;
 253:.\Generated_Source\PSoC4/Relay_Offset.c **** 
 254:.\Generated_Source\PSoC4/Relay_Offset.c ****     enableInterrupts = CyEnterCriticalSection();
 255:.\Generated_Source\PSoC4/Relay_Offset.c **** 
 256:.\Generated_Source\PSoC4/Relay_Offset.c ****     Relay_Offset_BLOCK_CONTROL_REG &= (uint32)~Relay_Offset_MASK;
 257:.\Generated_Source\PSoC4/Relay_Offset.c **** 
 258:.\Generated_Source\PSoC4/Relay_Offset.c ****     CyExitCriticalSection(enableInterrupts);
 259:.\Generated_Source\PSoC4/Relay_Offset.c **** }
 260:.\Generated_Source\PSoC4/Relay_Offset.c **** 
 261:.\Generated_Source\PSoC4/Relay_Offset.c **** 
 262:.\Generated_Source\PSoC4/Relay_Offset.c **** /*******************************************************************************
 263:.\Generated_Source\PSoC4/Relay_Offset.c **** * Function Name: Relay_Offset_SetMode
 264:.\Generated_Source\PSoC4/Relay_Offset.c **** ********************************************************************************
 265:.\Generated_Source\PSoC4/Relay_Offset.c **** *
 266:.\Generated_Source\PSoC4/Relay_Offset.c **** * Summary:
 267:.\Generated_Source\PSoC4/Relay_Offset.c **** *  Sets the operation mode of the Relay_Offset. This function is used when
 268:.\Generated_Source\PSoC4/Relay_Offset.c **** *  configured as a generic Relay_Offset and the actual mode of operation is
 269:.\Generated_Source\PSoC4/Relay_Offset.c **** *  set at runtime. The mode must be set while the component is disabled.
 270:.\Generated_Source\PSoC4/Relay_Offset.c **** *
 271:.\Generated_Source\PSoC4/Relay_Offset.c **** * Parameters:
 272:.\Generated_Source\PSoC4/Relay_Offset.c **** *  mode: Mode for the Relay_Offset to operate in
 273:.\Generated_Source\PSoC4/Relay_Offset.c **** *   Values:
 274:.\Generated_Source\PSoC4/Relay_Offset.c **** *   - Relay_Offset_MODE_TIMER_COMPARE - Timer / Counter with
 275:.\Generated_Source\PSoC4/Relay_Offset.c **** *                                                 compare capability
 276:.\Generated_Source\PSoC4/Relay_Offset.c **** *         - Relay_Offset_MODE_TIMER_CAPTURE - Timer / Counter with
 277:.\Generated_Source\PSoC4/Relay_Offset.c **** *                                                 capture capability
 278:.\Generated_Source\PSoC4/Relay_Offset.c **** *         - Relay_Offset_MODE_QUAD - Quadrature decoder
 279:.\Generated_Source\PSoC4/Relay_Offset.c **** *         - Relay_Offset_MODE_PWM - PWM
 280:.\Generated_Source\PSoC4/Relay_Offset.c **** *         - Relay_Offset_MODE_PWM_DT - PWM with dead time
 281:.\Generated_Source\PSoC4/Relay_Offset.c **** *         - Relay_Offset_MODE_PWM_PR - PWM with pseudo random capability
 282:.\Generated_Source\PSoC4/Relay_Offset.c **** *
 283:.\Generated_Source\PSoC4/Relay_Offset.c **** * Return:
 284:.\Generated_Source\PSoC4/Relay_Offset.c **** *  None
 285:.\Generated_Source\PSoC4/Relay_Offset.c **** *
 286:.\Generated_Source\PSoC4/Relay_Offset.c **** *******************************************************************************/
 287:.\Generated_Source\PSoC4/Relay_Offset.c **** void Relay_Offset_SetMode(uint32 mode)
 288:.\Generated_Source\PSoC4/Relay_Offset.c **** {
 289:.\Generated_Source\PSoC4/Relay_Offset.c ****     uint8 enableInterrupts;
 290:.\Generated_Source\PSoC4/Relay_Offset.c **** 
 291:.\Generated_Source\PSoC4/Relay_Offset.c ****     enableInterrupts = CyEnterCriticalSection();
 292:.\Generated_Source\PSoC4/Relay_Offset.c **** 
 293:.\Generated_Source\PSoC4/Relay_Offset.c ****     Relay_Offset_CONTROL_REG &= (uint32)~Relay_Offset_MODE_MASK;
 294:.\Generated_Source\PSoC4/Relay_Offset.c ****     Relay_Offset_CONTROL_REG |= mode;
 295:.\Generated_Source\PSoC4/Relay_Offset.c **** 
 296:.\Generated_Source\PSoC4/Relay_Offset.c ****     CyExitCriticalSection(enableInterrupts);
 297:.\Generated_Source\PSoC4/Relay_Offset.c **** }
 298:.\Generated_Source\PSoC4/Relay_Offset.c **** 
 299:.\Generated_Source\PSoC4/Relay_Offset.c **** 
ARM GAS  C:\Users\syhaines\AppData\Local\Temp\ccw1hiA6.s 			page 7


 300:.\Generated_Source\PSoC4/Relay_Offset.c **** /*******************************************************************************
 301:.\Generated_Source\PSoC4/Relay_Offset.c **** * Function Name: Relay_Offset_SetQDMode
 302:.\Generated_Source\PSoC4/Relay_Offset.c **** ********************************************************************************
 303:.\Generated_Source\PSoC4/Relay_Offset.c **** *
 304:.\Generated_Source\PSoC4/Relay_Offset.c **** * Summary:
 305:.\Generated_Source\PSoC4/Relay_Offset.c **** *  Sets the the Quadrature Decoder to one of the 3 supported modes.
 306:.\Generated_Source\PSoC4/Relay_Offset.c **** *  Its functionality is only applicable to Quadrature Decoder operation.
 307:.\Generated_Source\PSoC4/Relay_Offset.c **** *
 308:.\Generated_Source\PSoC4/Relay_Offset.c **** * Parameters:
 309:.\Generated_Source\PSoC4/Relay_Offset.c **** *  qdMode: Quadrature Decoder mode
 310:.\Generated_Source\PSoC4/Relay_Offset.c **** *   Values:
 311:.\Generated_Source\PSoC4/Relay_Offset.c **** *         - Relay_Offset_MODE_X1 - Counts on phi 1 rising
 312:.\Generated_Source\PSoC4/Relay_Offset.c **** *         - Relay_Offset_MODE_X2 - Counts on both edges of phi1 (2x faster)
 313:.\Generated_Source\PSoC4/Relay_Offset.c **** *         - Relay_Offset_MODE_X4 - Counts on both edges of phi1 and phi2
 314:.\Generated_Source\PSoC4/Relay_Offset.c **** *                                        (4x faster)
 315:.\Generated_Source\PSoC4/Relay_Offset.c **** *
 316:.\Generated_Source\PSoC4/Relay_Offset.c **** * Return:
 317:.\Generated_Source\PSoC4/Relay_Offset.c **** *  None
 318:.\Generated_Source\PSoC4/Relay_Offset.c **** *
 319:.\Generated_Source\PSoC4/Relay_Offset.c **** *******************************************************************************/
 320:.\Generated_Source\PSoC4/Relay_Offset.c **** void Relay_Offset_SetQDMode(uint32 qdMode)
 321:.\Generated_Source\PSoC4/Relay_Offset.c **** {
 322:.\Generated_Source\PSoC4/Relay_Offset.c ****     uint8 enableInterrupts;
 323:.\Generated_Source\PSoC4/Relay_Offset.c **** 
 324:.\Generated_Source\PSoC4/Relay_Offset.c ****     enableInterrupts = CyEnterCriticalSection();
 325:.\Generated_Source\PSoC4/Relay_Offset.c **** 
 326:.\Generated_Source\PSoC4/Relay_Offset.c ****     Relay_Offset_CONTROL_REG &= (uint32)~Relay_Offset_QUAD_MODE_MASK;
 327:.\Generated_Source\PSoC4/Relay_Offset.c ****     Relay_Offset_CONTROL_REG |= qdMode;
 328:.\Generated_Source\PSoC4/Relay_Offset.c **** 
 329:.\Generated_Source\PSoC4/Relay_Offset.c ****     CyExitCriticalSection(enableInterrupts);
 330:.\Generated_Source\PSoC4/Relay_Offset.c **** }
 331:.\Generated_Source\PSoC4/Relay_Offset.c **** 
 332:.\Generated_Source\PSoC4/Relay_Offset.c **** 
 333:.\Generated_Source\PSoC4/Relay_Offset.c **** /*******************************************************************************
 334:.\Generated_Source\PSoC4/Relay_Offset.c **** * Function Name: Relay_Offset_SetPrescaler
 335:.\Generated_Source\PSoC4/Relay_Offset.c **** ********************************************************************************
 336:.\Generated_Source\PSoC4/Relay_Offset.c **** *
 337:.\Generated_Source\PSoC4/Relay_Offset.c **** * Summary:
 338:.\Generated_Source\PSoC4/Relay_Offset.c **** *  Sets the prescaler value that is applied to the clock input.  Not applicable
 339:.\Generated_Source\PSoC4/Relay_Offset.c **** *  to a PWM with the dead time mode or Quadrature Decoder mode.
 340:.\Generated_Source\PSoC4/Relay_Offset.c **** *
 341:.\Generated_Source\PSoC4/Relay_Offset.c **** * Parameters:
 342:.\Generated_Source\PSoC4/Relay_Offset.c **** *  prescaler: Prescaler divider value
 343:.\Generated_Source\PSoC4/Relay_Offset.c **** *   Values:
 344:.\Generated_Source\PSoC4/Relay_Offset.c **** *         - Relay_Offset_PRESCALE_DIVBY1    - Divide by 1 (no prescaling)
 345:.\Generated_Source\PSoC4/Relay_Offset.c **** *         - Relay_Offset_PRESCALE_DIVBY2    - Divide by 2
 346:.\Generated_Source\PSoC4/Relay_Offset.c **** *         - Relay_Offset_PRESCALE_DIVBY4    - Divide by 4
 347:.\Generated_Source\PSoC4/Relay_Offset.c **** *         - Relay_Offset_PRESCALE_DIVBY8    - Divide by 8
 348:.\Generated_Source\PSoC4/Relay_Offset.c **** *         - Relay_Offset_PRESCALE_DIVBY16   - Divide by 16
 349:.\Generated_Source\PSoC4/Relay_Offset.c **** *         - Relay_Offset_PRESCALE_DIVBY32   - Divide by 32
 350:.\Generated_Source\PSoC4/Relay_Offset.c **** *         - Relay_Offset_PRESCALE_DIVBY64   - Divide by 64
 351:.\Generated_Source\PSoC4/Relay_Offset.c **** *         - Relay_Offset_PRESCALE_DIVBY128  - Divide by 128
 352:.\Generated_Source\PSoC4/Relay_Offset.c **** *
 353:.\Generated_Source\PSoC4/Relay_Offset.c **** * Return:
 354:.\Generated_Source\PSoC4/Relay_Offset.c **** *  None
 355:.\Generated_Source\PSoC4/Relay_Offset.c **** *
 356:.\Generated_Source\PSoC4/Relay_Offset.c **** *******************************************************************************/
ARM GAS  C:\Users\syhaines\AppData\Local\Temp\ccw1hiA6.s 			page 8


 357:.\Generated_Source\PSoC4/Relay_Offset.c **** void Relay_Offset_SetPrescaler(uint32 prescaler)
 358:.\Generated_Source\PSoC4/Relay_Offset.c **** {
 359:.\Generated_Source\PSoC4/Relay_Offset.c ****     uint8 enableInterrupts;
 360:.\Generated_Source\PSoC4/Relay_Offset.c **** 
 361:.\Generated_Source\PSoC4/Relay_Offset.c ****     enableInterrupts = CyEnterCriticalSection();
 362:.\Generated_Source\PSoC4/Relay_Offset.c **** 
 363:.\Generated_Source\PSoC4/Relay_Offset.c ****     Relay_Offset_CONTROL_REG &= (uint32)~Relay_Offset_PRESCALER_MASK;
 364:.\Generated_Source\PSoC4/Relay_Offset.c ****     Relay_Offset_CONTROL_REG |= prescaler;
 365:.\Generated_Source\PSoC4/Relay_Offset.c **** 
 366:.\Generated_Source\PSoC4/Relay_Offset.c ****     CyExitCriticalSection(enableInterrupts);
 367:.\Generated_Source\PSoC4/Relay_Offset.c **** }
 368:.\Generated_Source\PSoC4/Relay_Offset.c **** 
 369:.\Generated_Source\PSoC4/Relay_Offset.c **** 
 370:.\Generated_Source\PSoC4/Relay_Offset.c **** /*******************************************************************************
 371:.\Generated_Source\PSoC4/Relay_Offset.c **** * Function Name: Relay_Offset_SetOneShot
 372:.\Generated_Source\PSoC4/Relay_Offset.c **** ********************************************************************************
 373:.\Generated_Source\PSoC4/Relay_Offset.c **** *
 374:.\Generated_Source\PSoC4/Relay_Offset.c **** * Summary:
 375:.\Generated_Source\PSoC4/Relay_Offset.c **** *  Writes the register that controls whether the Relay_Offset runs
 376:.\Generated_Source\PSoC4/Relay_Offset.c **** *  continuously or stops when terminal count is reached.  By default the
 377:.\Generated_Source\PSoC4/Relay_Offset.c **** *  Relay_Offset operates in the continuous mode.
 378:.\Generated_Source\PSoC4/Relay_Offset.c **** *
 379:.\Generated_Source\PSoC4/Relay_Offset.c **** * Parameters:
 380:.\Generated_Source\PSoC4/Relay_Offset.c **** *  oneShotEnable
 381:.\Generated_Source\PSoC4/Relay_Offset.c **** *   Values:
 382:.\Generated_Source\PSoC4/Relay_Offset.c **** *     - 0 - Continuous
 383:.\Generated_Source\PSoC4/Relay_Offset.c **** *     - 1 - Enable One Shot
 384:.\Generated_Source\PSoC4/Relay_Offset.c **** *
 385:.\Generated_Source\PSoC4/Relay_Offset.c **** * Return:
 386:.\Generated_Source\PSoC4/Relay_Offset.c **** *  None
 387:.\Generated_Source\PSoC4/Relay_Offset.c **** *
 388:.\Generated_Source\PSoC4/Relay_Offset.c **** *******************************************************************************/
 389:.\Generated_Source\PSoC4/Relay_Offset.c **** void Relay_Offset_SetOneShot(uint32 oneShotEnable)
 390:.\Generated_Source\PSoC4/Relay_Offset.c **** {
 391:.\Generated_Source\PSoC4/Relay_Offset.c ****     uint8 enableInterrupts;
 392:.\Generated_Source\PSoC4/Relay_Offset.c **** 
 393:.\Generated_Source\PSoC4/Relay_Offset.c ****     enableInterrupts = CyEnterCriticalSection();
 394:.\Generated_Source\PSoC4/Relay_Offset.c **** 
 395:.\Generated_Source\PSoC4/Relay_Offset.c ****     Relay_Offset_CONTROL_REG &= (uint32)~Relay_Offset_ONESHOT_MASK;
 396:.\Generated_Source\PSoC4/Relay_Offset.c ****     Relay_Offset_CONTROL_REG |= ((uint32)((oneShotEnable & Relay_Offset_1BIT_MASK) <<
 397:.\Generated_Source\PSoC4/Relay_Offset.c ****                                                                Relay_Offset_ONESHOT_SHIFT));
 398:.\Generated_Source\PSoC4/Relay_Offset.c **** 
 399:.\Generated_Source\PSoC4/Relay_Offset.c ****     CyExitCriticalSection(enableInterrupts);
 400:.\Generated_Source\PSoC4/Relay_Offset.c **** }
 401:.\Generated_Source\PSoC4/Relay_Offset.c **** 
 402:.\Generated_Source\PSoC4/Relay_Offset.c **** 
 403:.\Generated_Source\PSoC4/Relay_Offset.c **** /*******************************************************************************
 404:.\Generated_Source\PSoC4/Relay_Offset.c **** * Function Name: Relay_Offset_SetPWMMode
 405:.\Generated_Source\PSoC4/Relay_Offset.c **** ********************************************************************************
 406:.\Generated_Source\PSoC4/Relay_Offset.c **** *
 407:.\Generated_Source\PSoC4/Relay_Offset.c **** * Summary:
 408:.\Generated_Source\PSoC4/Relay_Offset.c **** *  Writes the control register that determines what mode of operation the PWM
 409:.\Generated_Source\PSoC4/Relay_Offset.c **** *  output lines are driven in.  There is a setting for what to do on a
 410:.\Generated_Source\PSoC4/Relay_Offset.c **** *  comparison match (CC_MATCH), on an overflow (OVERFLOW) and on an underflow
 411:.\Generated_Source\PSoC4/Relay_Offset.c **** *  (UNDERFLOW).  The value for each of the three must be ORed together to form
 412:.\Generated_Source\PSoC4/Relay_Offset.c **** *  the mode.
 413:.\Generated_Source\PSoC4/Relay_Offset.c **** *
ARM GAS  C:\Users\syhaines\AppData\Local\Temp\ccw1hiA6.s 			page 9


 414:.\Generated_Source\PSoC4/Relay_Offset.c **** * Parameters:
 415:.\Generated_Source\PSoC4/Relay_Offset.c **** *  modeMask: A combination of three mode settings.  Mask must include a value
 416:.\Generated_Source\PSoC4/Relay_Offset.c **** *  for each of the three or use one of the preconfigured PWM settings.
 417:.\Generated_Source\PSoC4/Relay_Offset.c **** *   Values:
 418:.\Generated_Source\PSoC4/Relay_Offset.c **** *     - CC_MATCH_SET        - Set on comparison match
 419:.\Generated_Source\PSoC4/Relay_Offset.c **** *     - CC_MATCH_CLEAR      - Clear on comparison match
 420:.\Generated_Source\PSoC4/Relay_Offset.c **** *     - CC_MATCH_INVERT     - Invert on comparison match
 421:.\Generated_Source\PSoC4/Relay_Offset.c **** *     - CC_MATCH_NO_CHANGE  - No change on comparison match
 422:.\Generated_Source\PSoC4/Relay_Offset.c **** *     - OVERLOW_SET         - Set on overflow
 423:.\Generated_Source\PSoC4/Relay_Offset.c **** *     - OVERLOW_CLEAR       - Clear on  overflow
 424:.\Generated_Source\PSoC4/Relay_Offset.c **** *     - OVERLOW_INVERT      - Invert on overflow
 425:.\Generated_Source\PSoC4/Relay_Offset.c **** *     - OVERLOW_NO_CHANGE   - No change on overflow
 426:.\Generated_Source\PSoC4/Relay_Offset.c **** *     - UNDERFLOW_SET       - Set on underflow
 427:.\Generated_Source\PSoC4/Relay_Offset.c **** *     - UNDERFLOW_CLEAR     - Clear on underflow
 428:.\Generated_Source\PSoC4/Relay_Offset.c **** *     - UNDERFLOW_INVERT    - Invert on underflow
 429:.\Generated_Source\PSoC4/Relay_Offset.c **** *     - UNDERFLOW_NO_CHANGE - No change on underflow
 430:.\Generated_Source\PSoC4/Relay_Offset.c **** *     - PWM_MODE_LEFT       - Setting for left aligned PWM.  Should be combined
 431:.\Generated_Source\PSoC4/Relay_Offset.c **** *                             with up counting mode
 432:.\Generated_Source\PSoC4/Relay_Offset.c **** *     - PWM_MODE_RIGHT      - Setting for right aligned PWM.  Should be combined
 433:.\Generated_Source\PSoC4/Relay_Offset.c **** *                             with down counting mode
 434:.\Generated_Source\PSoC4/Relay_Offset.c **** *     - PWM_MODE_CENTER     - Setting for center aligned PWM.  Should be
 435:.\Generated_Source\PSoC4/Relay_Offset.c **** *                             combined with up/down 0 mode
 436:.\Generated_Source\PSoC4/Relay_Offset.c **** *     - PWM_MODE_ASYM       - Setting for asymmetric PWM.  Should be combined
 437:.\Generated_Source\PSoC4/Relay_Offset.c **** *                             with up/down 1 mode
 438:.\Generated_Source\PSoC4/Relay_Offset.c **** *
 439:.\Generated_Source\PSoC4/Relay_Offset.c **** * Return:
 440:.\Generated_Source\PSoC4/Relay_Offset.c **** *  None
 441:.\Generated_Source\PSoC4/Relay_Offset.c **** *
 442:.\Generated_Source\PSoC4/Relay_Offset.c **** *******************************************************************************/
 443:.\Generated_Source\PSoC4/Relay_Offset.c **** void Relay_Offset_SetPWMMode(uint32 modeMask)
 444:.\Generated_Source\PSoC4/Relay_Offset.c **** {
 445:.\Generated_Source\PSoC4/Relay_Offset.c ****     Relay_Offset_TRIG_CONTROL2_REG = (modeMask & Relay_Offset_6BIT_MASK);
 446:.\Generated_Source\PSoC4/Relay_Offset.c **** }
 447:.\Generated_Source\PSoC4/Relay_Offset.c **** 
 448:.\Generated_Source\PSoC4/Relay_Offset.c **** 
 449:.\Generated_Source\PSoC4/Relay_Offset.c **** 
 450:.\Generated_Source\PSoC4/Relay_Offset.c **** /*******************************************************************************
 451:.\Generated_Source\PSoC4/Relay_Offset.c **** * Function Name: Relay_Offset_SetPWMSyncKill
 452:.\Generated_Source\PSoC4/Relay_Offset.c **** ********************************************************************************
 453:.\Generated_Source\PSoC4/Relay_Offset.c **** *
 454:.\Generated_Source\PSoC4/Relay_Offset.c **** * Summary:
 455:.\Generated_Source\PSoC4/Relay_Offset.c **** *  Writes the register that controls whether the PWM kill signal (stop input)
 456:.\Generated_Source\PSoC4/Relay_Offset.c **** *  causes asynchronous or synchronous kill operation.  By default the kill
 457:.\Generated_Source\PSoC4/Relay_Offset.c **** *  operation is asynchronous.  This functionality is only applicable to the PWM
 458:.\Generated_Source\PSoC4/Relay_Offset.c **** *  and PWM with dead time modes.
 459:.\Generated_Source\PSoC4/Relay_Offset.c **** *
 460:.\Generated_Source\PSoC4/Relay_Offset.c **** *  For Synchronous mode the kill signal disables both the line and line_n
 461:.\Generated_Source\PSoC4/Relay_Offset.c **** *  signals until the next terminal count.
 462:.\Generated_Source\PSoC4/Relay_Offset.c **** *
 463:.\Generated_Source\PSoC4/Relay_Offset.c **** *  For Asynchronous mode the kill signal disables both the line and line_n
 464:.\Generated_Source\PSoC4/Relay_Offset.c **** *  signals when the kill signal is present.  This mode should only be used
 465:.\Generated_Source\PSoC4/Relay_Offset.c **** *  when the kill signal (stop input) is configured in the pass through mode
 466:.\Generated_Source\PSoC4/Relay_Offset.c **** *  (Level sensitive signal).
 467:.\Generated_Source\PSoC4/Relay_Offset.c **** 
 468:.\Generated_Source\PSoC4/Relay_Offset.c **** *
 469:.\Generated_Source\PSoC4/Relay_Offset.c **** * Parameters:
 470:.\Generated_Source\PSoC4/Relay_Offset.c **** *  syncKillEnable
ARM GAS  C:\Users\syhaines\AppData\Local\Temp\ccw1hiA6.s 			page 10


 471:.\Generated_Source\PSoC4/Relay_Offset.c **** *   Values:
 472:.\Generated_Source\PSoC4/Relay_Offset.c **** *     - 0 - Asynchronous
 473:.\Generated_Source\PSoC4/Relay_Offset.c **** *     - 1 - Synchronous
 474:.\Generated_Source\PSoC4/Relay_Offset.c **** *
 475:.\Generated_Source\PSoC4/Relay_Offset.c **** * Return:
 476:.\Generated_Source\PSoC4/Relay_Offset.c **** *  None
 477:.\Generated_Source\PSoC4/Relay_Offset.c **** *
 478:.\Generated_Source\PSoC4/Relay_Offset.c **** *******************************************************************************/
 479:.\Generated_Source\PSoC4/Relay_Offset.c **** void Relay_Offset_SetPWMSyncKill(uint32 syncKillEnable)
 480:.\Generated_Source\PSoC4/Relay_Offset.c **** {
 481:.\Generated_Source\PSoC4/Relay_Offset.c ****     uint8 enableInterrupts;
 482:.\Generated_Source\PSoC4/Relay_Offset.c **** 
 483:.\Generated_Source\PSoC4/Relay_Offset.c ****     enableInterrupts = CyEnterCriticalSection();
 484:.\Generated_Source\PSoC4/Relay_Offset.c **** 
 485:.\Generated_Source\PSoC4/Relay_Offset.c ****     Relay_Offset_CONTROL_REG &= (uint32)~Relay_Offset_PWM_SYNC_KILL_MASK;
 486:.\Generated_Source\PSoC4/Relay_Offset.c ****     Relay_Offset_CONTROL_REG |= ((uint32)((syncKillEnable & Relay_Offset_1BIT_MASK)  <<
 487:.\Generated_Source\PSoC4/Relay_Offset.c ****                                                Relay_Offset_PWM_SYNC_KILL_SHIFT));
 488:.\Generated_Source\PSoC4/Relay_Offset.c **** 
 489:.\Generated_Source\PSoC4/Relay_Offset.c ****     CyExitCriticalSection(enableInterrupts);
 490:.\Generated_Source\PSoC4/Relay_Offset.c **** }
 491:.\Generated_Source\PSoC4/Relay_Offset.c **** 
 492:.\Generated_Source\PSoC4/Relay_Offset.c **** 
 493:.\Generated_Source\PSoC4/Relay_Offset.c **** /*******************************************************************************
 494:.\Generated_Source\PSoC4/Relay_Offset.c **** * Function Name: Relay_Offset_SetPWMStopOnKill
 495:.\Generated_Source\PSoC4/Relay_Offset.c **** ********************************************************************************
 496:.\Generated_Source\PSoC4/Relay_Offset.c **** *
 497:.\Generated_Source\PSoC4/Relay_Offset.c **** * Summary:
 498:.\Generated_Source\PSoC4/Relay_Offset.c **** *  Writes the register that controls whether the PWM kill signal (stop input)
 499:.\Generated_Source\PSoC4/Relay_Offset.c **** *  causes the PWM counter to stop.  By default the kill operation does not stop
 500:.\Generated_Source\PSoC4/Relay_Offset.c **** *  the counter.  This functionality is only applicable to the three PWM modes.
 501:.\Generated_Source\PSoC4/Relay_Offset.c **** *
 502:.\Generated_Source\PSoC4/Relay_Offset.c **** *
 503:.\Generated_Source\PSoC4/Relay_Offset.c **** * Parameters:
 504:.\Generated_Source\PSoC4/Relay_Offset.c **** *  stopOnKillEnable
 505:.\Generated_Source\PSoC4/Relay_Offset.c **** *   Values:
 506:.\Generated_Source\PSoC4/Relay_Offset.c **** *     - 0 - Don't stop
 507:.\Generated_Source\PSoC4/Relay_Offset.c **** *     - 1 - Stop
 508:.\Generated_Source\PSoC4/Relay_Offset.c **** *
 509:.\Generated_Source\PSoC4/Relay_Offset.c **** * Return:
 510:.\Generated_Source\PSoC4/Relay_Offset.c **** *  None
 511:.\Generated_Source\PSoC4/Relay_Offset.c **** *
 512:.\Generated_Source\PSoC4/Relay_Offset.c **** *******************************************************************************/
 513:.\Generated_Source\PSoC4/Relay_Offset.c **** void Relay_Offset_SetPWMStopOnKill(uint32 stopOnKillEnable)
 514:.\Generated_Source\PSoC4/Relay_Offset.c **** {
 515:.\Generated_Source\PSoC4/Relay_Offset.c ****     uint8 enableInterrupts;
 516:.\Generated_Source\PSoC4/Relay_Offset.c **** 
 517:.\Generated_Source\PSoC4/Relay_Offset.c ****     enableInterrupts = CyEnterCriticalSection();
 518:.\Generated_Source\PSoC4/Relay_Offset.c **** 
 519:.\Generated_Source\PSoC4/Relay_Offset.c ****     Relay_Offset_CONTROL_REG &= (uint32)~Relay_Offset_PWM_STOP_KILL_MASK;
 520:.\Generated_Source\PSoC4/Relay_Offset.c ****     Relay_Offset_CONTROL_REG |= ((uint32)((stopOnKillEnable & Relay_Offset_1BIT_MASK)  <<
 521:.\Generated_Source\PSoC4/Relay_Offset.c ****                                                          Relay_Offset_PWM_STOP_KILL_SHIFT));
 522:.\Generated_Source\PSoC4/Relay_Offset.c **** 
 523:.\Generated_Source\PSoC4/Relay_Offset.c ****     CyExitCriticalSection(enableInterrupts);
 524:.\Generated_Source\PSoC4/Relay_Offset.c **** }
 525:.\Generated_Source\PSoC4/Relay_Offset.c **** 
 526:.\Generated_Source\PSoC4/Relay_Offset.c **** 
 527:.\Generated_Source\PSoC4/Relay_Offset.c **** /*******************************************************************************
ARM GAS  C:\Users\syhaines\AppData\Local\Temp\ccw1hiA6.s 			page 11


 528:.\Generated_Source\PSoC4/Relay_Offset.c **** * Function Name: Relay_Offset_SetPWMDeadTime
 529:.\Generated_Source\PSoC4/Relay_Offset.c **** ********************************************************************************
 530:.\Generated_Source\PSoC4/Relay_Offset.c **** *
 531:.\Generated_Source\PSoC4/Relay_Offset.c **** * Summary:
 532:.\Generated_Source\PSoC4/Relay_Offset.c **** *  Writes the dead time control value.  This value delays the rising edge of
 533:.\Generated_Source\PSoC4/Relay_Offset.c **** *  both the line and line_n signals the designated number of cycles resulting
 534:.\Generated_Source\PSoC4/Relay_Offset.c **** *  in both signals being inactive for that many cycles.  This functionality is
 535:.\Generated_Source\PSoC4/Relay_Offset.c **** *  only applicable to the PWM in the dead time mode.
 536:.\Generated_Source\PSoC4/Relay_Offset.c **** 
 537:.\Generated_Source\PSoC4/Relay_Offset.c **** *
 538:.\Generated_Source\PSoC4/Relay_Offset.c **** * Parameters:
 539:.\Generated_Source\PSoC4/Relay_Offset.c **** *  Dead time to insert
 540:.\Generated_Source\PSoC4/Relay_Offset.c **** *   Values: 0 to 255
 541:.\Generated_Source\PSoC4/Relay_Offset.c **** *
 542:.\Generated_Source\PSoC4/Relay_Offset.c **** * Return:
 543:.\Generated_Source\PSoC4/Relay_Offset.c **** *  None
 544:.\Generated_Source\PSoC4/Relay_Offset.c **** *
 545:.\Generated_Source\PSoC4/Relay_Offset.c **** *******************************************************************************/
 546:.\Generated_Source\PSoC4/Relay_Offset.c **** void Relay_Offset_SetPWMDeadTime(uint32 deadTime)
 547:.\Generated_Source\PSoC4/Relay_Offset.c **** {
 548:.\Generated_Source\PSoC4/Relay_Offset.c ****     uint8 enableInterrupts;
 549:.\Generated_Source\PSoC4/Relay_Offset.c **** 
 550:.\Generated_Source\PSoC4/Relay_Offset.c ****     enableInterrupts = CyEnterCriticalSection();
 551:.\Generated_Source\PSoC4/Relay_Offset.c **** 
 552:.\Generated_Source\PSoC4/Relay_Offset.c ****     Relay_Offset_CONTROL_REG &= (uint32)~Relay_Offset_PRESCALER_MASK;
 553:.\Generated_Source\PSoC4/Relay_Offset.c ****     Relay_Offset_CONTROL_REG |= ((uint32)((deadTime & Relay_Offset_8BIT_MASK) <<
 554:.\Generated_Source\PSoC4/Relay_Offset.c ****                                                           Relay_Offset_PRESCALER_SHIFT));
 555:.\Generated_Source\PSoC4/Relay_Offset.c **** 
 556:.\Generated_Source\PSoC4/Relay_Offset.c ****     CyExitCriticalSection(enableInterrupts);
 557:.\Generated_Source\PSoC4/Relay_Offset.c **** }
 558:.\Generated_Source\PSoC4/Relay_Offset.c **** 
 559:.\Generated_Source\PSoC4/Relay_Offset.c **** 
 560:.\Generated_Source\PSoC4/Relay_Offset.c **** /*******************************************************************************
 561:.\Generated_Source\PSoC4/Relay_Offset.c **** * Function Name: Relay_Offset_SetPWMInvert
 562:.\Generated_Source\PSoC4/Relay_Offset.c **** ********************************************************************************
 563:.\Generated_Source\PSoC4/Relay_Offset.c **** *
 564:.\Generated_Source\PSoC4/Relay_Offset.c **** * Summary:
 565:.\Generated_Source\PSoC4/Relay_Offset.c **** *  Writes the bits that control whether the line and line_n outputs are
 566:.\Generated_Source\PSoC4/Relay_Offset.c **** *  inverted from their normal output values.  This functionality is only
 567:.\Generated_Source\PSoC4/Relay_Offset.c **** *  applicable to the three PWM modes.
 568:.\Generated_Source\PSoC4/Relay_Offset.c **** *
 569:.\Generated_Source\PSoC4/Relay_Offset.c **** * Parameters:
 570:.\Generated_Source\PSoC4/Relay_Offset.c **** *  mask: Mask of outputs to invert.
 571:.\Generated_Source\PSoC4/Relay_Offset.c **** *   Values:
 572:.\Generated_Source\PSoC4/Relay_Offset.c **** *         - Relay_Offset_INVERT_LINE   - Inverts the line output
 573:.\Generated_Source\PSoC4/Relay_Offset.c **** *         - Relay_Offset_INVERT_LINE_N - Inverts the line_n output
 574:.\Generated_Source\PSoC4/Relay_Offset.c **** *
 575:.\Generated_Source\PSoC4/Relay_Offset.c **** * Return:
 576:.\Generated_Source\PSoC4/Relay_Offset.c **** *  None
 577:.\Generated_Source\PSoC4/Relay_Offset.c **** *
 578:.\Generated_Source\PSoC4/Relay_Offset.c **** *******************************************************************************/
 579:.\Generated_Source\PSoC4/Relay_Offset.c **** void Relay_Offset_SetPWMInvert(uint32 mask)
 580:.\Generated_Source\PSoC4/Relay_Offset.c **** {
 581:.\Generated_Source\PSoC4/Relay_Offset.c ****     uint8 enableInterrupts;
 582:.\Generated_Source\PSoC4/Relay_Offset.c **** 
 583:.\Generated_Source\PSoC4/Relay_Offset.c ****     enableInterrupts = CyEnterCriticalSection();
 584:.\Generated_Source\PSoC4/Relay_Offset.c **** 
ARM GAS  C:\Users\syhaines\AppData\Local\Temp\ccw1hiA6.s 			page 12


 585:.\Generated_Source\PSoC4/Relay_Offset.c ****     Relay_Offset_CONTROL_REG &= (uint32)~Relay_Offset_INV_OUT_MASK;
 586:.\Generated_Source\PSoC4/Relay_Offset.c ****     Relay_Offset_CONTROL_REG |= mask;
 587:.\Generated_Source\PSoC4/Relay_Offset.c **** 
 588:.\Generated_Source\PSoC4/Relay_Offset.c ****     CyExitCriticalSection(enableInterrupts);
 589:.\Generated_Source\PSoC4/Relay_Offset.c **** }
 590:.\Generated_Source\PSoC4/Relay_Offset.c **** 
 591:.\Generated_Source\PSoC4/Relay_Offset.c **** 
 592:.\Generated_Source\PSoC4/Relay_Offset.c **** 
 593:.\Generated_Source\PSoC4/Relay_Offset.c **** /*******************************************************************************
 594:.\Generated_Source\PSoC4/Relay_Offset.c **** * Function Name: Relay_Offset_WriteCounter
 595:.\Generated_Source\PSoC4/Relay_Offset.c **** ********************************************************************************
 596:.\Generated_Source\PSoC4/Relay_Offset.c **** *
 597:.\Generated_Source\PSoC4/Relay_Offset.c **** * Summary:
 598:.\Generated_Source\PSoC4/Relay_Offset.c **** *  Writes a new 16bit counter value directly into the counter register, thus
 599:.\Generated_Source\PSoC4/Relay_Offset.c **** *  setting the counter (not the period) to the value written. It is not
 600:.\Generated_Source\PSoC4/Relay_Offset.c **** *  advised to write to this field when the counter is running.
 601:.\Generated_Source\PSoC4/Relay_Offset.c **** *
 602:.\Generated_Source\PSoC4/Relay_Offset.c **** * Parameters:
 603:.\Generated_Source\PSoC4/Relay_Offset.c **** *  count: value to write
 604:.\Generated_Source\PSoC4/Relay_Offset.c **** *
 605:.\Generated_Source\PSoC4/Relay_Offset.c **** * Return:
 606:.\Generated_Source\PSoC4/Relay_Offset.c **** *  None
 607:.\Generated_Source\PSoC4/Relay_Offset.c **** *
 608:.\Generated_Source\PSoC4/Relay_Offset.c **** *******************************************************************************/
 609:.\Generated_Source\PSoC4/Relay_Offset.c **** void Relay_Offset_WriteCounter(uint32 count)
 610:.\Generated_Source\PSoC4/Relay_Offset.c **** {
 611:.\Generated_Source\PSoC4/Relay_Offset.c ****     Relay_Offset_COUNTER_REG = (count & Relay_Offset_16BIT_MASK);
 612:.\Generated_Source\PSoC4/Relay_Offset.c **** }
 613:.\Generated_Source\PSoC4/Relay_Offset.c **** 
 614:.\Generated_Source\PSoC4/Relay_Offset.c **** 
 615:.\Generated_Source\PSoC4/Relay_Offset.c **** /*******************************************************************************
 616:.\Generated_Source\PSoC4/Relay_Offset.c **** * Function Name: Relay_Offset_ReadCounter
 617:.\Generated_Source\PSoC4/Relay_Offset.c **** ********************************************************************************
 618:.\Generated_Source\PSoC4/Relay_Offset.c **** *
 619:.\Generated_Source\PSoC4/Relay_Offset.c **** * Summary:
 620:.\Generated_Source\PSoC4/Relay_Offset.c **** *  Reads the current counter value.
 621:.\Generated_Source\PSoC4/Relay_Offset.c **** *
 622:.\Generated_Source\PSoC4/Relay_Offset.c **** * Parameters:
 623:.\Generated_Source\PSoC4/Relay_Offset.c **** *  None
 624:.\Generated_Source\PSoC4/Relay_Offset.c **** *
 625:.\Generated_Source\PSoC4/Relay_Offset.c **** * Return:
 626:.\Generated_Source\PSoC4/Relay_Offset.c **** *  Current counter value
 627:.\Generated_Source\PSoC4/Relay_Offset.c **** *
 628:.\Generated_Source\PSoC4/Relay_Offset.c **** *******************************************************************************/
 629:.\Generated_Source\PSoC4/Relay_Offset.c **** uint32 Relay_Offset_ReadCounter(void)
 630:.\Generated_Source\PSoC4/Relay_Offset.c **** {
 631:.\Generated_Source\PSoC4/Relay_Offset.c ****     return (Relay_Offset_COUNTER_REG & Relay_Offset_16BIT_MASK);
 632:.\Generated_Source\PSoC4/Relay_Offset.c **** }
 633:.\Generated_Source\PSoC4/Relay_Offset.c **** 
 634:.\Generated_Source\PSoC4/Relay_Offset.c **** 
 635:.\Generated_Source\PSoC4/Relay_Offset.c **** /*******************************************************************************
 636:.\Generated_Source\PSoC4/Relay_Offset.c **** * Function Name: Relay_Offset_SetCounterMode
 637:.\Generated_Source\PSoC4/Relay_Offset.c **** ********************************************************************************
 638:.\Generated_Source\PSoC4/Relay_Offset.c **** *
 639:.\Generated_Source\PSoC4/Relay_Offset.c **** * Summary:
 640:.\Generated_Source\PSoC4/Relay_Offset.c **** *  Sets the counter mode.  Applicable to all modes except Quadrature Decoder
 641:.\Generated_Source\PSoC4/Relay_Offset.c **** *  and the PWM with a pseudo random output.
ARM GAS  C:\Users\syhaines\AppData\Local\Temp\ccw1hiA6.s 			page 13


 642:.\Generated_Source\PSoC4/Relay_Offset.c **** *
 643:.\Generated_Source\PSoC4/Relay_Offset.c **** * Parameters:
 644:.\Generated_Source\PSoC4/Relay_Offset.c **** *  counterMode: Enumerated counter type values
 645:.\Generated_Source\PSoC4/Relay_Offset.c **** *   Values:
 646:.\Generated_Source\PSoC4/Relay_Offset.c **** *     - Relay_Offset_COUNT_UP       - Counts up
 647:.\Generated_Source\PSoC4/Relay_Offset.c **** *     - Relay_Offset_COUNT_DOWN     - Counts down
 648:.\Generated_Source\PSoC4/Relay_Offset.c **** *     - Relay_Offset_COUNT_UPDOWN0  - Counts up and down. Terminal count
 649:.\Generated_Source\PSoC4/Relay_Offset.c **** *                                         generated when counter reaches 0
 650:.\Generated_Source\PSoC4/Relay_Offset.c **** *     - Relay_Offset_COUNT_UPDOWN1  - Counts up and down. Terminal count
 651:.\Generated_Source\PSoC4/Relay_Offset.c **** *                                         generated both when counter reaches 0
 652:.\Generated_Source\PSoC4/Relay_Offset.c **** *                                         and period
 653:.\Generated_Source\PSoC4/Relay_Offset.c **** *
 654:.\Generated_Source\PSoC4/Relay_Offset.c **** * Return:
 655:.\Generated_Source\PSoC4/Relay_Offset.c **** *  None
 656:.\Generated_Source\PSoC4/Relay_Offset.c **** *
 657:.\Generated_Source\PSoC4/Relay_Offset.c **** *******************************************************************************/
 658:.\Generated_Source\PSoC4/Relay_Offset.c **** void Relay_Offset_SetCounterMode(uint32 counterMode)
 659:.\Generated_Source\PSoC4/Relay_Offset.c **** {
 660:.\Generated_Source\PSoC4/Relay_Offset.c ****     uint8 enableInterrupts;
 661:.\Generated_Source\PSoC4/Relay_Offset.c **** 
 662:.\Generated_Source\PSoC4/Relay_Offset.c ****     enableInterrupts = CyEnterCriticalSection();
 663:.\Generated_Source\PSoC4/Relay_Offset.c **** 
 664:.\Generated_Source\PSoC4/Relay_Offset.c ****     Relay_Offset_CONTROL_REG &= (uint32)~Relay_Offset_UPDOWN_MASK;
 665:.\Generated_Source\PSoC4/Relay_Offset.c ****     Relay_Offset_CONTROL_REG |= counterMode;
 666:.\Generated_Source\PSoC4/Relay_Offset.c **** 
 667:.\Generated_Source\PSoC4/Relay_Offset.c ****     CyExitCriticalSection(enableInterrupts);
 668:.\Generated_Source\PSoC4/Relay_Offset.c **** }
 669:.\Generated_Source\PSoC4/Relay_Offset.c **** 
 670:.\Generated_Source\PSoC4/Relay_Offset.c **** 
 671:.\Generated_Source\PSoC4/Relay_Offset.c **** /*******************************************************************************
 672:.\Generated_Source\PSoC4/Relay_Offset.c **** * Function Name: Relay_Offset_WritePeriod
 673:.\Generated_Source\PSoC4/Relay_Offset.c **** ********************************************************************************
 674:.\Generated_Source\PSoC4/Relay_Offset.c **** *
 675:.\Generated_Source\PSoC4/Relay_Offset.c **** * Summary:
 676:.\Generated_Source\PSoC4/Relay_Offset.c **** *  Writes the 16 bit period register with the new period value.
 677:.\Generated_Source\PSoC4/Relay_Offset.c **** *  To cause the counter to count for N cycles this register should be written
 678:.\Generated_Source\PSoC4/Relay_Offset.c **** *  with N-1 (counts from 0 to period inclusive).
 679:.\Generated_Source\PSoC4/Relay_Offset.c **** *
 680:.\Generated_Source\PSoC4/Relay_Offset.c **** * Parameters:
 681:.\Generated_Source\PSoC4/Relay_Offset.c **** *  period: Period value
 682:.\Generated_Source\PSoC4/Relay_Offset.c **** *
 683:.\Generated_Source\PSoC4/Relay_Offset.c **** * Return:
 684:.\Generated_Source\PSoC4/Relay_Offset.c **** *  None
 685:.\Generated_Source\PSoC4/Relay_Offset.c **** *
 686:.\Generated_Source\PSoC4/Relay_Offset.c **** *******************************************************************************/
 687:.\Generated_Source\PSoC4/Relay_Offset.c **** void Relay_Offset_WritePeriod(uint32 period)
 688:.\Generated_Source\PSoC4/Relay_Offset.c **** {
 689:.\Generated_Source\PSoC4/Relay_Offset.c ****     Relay_Offset_PERIOD_REG = (period & Relay_Offset_16BIT_MASK);
 690:.\Generated_Source\PSoC4/Relay_Offset.c **** }
 691:.\Generated_Source\PSoC4/Relay_Offset.c **** 
 692:.\Generated_Source\PSoC4/Relay_Offset.c **** 
 693:.\Generated_Source\PSoC4/Relay_Offset.c **** /*******************************************************************************
 694:.\Generated_Source\PSoC4/Relay_Offset.c **** * Function Name: Relay_Offset_ReadPeriod
 695:.\Generated_Source\PSoC4/Relay_Offset.c **** ********************************************************************************
 696:.\Generated_Source\PSoC4/Relay_Offset.c **** *
 697:.\Generated_Source\PSoC4/Relay_Offset.c **** * Summary:
 698:.\Generated_Source\PSoC4/Relay_Offset.c **** *  Reads the 16 bit period register.
ARM GAS  C:\Users\syhaines\AppData\Local\Temp\ccw1hiA6.s 			page 14


 699:.\Generated_Source\PSoC4/Relay_Offset.c **** *
 700:.\Generated_Source\PSoC4/Relay_Offset.c **** * Parameters:
 701:.\Generated_Source\PSoC4/Relay_Offset.c **** *  None
 702:.\Generated_Source\PSoC4/Relay_Offset.c **** *
 703:.\Generated_Source\PSoC4/Relay_Offset.c **** * Return:
 704:.\Generated_Source\PSoC4/Relay_Offset.c **** *  Period value
 705:.\Generated_Source\PSoC4/Relay_Offset.c **** *
 706:.\Generated_Source\PSoC4/Relay_Offset.c **** *******************************************************************************/
 707:.\Generated_Source\PSoC4/Relay_Offset.c **** uint32 Relay_Offset_ReadPeriod(void)
 708:.\Generated_Source\PSoC4/Relay_Offset.c **** {
 709:.\Generated_Source\PSoC4/Relay_Offset.c ****     return (Relay_Offset_PERIOD_REG & Relay_Offset_16BIT_MASK);
 710:.\Generated_Source\PSoC4/Relay_Offset.c **** }
 711:.\Generated_Source\PSoC4/Relay_Offset.c **** 
 712:.\Generated_Source\PSoC4/Relay_Offset.c **** 
 713:.\Generated_Source\PSoC4/Relay_Offset.c **** /*******************************************************************************
 714:.\Generated_Source\PSoC4/Relay_Offset.c **** * Function Name: Relay_Offset_SetCompareSwap
 715:.\Generated_Source\PSoC4/Relay_Offset.c **** ********************************************************************************
 716:.\Generated_Source\PSoC4/Relay_Offset.c **** *
 717:.\Generated_Source\PSoC4/Relay_Offset.c **** * Summary:
 718:.\Generated_Source\PSoC4/Relay_Offset.c **** *  Writes the register that controls whether the compare registers are
 719:.\Generated_Source\PSoC4/Relay_Offset.c **** *  swapped. When enabled in the Timer/Counter mode(without capture) the swap
 720:.\Generated_Source\PSoC4/Relay_Offset.c **** *  occurs at a TC event. In the PWM mode the swap occurs at the next TC event
 721:.\Generated_Source\PSoC4/Relay_Offset.c **** *  following a hardware switch event.
 722:.\Generated_Source\PSoC4/Relay_Offset.c **** *
 723:.\Generated_Source\PSoC4/Relay_Offset.c **** * Parameters:
 724:.\Generated_Source\PSoC4/Relay_Offset.c **** *  swapEnable
 725:.\Generated_Source\PSoC4/Relay_Offset.c **** *   Values:
 726:.\Generated_Source\PSoC4/Relay_Offset.c **** *     - 0 - Disable swap
 727:.\Generated_Source\PSoC4/Relay_Offset.c **** *     - 1 - Enable swap
 728:.\Generated_Source\PSoC4/Relay_Offset.c **** *
 729:.\Generated_Source\PSoC4/Relay_Offset.c **** * Return:
 730:.\Generated_Source\PSoC4/Relay_Offset.c **** *  None
 731:.\Generated_Source\PSoC4/Relay_Offset.c **** *
 732:.\Generated_Source\PSoC4/Relay_Offset.c **** *******************************************************************************/
 733:.\Generated_Source\PSoC4/Relay_Offset.c **** void Relay_Offset_SetCompareSwap(uint32 swapEnable)
 734:.\Generated_Source\PSoC4/Relay_Offset.c **** {
 735:.\Generated_Source\PSoC4/Relay_Offset.c ****     uint8 enableInterrupts;
 736:.\Generated_Source\PSoC4/Relay_Offset.c **** 
 737:.\Generated_Source\PSoC4/Relay_Offset.c ****     enableInterrupts = CyEnterCriticalSection();
 738:.\Generated_Source\PSoC4/Relay_Offset.c **** 
 739:.\Generated_Source\PSoC4/Relay_Offset.c ****     Relay_Offset_CONTROL_REG &= (uint32)~Relay_Offset_RELOAD_CC_MASK;
 740:.\Generated_Source\PSoC4/Relay_Offset.c ****     Relay_Offset_CONTROL_REG |= (swapEnable & Relay_Offset_1BIT_MASK);
 741:.\Generated_Source\PSoC4/Relay_Offset.c **** 
 742:.\Generated_Source\PSoC4/Relay_Offset.c ****     CyExitCriticalSection(enableInterrupts);
 743:.\Generated_Source\PSoC4/Relay_Offset.c **** }
 744:.\Generated_Source\PSoC4/Relay_Offset.c **** 
 745:.\Generated_Source\PSoC4/Relay_Offset.c **** 
 746:.\Generated_Source\PSoC4/Relay_Offset.c **** /*******************************************************************************
 747:.\Generated_Source\PSoC4/Relay_Offset.c **** * Function Name: Relay_Offset_WritePeriodBuf
 748:.\Generated_Source\PSoC4/Relay_Offset.c **** ********************************************************************************
 749:.\Generated_Source\PSoC4/Relay_Offset.c **** *
 750:.\Generated_Source\PSoC4/Relay_Offset.c **** * Summary:
 751:.\Generated_Source\PSoC4/Relay_Offset.c **** *  Writes the 16 bit period buf register with the new period value.
 752:.\Generated_Source\PSoC4/Relay_Offset.c **** *
 753:.\Generated_Source\PSoC4/Relay_Offset.c **** * Parameters:
 754:.\Generated_Source\PSoC4/Relay_Offset.c **** *  periodBuf: Period value
 755:.\Generated_Source\PSoC4/Relay_Offset.c **** *
ARM GAS  C:\Users\syhaines\AppData\Local\Temp\ccw1hiA6.s 			page 15


 756:.\Generated_Source\PSoC4/Relay_Offset.c **** * Return:
 757:.\Generated_Source\PSoC4/Relay_Offset.c **** *  None
 758:.\Generated_Source\PSoC4/Relay_Offset.c **** *
 759:.\Generated_Source\PSoC4/Relay_Offset.c **** *******************************************************************************/
 760:.\Generated_Source\PSoC4/Relay_Offset.c **** void Relay_Offset_WritePeriodBuf(uint32 periodBuf)
 761:.\Generated_Source\PSoC4/Relay_Offset.c **** {
 762:.\Generated_Source\PSoC4/Relay_Offset.c ****     Relay_Offset_PERIOD_BUF_REG = (periodBuf & Relay_Offset_16BIT_MASK);
 763:.\Generated_Source\PSoC4/Relay_Offset.c **** }
 764:.\Generated_Source\PSoC4/Relay_Offset.c **** 
 765:.\Generated_Source\PSoC4/Relay_Offset.c **** 
 766:.\Generated_Source\PSoC4/Relay_Offset.c **** /*******************************************************************************
 767:.\Generated_Source\PSoC4/Relay_Offset.c **** * Function Name: Relay_Offset_ReadPeriodBuf
 768:.\Generated_Source\PSoC4/Relay_Offset.c **** ********************************************************************************
 769:.\Generated_Source\PSoC4/Relay_Offset.c **** *
 770:.\Generated_Source\PSoC4/Relay_Offset.c **** * Summary:
 771:.\Generated_Source\PSoC4/Relay_Offset.c **** *  Reads the 16 bit period buf register.
 772:.\Generated_Source\PSoC4/Relay_Offset.c **** *
 773:.\Generated_Source\PSoC4/Relay_Offset.c **** * Parameters:
 774:.\Generated_Source\PSoC4/Relay_Offset.c **** *  None
 775:.\Generated_Source\PSoC4/Relay_Offset.c **** *
 776:.\Generated_Source\PSoC4/Relay_Offset.c **** * Return:
 777:.\Generated_Source\PSoC4/Relay_Offset.c **** *  Period value
 778:.\Generated_Source\PSoC4/Relay_Offset.c **** *
 779:.\Generated_Source\PSoC4/Relay_Offset.c **** *******************************************************************************/
 780:.\Generated_Source\PSoC4/Relay_Offset.c **** uint32 Relay_Offset_ReadPeriodBuf(void)
 781:.\Generated_Source\PSoC4/Relay_Offset.c **** {
 782:.\Generated_Source\PSoC4/Relay_Offset.c ****     return (Relay_Offset_PERIOD_BUF_REG & Relay_Offset_16BIT_MASK);
 783:.\Generated_Source\PSoC4/Relay_Offset.c **** }
 784:.\Generated_Source\PSoC4/Relay_Offset.c **** 
 785:.\Generated_Source\PSoC4/Relay_Offset.c **** 
 786:.\Generated_Source\PSoC4/Relay_Offset.c **** /*******************************************************************************
 787:.\Generated_Source\PSoC4/Relay_Offset.c **** * Function Name: Relay_Offset_SetPeriodSwap
 788:.\Generated_Source\PSoC4/Relay_Offset.c **** ********************************************************************************
 789:.\Generated_Source\PSoC4/Relay_Offset.c **** *
 790:.\Generated_Source\PSoC4/Relay_Offset.c **** * Summary:
 791:.\Generated_Source\PSoC4/Relay_Offset.c **** *  Writes the register that controls whether the period registers are
 792:.\Generated_Source\PSoC4/Relay_Offset.c **** *  swapped. When enabled in Timer/Counter mode the swap occurs at a TC event.
 793:.\Generated_Source\PSoC4/Relay_Offset.c **** *  In the PWM mode the swap occurs at the next TC event following a hardware
 794:.\Generated_Source\PSoC4/Relay_Offset.c **** *  switch event.
 795:.\Generated_Source\PSoC4/Relay_Offset.c **** *
 796:.\Generated_Source\PSoC4/Relay_Offset.c **** * Parameters:
 797:.\Generated_Source\PSoC4/Relay_Offset.c **** *  swapEnable
 798:.\Generated_Source\PSoC4/Relay_Offset.c **** *   Values:
 799:.\Generated_Source\PSoC4/Relay_Offset.c **** *     - 0 - Disable swap
 800:.\Generated_Source\PSoC4/Relay_Offset.c **** *     - 1 - Enable swap
 801:.\Generated_Source\PSoC4/Relay_Offset.c **** *
 802:.\Generated_Source\PSoC4/Relay_Offset.c **** * Return:
 803:.\Generated_Source\PSoC4/Relay_Offset.c **** *  None
 804:.\Generated_Source\PSoC4/Relay_Offset.c **** *
 805:.\Generated_Source\PSoC4/Relay_Offset.c **** *******************************************************************************/
 806:.\Generated_Source\PSoC4/Relay_Offset.c **** void Relay_Offset_SetPeriodSwap(uint32 swapEnable)
 807:.\Generated_Source\PSoC4/Relay_Offset.c **** {
 808:.\Generated_Source\PSoC4/Relay_Offset.c ****     uint8 enableInterrupts;
 809:.\Generated_Source\PSoC4/Relay_Offset.c **** 
 810:.\Generated_Source\PSoC4/Relay_Offset.c ****     enableInterrupts = CyEnterCriticalSection();
 811:.\Generated_Source\PSoC4/Relay_Offset.c **** 
 812:.\Generated_Source\PSoC4/Relay_Offset.c ****     Relay_Offset_CONTROL_REG &= (uint32)~Relay_Offset_RELOAD_PERIOD_MASK;
ARM GAS  C:\Users\syhaines\AppData\Local\Temp\ccw1hiA6.s 			page 16


 813:.\Generated_Source\PSoC4/Relay_Offset.c ****     Relay_Offset_CONTROL_REG |= ((uint32)((swapEnable & Relay_Offset_1BIT_MASK) <<
 814:.\Generated_Source\PSoC4/Relay_Offset.c ****                                                             Relay_Offset_RELOAD_PERIOD_SHIFT));
 815:.\Generated_Source\PSoC4/Relay_Offset.c **** 
 816:.\Generated_Source\PSoC4/Relay_Offset.c ****     CyExitCriticalSection(enableInterrupts);
 817:.\Generated_Source\PSoC4/Relay_Offset.c **** }
 818:.\Generated_Source\PSoC4/Relay_Offset.c **** 
 819:.\Generated_Source\PSoC4/Relay_Offset.c **** 
 820:.\Generated_Source\PSoC4/Relay_Offset.c **** /*******************************************************************************
 821:.\Generated_Source\PSoC4/Relay_Offset.c **** * Function Name: Relay_Offset_WriteCompare
 822:.\Generated_Source\PSoC4/Relay_Offset.c **** ********************************************************************************
 823:.\Generated_Source\PSoC4/Relay_Offset.c **** *
 824:.\Generated_Source\PSoC4/Relay_Offset.c **** * Summary:
 825:.\Generated_Source\PSoC4/Relay_Offset.c **** *  Writes the 16 bit compare register with the new compare value. Not
 826:.\Generated_Source\PSoC4/Relay_Offset.c **** *  applicable for Timer/Counter with Capture or in Quadrature Decoder modes.
 827:.\Generated_Source\PSoC4/Relay_Offset.c **** *
 828:.\Generated_Source\PSoC4/Relay_Offset.c **** * Parameters:
 829:.\Generated_Source\PSoC4/Relay_Offset.c **** *  compare: Compare value
 830:.\Generated_Source\PSoC4/Relay_Offset.c **** *
 831:.\Generated_Source\PSoC4/Relay_Offset.c **** * Return:
 832:.\Generated_Source\PSoC4/Relay_Offset.c **** *  None
 833:.\Generated_Source\PSoC4/Relay_Offset.c **** *
 834:.\Generated_Source\PSoC4/Relay_Offset.c **** *******************************************************************************/
 835:.\Generated_Source\PSoC4/Relay_Offset.c **** void Relay_Offset_WriteCompare(uint32 compare)
 836:.\Generated_Source\PSoC4/Relay_Offset.c **** {
 837:.\Generated_Source\PSoC4/Relay_Offset.c ****     #if (Relay_Offset_CY_TCPWM_4000)
 838:.\Generated_Source\PSoC4/Relay_Offset.c ****         uint32 currentMode;
 839:.\Generated_Source\PSoC4/Relay_Offset.c ****     #endif /* (Relay_Offset_CY_TCPWM_4000) */
 840:.\Generated_Source\PSoC4/Relay_Offset.c **** 
 841:.\Generated_Source\PSoC4/Relay_Offset.c ****     #if (Relay_Offset_CY_TCPWM_4000)
 842:.\Generated_Source\PSoC4/Relay_Offset.c ****         currentMode = ((Relay_Offset_CONTROL_REG & Relay_Offset_UPDOWN_MASK) >> Relay_Offset_UPDOWN
 843:.\Generated_Source\PSoC4/Relay_Offset.c **** 
 844:.\Generated_Source\PSoC4/Relay_Offset.c ****         if (((uint32)Relay_Offset__COUNT_DOWN == currentMode) && (0xFFFFu != compare))
 845:.\Generated_Source\PSoC4/Relay_Offset.c ****         {
 846:.\Generated_Source\PSoC4/Relay_Offset.c ****             compare++;
 847:.\Generated_Source\PSoC4/Relay_Offset.c ****         }
 848:.\Generated_Source\PSoC4/Relay_Offset.c ****         else if (((uint32)Relay_Offset__COUNT_UP == currentMode) && (0u != compare))
 849:.\Generated_Source\PSoC4/Relay_Offset.c ****         {
 850:.\Generated_Source\PSoC4/Relay_Offset.c ****             compare--;
 851:.\Generated_Source\PSoC4/Relay_Offset.c ****         }
 852:.\Generated_Source\PSoC4/Relay_Offset.c ****         else
 853:.\Generated_Source\PSoC4/Relay_Offset.c ****         {
 854:.\Generated_Source\PSoC4/Relay_Offset.c ****         }
 855:.\Generated_Source\PSoC4/Relay_Offset.c ****         
 856:.\Generated_Source\PSoC4/Relay_Offset.c ****     
 857:.\Generated_Source\PSoC4/Relay_Offset.c ****     #endif /* (Relay_Offset_CY_TCPWM_4000) */
 858:.\Generated_Source\PSoC4/Relay_Offset.c ****     
 859:.\Generated_Source\PSoC4/Relay_Offset.c ****     Relay_Offset_COMP_CAP_REG = (compare & Relay_Offset_16BIT_MASK);
 860:.\Generated_Source\PSoC4/Relay_Offset.c **** }
 861:.\Generated_Source\PSoC4/Relay_Offset.c **** 
 862:.\Generated_Source\PSoC4/Relay_Offset.c **** 
 863:.\Generated_Source\PSoC4/Relay_Offset.c **** /*******************************************************************************
 864:.\Generated_Source\PSoC4/Relay_Offset.c **** * Function Name: Relay_Offset_ReadCompare
 865:.\Generated_Source\PSoC4/Relay_Offset.c **** ********************************************************************************
 866:.\Generated_Source\PSoC4/Relay_Offset.c **** *
 867:.\Generated_Source\PSoC4/Relay_Offset.c **** * Summary:
 868:.\Generated_Source\PSoC4/Relay_Offset.c **** *  Reads the compare register. Not applicable for Timer/Counter with Capture
 869:.\Generated_Source\PSoC4/Relay_Offset.c **** *  or in Quadrature Decoder modes.
ARM GAS  C:\Users\syhaines\AppData\Local\Temp\ccw1hiA6.s 			page 17


 870:.\Generated_Source\PSoC4/Relay_Offset.c **** *
 871:.\Generated_Source\PSoC4/Relay_Offset.c **** * Parameters:
 872:.\Generated_Source\PSoC4/Relay_Offset.c **** *  None
 873:.\Generated_Source\PSoC4/Relay_Offset.c **** *
 874:.\Generated_Source\PSoC4/Relay_Offset.c **** * Return:
 875:.\Generated_Source\PSoC4/Relay_Offset.c **** *  Compare value
 876:.\Generated_Source\PSoC4/Relay_Offset.c **** *
 877:.\Generated_Source\PSoC4/Relay_Offset.c **** *******************************************************************************/
 878:.\Generated_Source\PSoC4/Relay_Offset.c **** uint32 Relay_Offset_ReadCompare(void)
 879:.\Generated_Source\PSoC4/Relay_Offset.c **** {
 880:.\Generated_Source\PSoC4/Relay_Offset.c ****     #if (Relay_Offset_CY_TCPWM_4000)
 881:.\Generated_Source\PSoC4/Relay_Offset.c ****         uint32 currentMode;
 882:.\Generated_Source\PSoC4/Relay_Offset.c ****         uint32 regVal;
 883:.\Generated_Source\PSoC4/Relay_Offset.c ****     #endif /* (Relay_Offset_CY_TCPWM_4000) */
 884:.\Generated_Source\PSoC4/Relay_Offset.c **** 
 885:.\Generated_Source\PSoC4/Relay_Offset.c ****     #if (Relay_Offset_CY_TCPWM_4000)
 886:.\Generated_Source\PSoC4/Relay_Offset.c ****         currentMode = ((Relay_Offset_CONTROL_REG & Relay_Offset_UPDOWN_MASK) >> Relay_Offset_UPDOWN
 887:.\Generated_Source\PSoC4/Relay_Offset.c ****         
 888:.\Generated_Source\PSoC4/Relay_Offset.c ****         regVal = Relay_Offset_COMP_CAP_REG;
 889:.\Generated_Source\PSoC4/Relay_Offset.c ****         
 890:.\Generated_Source\PSoC4/Relay_Offset.c ****         if (((uint32)Relay_Offset__COUNT_DOWN == currentMode) && (0u != regVal))
 891:.\Generated_Source\PSoC4/Relay_Offset.c ****         {
 892:.\Generated_Source\PSoC4/Relay_Offset.c ****             regVal--;
 893:.\Generated_Source\PSoC4/Relay_Offset.c ****         }
 894:.\Generated_Source\PSoC4/Relay_Offset.c ****         else if (((uint32)Relay_Offset__COUNT_UP == currentMode) && (0xFFFFu != regVal))
 895:.\Generated_Source\PSoC4/Relay_Offset.c ****         {
 896:.\Generated_Source\PSoC4/Relay_Offset.c ****             regVal++;
 897:.\Generated_Source\PSoC4/Relay_Offset.c ****         }
 898:.\Generated_Source\PSoC4/Relay_Offset.c ****         else
 899:.\Generated_Source\PSoC4/Relay_Offset.c ****         {
 900:.\Generated_Source\PSoC4/Relay_Offset.c ****         }
 901:.\Generated_Source\PSoC4/Relay_Offset.c **** 
 902:.\Generated_Source\PSoC4/Relay_Offset.c ****         return (regVal & Relay_Offset_16BIT_MASK);
 903:.\Generated_Source\PSoC4/Relay_Offset.c ****     #else
 904:.\Generated_Source\PSoC4/Relay_Offset.c ****         return (Relay_Offset_COMP_CAP_REG & Relay_Offset_16BIT_MASK);
 905:.\Generated_Source\PSoC4/Relay_Offset.c ****     #endif /* (Relay_Offset_CY_TCPWM_4000) */
 906:.\Generated_Source\PSoC4/Relay_Offset.c **** }
 907:.\Generated_Source\PSoC4/Relay_Offset.c **** 
 908:.\Generated_Source\PSoC4/Relay_Offset.c **** 
 909:.\Generated_Source\PSoC4/Relay_Offset.c **** /*******************************************************************************
 910:.\Generated_Source\PSoC4/Relay_Offset.c **** * Function Name: Relay_Offset_WriteCompareBuf
 911:.\Generated_Source\PSoC4/Relay_Offset.c **** ********************************************************************************
 912:.\Generated_Source\PSoC4/Relay_Offset.c **** *
 913:.\Generated_Source\PSoC4/Relay_Offset.c **** * Summary:
 914:.\Generated_Source\PSoC4/Relay_Offset.c **** *  Writes the 16 bit compare buffer register with the new compare value. Not
 915:.\Generated_Source\PSoC4/Relay_Offset.c **** *  applicable for Timer/Counter with Capture or in Quadrature Decoder modes.
 916:.\Generated_Source\PSoC4/Relay_Offset.c **** *
 917:.\Generated_Source\PSoC4/Relay_Offset.c **** * Parameters:
 918:.\Generated_Source\PSoC4/Relay_Offset.c **** *  compareBuf: Compare value
 919:.\Generated_Source\PSoC4/Relay_Offset.c **** *
 920:.\Generated_Source\PSoC4/Relay_Offset.c **** * Return:
 921:.\Generated_Source\PSoC4/Relay_Offset.c **** *  None
 922:.\Generated_Source\PSoC4/Relay_Offset.c **** *
 923:.\Generated_Source\PSoC4/Relay_Offset.c **** *******************************************************************************/
 924:.\Generated_Source\PSoC4/Relay_Offset.c **** void Relay_Offset_WriteCompareBuf(uint32 compareBuf)
 925:.\Generated_Source\PSoC4/Relay_Offset.c **** {
 926:.\Generated_Source\PSoC4/Relay_Offset.c ****     #if (Relay_Offset_CY_TCPWM_4000)
ARM GAS  C:\Users\syhaines\AppData\Local\Temp\ccw1hiA6.s 			page 18


 927:.\Generated_Source\PSoC4/Relay_Offset.c ****         uint32 currentMode;
 928:.\Generated_Source\PSoC4/Relay_Offset.c ****     #endif /* (Relay_Offset_CY_TCPWM_4000) */
 929:.\Generated_Source\PSoC4/Relay_Offset.c **** 
 930:.\Generated_Source\PSoC4/Relay_Offset.c ****     #if (Relay_Offset_CY_TCPWM_4000)
 931:.\Generated_Source\PSoC4/Relay_Offset.c ****         currentMode = ((Relay_Offset_CONTROL_REG & Relay_Offset_UPDOWN_MASK) >> Relay_Offset_UPDOWN
 932:.\Generated_Source\PSoC4/Relay_Offset.c **** 
 933:.\Generated_Source\PSoC4/Relay_Offset.c ****         if (((uint32)Relay_Offset__COUNT_DOWN == currentMode) && (0xFFFFu != compareBuf))
 934:.\Generated_Source\PSoC4/Relay_Offset.c ****         {
 935:.\Generated_Source\PSoC4/Relay_Offset.c ****             compareBuf++;
 936:.\Generated_Source\PSoC4/Relay_Offset.c ****         }
 937:.\Generated_Source\PSoC4/Relay_Offset.c ****         else if (((uint32)Relay_Offset__COUNT_UP == currentMode) && (0u != compareBuf))
 938:.\Generated_Source\PSoC4/Relay_Offset.c ****         {
 939:.\Generated_Source\PSoC4/Relay_Offset.c ****             compareBuf --;
 940:.\Generated_Source\PSoC4/Relay_Offset.c ****         }
 941:.\Generated_Source\PSoC4/Relay_Offset.c ****         else
 942:.\Generated_Source\PSoC4/Relay_Offset.c ****         {
 943:.\Generated_Source\PSoC4/Relay_Offset.c ****         }
 944:.\Generated_Source\PSoC4/Relay_Offset.c ****     #endif /* (Relay_Offset_CY_TCPWM_4000) */
 945:.\Generated_Source\PSoC4/Relay_Offset.c ****     
 946:.\Generated_Source\PSoC4/Relay_Offset.c ****     Relay_Offset_COMP_CAP_BUF_REG = (compareBuf & Relay_Offset_16BIT_MASK);
 947:.\Generated_Source\PSoC4/Relay_Offset.c **** }
 948:.\Generated_Source\PSoC4/Relay_Offset.c **** 
 949:.\Generated_Source\PSoC4/Relay_Offset.c **** 
 950:.\Generated_Source\PSoC4/Relay_Offset.c **** /*******************************************************************************
 951:.\Generated_Source\PSoC4/Relay_Offset.c **** * Function Name: Relay_Offset_ReadCompareBuf
 952:.\Generated_Source\PSoC4/Relay_Offset.c **** ********************************************************************************
 953:.\Generated_Source\PSoC4/Relay_Offset.c **** *
 954:.\Generated_Source\PSoC4/Relay_Offset.c **** * Summary:
 955:.\Generated_Source\PSoC4/Relay_Offset.c **** *  Reads the compare buffer register. Not applicable for Timer/Counter with
 956:.\Generated_Source\PSoC4/Relay_Offset.c **** *  Capture or in Quadrature Decoder modes.
 957:.\Generated_Source\PSoC4/Relay_Offset.c **** *
 958:.\Generated_Source\PSoC4/Relay_Offset.c **** * Parameters:
 959:.\Generated_Source\PSoC4/Relay_Offset.c **** *  None
 960:.\Generated_Source\PSoC4/Relay_Offset.c **** *
 961:.\Generated_Source\PSoC4/Relay_Offset.c **** * Return:
 962:.\Generated_Source\PSoC4/Relay_Offset.c **** *  Compare buffer value
 963:.\Generated_Source\PSoC4/Relay_Offset.c **** *
 964:.\Generated_Source\PSoC4/Relay_Offset.c **** *******************************************************************************/
 965:.\Generated_Source\PSoC4/Relay_Offset.c **** uint32 Relay_Offset_ReadCompareBuf(void)
 966:.\Generated_Source\PSoC4/Relay_Offset.c **** {
 967:.\Generated_Source\PSoC4/Relay_Offset.c ****     #if (Relay_Offset_CY_TCPWM_4000)
 968:.\Generated_Source\PSoC4/Relay_Offset.c ****         uint32 currentMode;
 969:.\Generated_Source\PSoC4/Relay_Offset.c ****         uint32 regVal;
 970:.\Generated_Source\PSoC4/Relay_Offset.c ****     #endif /* (Relay_Offset_CY_TCPWM_4000) */
 971:.\Generated_Source\PSoC4/Relay_Offset.c **** 
 972:.\Generated_Source\PSoC4/Relay_Offset.c ****     #if (Relay_Offset_CY_TCPWM_4000)
 973:.\Generated_Source\PSoC4/Relay_Offset.c ****         currentMode = ((Relay_Offset_CONTROL_REG & Relay_Offset_UPDOWN_MASK) >> Relay_Offset_UPDOWN
 974:.\Generated_Source\PSoC4/Relay_Offset.c **** 
 975:.\Generated_Source\PSoC4/Relay_Offset.c ****         regVal = Relay_Offset_COMP_CAP_BUF_REG;
 976:.\Generated_Source\PSoC4/Relay_Offset.c ****         
 977:.\Generated_Source\PSoC4/Relay_Offset.c ****         if (((uint32)Relay_Offset__COUNT_DOWN == currentMode) && (0u != regVal))
 978:.\Generated_Source\PSoC4/Relay_Offset.c ****         {
 979:.\Generated_Source\PSoC4/Relay_Offset.c ****             regVal--;
 980:.\Generated_Source\PSoC4/Relay_Offset.c ****         }
 981:.\Generated_Source\PSoC4/Relay_Offset.c ****         else if (((uint32)Relay_Offset__COUNT_UP == currentMode) && (0xFFFFu != regVal))
 982:.\Generated_Source\PSoC4/Relay_Offset.c ****         {
 983:.\Generated_Source\PSoC4/Relay_Offset.c ****             regVal++;
ARM GAS  C:\Users\syhaines\AppData\Local\Temp\ccw1hiA6.s 			page 19


 984:.\Generated_Source\PSoC4/Relay_Offset.c ****         }
 985:.\Generated_Source\PSoC4/Relay_Offset.c ****         else
 986:.\Generated_Source\PSoC4/Relay_Offset.c ****         {
 987:.\Generated_Source\PSoC4/Relay_Offset.c ****         }
 988:.\Generated_Source\PSoC4/Relay_Offset.c **** 
 989:.\Generated_Source\PSoC4/Relay_Offset.c ****         return (regVal & Relay_Offset_16BIT_MASK);
 990:.\Generated_Source\PSoC4/Relay_Offset.c ****     #else
 991:.\Generated_Source\PSoC4/Relay_Offset.c ****         return (Relay_Offset_COMP_CAP_BUF_REG & Relay_Offset_16BIT_MASK);
 992:.\Generated_Source\PSoC4/Relay_Offset.c ****     #endif /* (Relay_Offset_CY_TCPWM_4000) */
 993:.\Generated_Source\PSoC4/Relay_Offset.c **** }
 994:.\Generated_Source\PSoC4/Relay_Offset.c **** 
 995:.\Generated_Source\PSoC4/Relay_Offset.c **** 
 996:.\Generated_Source\PSoC4/Relay_Offset.c **** /*******************************************************************************
 997:.\Generated_Source\PSoC4/Relay_Offset.c **** * Function Name: Relay_Offset_ReadCapture
 998:.\Generated_Source\PSoC4/Relay_Offset.c **** ********************************************************************************
 999:.\Generated_Source\PSoC4/Relay_Offset.c **** *
1000:.\Generated_Source\PSoC4/Relay_Offset.c **** * Summary:
1001:.\Generated_Source\PSoC4/Relay_Offset.c **** *  Reads the captured counter value. This API is applicable only for
1002:.\Generated_Source\PSoC4/Relay_Offset.c **** *  Timer/Counter with the capture mode and Quadrature Decoder modes.
1003:.\Generated_Source\PSoC4/Relay_Offset.c **** *
1004:.\Generated_Source\PSoC4/Relay_Offset.c **** * Parameters:
1005:.\Generated_Source\PSoC4/Relay_Offset.c **** *  None
1006:.\Generated_Source\PSoC4/Relay_Offset.c **** *
1007:.\Generated_Source\PSoC4/Relay_Offset.c **** * Return:
1008:.\Generated_Source\PSoC4/Relay_Offset.c **** *  Capture value
1009:.\Generated_Source\PSoC4/Relay_Offset.c **** *
1010:.\Generated_Source\PSoC4/Relay_Offset.c **** *******************************************************************************/
1011:.\Generated_Source\PSoC4/Relay_Offset.c **** uint32 Relay_Offset_ReadCapture(void)
1012:.\Generated_Source\PSoC4/Relay_Offset.c **** {
1013:.\Generated_Source\PSoC4/Relay_Offset.c ****     return (Relay_Offset_COMP_CAP_REG & Relay_Offset_16BIT_MASK);
1014:.\Generated_Source\PSoC4/Relay_Offset.c **** }
1015:.\Generated_Source\PSoC4/Relay_Offset.c **** 
1016:.\Generated_Source\PSoC4/Relay_Offset.c **** 
1017:.\Generated_Source\PSoC4/Relay_Offset.c **** /*******************************************************************************
1018:.\Generated_Source\PSoC4/Relay_Offset.c **** * Function Name: Relay_Offset_ReadCaptureBuf
1019:.\Generated_Source\PSoC4/Relay_Offset.c **** ********************************************************************************
1020:.\Generated_Source\PSoC4/Relay_Offset.c **** *
1021:.\Generated_Source\PSoC4/Relay_Offset.c **** * Summary:
1022:.\Generated_Source\PSoC4/Relay_Offset.c **** *  Reads the capture buffer register. This API is applicable only for
1023:.\Generated_Source\PSoC4/Relay_Offset.c **** *  Timer/Counter with the capture mode and Quadrature Decoder modes.
1024:.\Generated_Source\PSoC4/Relay_Offset.c **** *
1025:.\Generated_Source\PSoC4/Relay_Offset.c **** * Parameters:
1026:.\Generated_Source\PSoC4/Relay_Offset.c **** *  None
1027:.\Generated_Source\PSoC4/Relay_Offset.c **** *
1028:.\Generated_Source\PSoC4/Relay_Offset.c **** * Return:
1029:.\Generated_Source\PSoC4/Relay_Offset.c **** *  Capture buffer value
1030:.\Generated_Source\PSoC4/Relay_Offset.c **** *
1031:.\Generated_Source\PSoC4/Relay_Offset.c **** *******************************************************************************/
1032:.\Generated_Source\PSoC4/Relay_Offset.c **** uint32 Relay_Offset_ReadCaptureBuf(void)
1033:.\Generated_Source\PSoC4/Relay_Offset.c **** {
1034:.\Generated_Source\PSoC4/Relay_Offset.c ****     return (Relay_Offset_COMP_CAP_BUF_REG & Relay_Offset_16BIT_MASK);
1035:.\Generated_Source\PSoC4/Relay_Offset.c **** }
1036:.\Generated_Source\PSoC4/Relay_Offset.c **** 
1037:.\Generated_Source\PSoC4/Relay_Offset.c **** 
1038:.\Generated_Source\PSoC4/Relay_Offset.c **** /*******************************************************************************
1039:.\Generated_Source\PSoC4/Relay_Offset.c **** * Function Name: Relay_Offset_SetCaptureMode
1040:.\Generated_Source\PSoC4/Relay_Offset.c **** ********************************************************************************
ARM GAS  C:\Users\syhaines\AppData\Local\Temp\ccw1hiA6.s 			page 20


1041:.\Generated_Source\PSoC4/Relay_Offset.c **** *
1042:.\Generated_Source\PSoC4/Relay_Offset.c **** * Summary:
1043:.\Generated_Source\PSoC4/Relay_Offset.c **** *  Sets the capture trigger mode. For PWM mode this is the switch input.
1044:.\Generated_Source\PSoC4/Relay_Offset.c **** *  This input is not applicable to the Timer/Counter without Capture and
1045:.\Generated_Source\PSoC4/Relay_Offset.c **** *  Quadrature Decoder modes.
1046:.\Generated_Source\PSoC4/Relay_Offset.c **** *
1047:.\Generated_Source\PSoC4/Relay_Offset.c **** * Parameters:
1048:.\Generated_Source\PSoC4/Relay_Offset.c **** *  triggerMode: Enumerated trigger mode value
1049:.\Generated_Source\PSoC4/Relay_Offset.c **** *   Values:
1050:.\Generated_Source\PSoC4/Relay_Offset.c **** *     - Relay_Offset_TRIG_LEVEL     - Level
1051:.\Generated_Source\PSoC4/Relay_Offset.c **** *     - Relay_Offset_TRIG_RISING    - Rising edge
1052:.\Generated_Source\PSoC4/Relay_Offset.c **** *     - Relay_Offset_TRIG_FALLING   - Falling edge
1053:.\Generated_Source\PSoC4/Relay_Offset.c **** *     - Relay_Offset_TRIG_BOTH      - Both rising and falling edge
1054:.\Generated_Source\PSoC4/Relay_Offset.c **** *
1055:.\Generated_Source\PSoC4/Relay_Offset.c **** * Return:
1056:.\Generated_Source\PSoC4/Relay_Offset.c **** *  None
1057:.\Generated_Source\PSoC4/Relay_Offset.c **** *
1058:.\Generated_Source\PSoC4/Relay_Offset.c **** *******************************************************************************/
1059:.\Generated_Source\PSoC4/Relay_Offset.c **** void Relay_Offset_SetCaptureMode(uint32 triggerMode)
1060:.\Generated_Source\PSoC4/Relay_Offset.c **** {
1061:.\Generated_Source\PSoC4/Relay_Offset.c ****     uint8 enableInterrupts;
1062:.\Generated_Source\PSoC4/Relay_Offset.c **** 
1063:.\Generated_Source\PSoC4/Relay_Offset.c ****     enableInterrupts = CyEnterCriticalSection();
1064:.\Generated_Source\PSoC4/Relay_Offset.c **** 
1065:.\Generated_Source\PSoC4/Relay_Offset.c ****     Relay_Offset_TRIG_CONTROL1_REG &= (uint32)~Relay_Offset_CAPTURE_MASK;
1066:.\Generated_Source\PSoC4/Relay_Offset.c ****     Relay_Offset_TRIG_CONTROL1_REG |= triggerMode;
1067:.\Generated_Source\PSoC4/Relay_Offset.c **** 
1068:.\Generated_Source\PSoC4/Relay_Offset.c ****     CyExitCriticalSection(enableInterrupts);
1069:.\Generated_Source\PSoC4/Relay_Offset.c **** }
1070:.\Generated_Source\PSoC4/Relay_Offset.c **** 
1071:.\Generated_Source\PSoC4/Relay_Offset.c **** 
1072:.\Generated_Source\PSoC4/Relay_Offset.c **** /*******************************************************************************
1073:.\Generated_Source\PSoC4/Relay_Offset.c **** * Function Name: Relay_Offset_SetReloadMode
1074:.\Generated_Source\PSoC4/Relay_Offset.c **** ********************************************************************************
1075:.\Generated_Source\PSoC4/Relay_Offset.c **** *
1076:.\Generated_Source\PSoC4/Relay_Offset.c **** * Summary:
1077:.\Generated_Source\PSoC4/Relay_Offset.c **** *  Sets the reload trigger mode. For Quadrature Decoder mode this is the index
1078:.\Generated_Source\PSoC4/Relay_Offset.c **** *  input.
1079:.\Generated_Source\PSoC4/Relay_Offset.c **** *
1080:.\Generated_Source\PSoC4/Relay_Offset.c **** * Parameters:
1081:.\Generated_Source\PSoC4/Relay_Offset.c **** *  triggerMode: Enumerated trigger mode value
1082:.\Generated_Source\PSoC4/Relay_Offset.c **** *   Values:
1083:.\Generated_Source\PSoC4/Relay_Offset.c **** *     - Relay_Offset_TRIG_LEVEL     - Level
1084:.\Generated_Source\PSoC4/Relay_Offset.c **** *     - Relay_Offset_TRIG_RISING    - Rising edge
1085:.\Generated_Source\PSoC4/Relay_Offset.c **** *     - Relay_Offset_TRIG_FALLING   - Falling edge
1086:.\Generated_Source\PSoC4/Relay_Offset.c **** *     - Relay_Offset_TRIG_BOTH      - Both rising and falling edge
1087:.\Generated_Source\PSoC4/Relay_Offset.c **** *
1088:.\Generated_Source\PSoC4/Relay_Offset.c **** * Return:
1089:.\Generated_Source\PSoC4/Relay_Offset.c **** *  None
1090:.\Generated_Source\PSoC4/Relay_Offset.c **** *
1091:.\Generated_Source\PSoC4/Relay_Offset.c **** *******************************************************************************/
1092:.\Generated_Source\PSoC4/Relay_Offset.c **** void Relay_Offset_SetReloadMode(uint32 triggerMode)
1093:.\Generated_Source\PSoC4/Relay_Offset.c **** {
1094:.\Generated_Source\PSoC4/Relay_Offset.c ****     uint8 enableInterrupts;
1095:.\Generated_Source\PSoC4/Relay_Offset.c **** 
1096:.\Generated_Source\PSoC4/Relay_Offset.c ****     enableInterrupts = CyEnterCriticalSection();
1097:.\Generated_Source\PSoC4/Relay_Offset.c **** 
ARM GAS  C:\Users\syhaines\AppData\Local\Temp\ccw1hiA6.s 			page 21


1098:.\Generated_Source\PSoC4/Relay_Offset.c ****     Relay_Offset_TRIG_CONTROL1_REG &= (uint32)~Relay_Offset_RELOAD_MASK;
1099:.\Generated_Source\PSoC4/Relay_Offset.c ****     Relay_Offset_TRIG_CONTROL1_REG |= ((uint32)(triggerMode << Relay_Offset_RELOAD_SHIFT));
1100:.\Generated_Source\PSoC4/Relay_Offset.c **** 
1101:.\Generated_Source\PSoC4/Relay_Offset.c ****     CyExitCriticalSection(enableInterrupts);
1102:.\Generated_Source\PSoC4/Relay_Offset.c **** }
1103:.\Generated_Source\PSoC4/Relay_Offset.c **** 
1104:.\Generated_Source\PSoC4/Relay_Offset.c **** 
1105:.\Generated_Source\PSoC4/Relay_Offset.c **** /*******************************************************************************
1106:.\Generated_Source\PSoC4/Relay_Offset.c **** * Function Name: Relay_Offset_SetStartMode
1107:.\Generated_Source\PSoC4/Relay_Offset.c **** ********************************************************************************
1108:.\Generated_Source\PSoC4/Relay_Offset.c **** *
1109:.\Generated_Source\PSoC4/Relay_Offset.c **** * Summary:
1110:.\Generated_Source\PSoC4/Relay_Offset.c **** *  Sets the start trigger mode. For Quadrature Decoder mode this is the
1111:.\Generated_Source\PSoC4/Relay_Offset.c **** *  phiB input.
1112:.\Generated_Source\PSoC4/Relay_Offset.c **** *
1113:.\Generated_Source\PSoC4/Relay_Offset.c **** * Parameters:
1114:.\Generated_Source\PSoC4/Relay_Offset.c **** *  triggerMode: Enumerated trigger mode value
1115:.\Generated_Source\PSoC4/Relay_Offset.c **** *   Values:
1116:.\Generated_Source\PSoC4/Relay_Offset.c **** *     - Relay_Offset_TRIG_LEVEL     - Level
1117:.\Generated_Source\PSoC4/Relay_Offset.c **** *     - Relay_Offset_TRIG_RISING    - Rising edge
1118:.\Generated_Source\PSoC4/Relay_Offset.c **** *     - Relay_Offset_TRIG_FALLING   - Falling edge
1119:.\Generated_Source\PSoC4/Relay_Offset.c **** *     - Relay_Offset_TRIG_BOTH      - Both rising and falling edge
1120:.\Generated_Source\PSoC4/Relay_Offset.c **** *
1121:.\Generated_Source\PSoC4/Relay_Offset.c **** * Return:
1122:.\Generated_Source\PSoC4/Relay_Offset.c **** *  None
1123:.\Generated_Source\PSoC4/Relay_Offset.c **** *
1124:.\Generated_Source\PSoC4/Relay_Offset.c **** *******************************************************************************/
1125:.\Generated_Source\PSoC4/Relay_Offset.c **** void Relay_Offset_SetStartMode(uint32 triggerMode)
1126:.\Generated_Source\PSoC4/Relay_Offset.c **** {
1127:.\Generated_Source\PSoC4/Relay_Offset.c ****     uint8 enableInterrupts;
1128:.\Generated_Source\PSoC4/Relay_Offset.c **** 
1129:.\Generated_Source\PSoC4/Relay_Offset.c ****     enableInterrupts = CyEnterCriticalSection();
1130:.\Generated_Source\PSoC4/Relay_Offset.c **** 
1131:.\Generated_Source\PSoC4/Relay_Offset.c ****     Relay_Offset_TRIG_CONTROL1_REG &= (uint32)~Relay_Offset_START_MASK;
1132:.\Generated_Source\PSoC4/Relay_Offset.c ****     Relay_Offset_TRIG_CONTROL1_REG |= ((uint32)(triggerMode << Relay_Offset_START_SHIFT));
1133:.\Generated_Source\PSoC4/Relay_Offset.c **** 
1134:.\Generated_Source\PSoC4/Relay_Offset.c ****     CyExitCriticalSection(enableInterrupts);
1135:.\Generated_Source\PSoC4/Relay_Offset.c **** }
1136:.\Generated_Source\PSoC4/Relay_Offset.c **** 
1137:.\Generated_Source\PSoC4/Relay_Offset.c **** 
1138:.\Generated_Source\PSoC4/Relay_Offset.c **** /*******************************************************************************
1139:.\Generated_Source\PSoC4/Relay_Offset.c **** * Function Name: Relay_Offset_SetStopMode
1140:.\Generated_Source\PSoC4/Relay_Offset.c **** ********************************************************************************
1141:.\Generated_Source\PSoC4/Relay_Offset.c **** *
1142:.\Generated_Source\PSoC4/Relay_Offset.c **** * Summary:
1143:.\Generated_Source\PSoC4/Relay_Offset.c **** *  Sets the stop trigger mode. For PWM mode this is the kill input.
1144:.\Generated_Source\PSoC4/Relay_Offset.c **** *
1145:.\Generated_Source\PSoC4/Relay_Offset.c **** * Parameters:
1146:.\Generated_Source\PSoC4/Relay_Offset.c **** *  triggerMode: Enumerated trigger mode value
1147:.\Generated_Source\PSoC4/Relay_Offset.c **** *   Values:
1148:.\Generated_Source\PSoC4/Relay_Offset.c **** *     - Relay_Offset_TRIG_LEVEL     - Level
1149:.\Generated_Source\PSoC4/Relay_Offset.c **** *     - Relay_Offset_TRIG_RISING    - Rising edge
1150:.\Generated_Source\PSoC4/Relay_Offset.c **** *     - Relay_Offset_TRIG_FALLING   - Falling edge
1151:.\Generated_Source\PSoC4/Relay_Offset.c **** *     - Relay_Offset_TRIG_BOTH      - Both rising and falling edge
1152:.\Generated_Source\PSoC4/Relay_Offset.c **** *
1153:.\Generated_Source\PSoC4/Relay_Offset.c **** * Return:
1154:.\Generated_Source\PSoC4/Relay_Offset.c **** *  None
ARM GAS  C:\Users\syhaines\AppData\Local\Temp\ccw1hiA6.s 			page 22


1155:.\Generated_Source\PSoC4/Relay_Offset.c **** *
1156:.\Generated_Source\PSoC4/Relay_Offset.c **** *******************************************************************************/
1157:.\Generated_Source\PSoC4/Relay_Offset.c **** void Relay_Offset_SetStopMode(uint32 triggerMode)
1158:.\Generated_Source\PSoC4/Relay_Offset.c **** {
1159:.\Generated_Source\PSoC4/Relay_Offset.c ****     uint8 enableInterrupts;
1160:.\Generated_Source\PSoC4/Relay_Offset.c **** 
1161:.\Generated_Source\PSoC4/Relay_Offset.c ****     enableInterrupts = CyEnterCriticalSection();
1162:.\Generated_Source\PSoC4/Relay_Offset.c **** 
1163:.\Generated_Source\PSoC4/Relay_Offset.c ****     Relay_Offset_TRIG_CONTROL1_REG &= (uint32)~Relay_Offset_STOP_MASK;
1164:.\Generated_Source\PSoC4/Relay_Offset.c ****     Relay_Offset_TRIG_CONTROL1_REG |= ((uint32)(triggerMode << Relay_Offset_STOP_SHIFT));
1165:.\Generated_Source\PSoC4/Relay_Offset.c **** 
1166:.\Generated_Source\PSoC4/Relay_Offset.c ****     CyExitCriticalSection(enableInterrupts);
1167:.\Generated_Source\PSoC4/Relay_Offset.c **** }
1168:.\Generated_Source\PSoC4/Relay_Offset.c **** 
1169:.\Generated_Source\PSoC4/Relay_Offset.c **** 
1170:.\Generated_Source\PSoC4/Relay_Offset.c **** /*******************************************************************************
1171:.\Generated_Source\PSoC4/Relay_Offset.c **** * Function Name: Relay_Offset_SetCountMode
1172:.\Generated_Source\PSoC4/Relay_Offset.c **** ********************************************************************************
1173:.\Generated_Source\PSoC4/Relay_Offset.c **** *
1174:.\Generated_Source\PSoC4/Relay_Offset.c **** * Summary:
1175:.\Generated_Source\PSoC4/Relay_Offset.c **** *  Sets the count trigger mode. For Quadrature Decoder mode this is the phiA
1176:.\Generated_Source\PSoC4/Relay_Offset.c **** *  input.
1177:.\Generated_Source\PSoC4/Relay_Offset.c **** *
1178:.\Generated_Source\PSoC4/Relay_Offset.c **** * Parameters:
1179:.\Generated_Source\PSoC4/Relay_Offset.c **** *  triggerMode: Enumerated trigger mode value
1180:.\Generated_Source\PSoC4/Relay_Offset.c **** *   Values:
1181:.\Generated_Source\PSoC4/Relay_Offset.c **** *     - Relay_Offset_TRIG_LEVEL     - Level
1182:.\Generated_Source\PSoC4/Relay_Offset.c **** *     - Relay_Offset_TRIG_RISING    - Rising edge
1183:.\Generated_Source\PSoC4/Relay_Offset.c **** *     - Relay_Offset_TRIG_FALLING   - Falling edge
1184:.\Generated_Source\PSoC4/Relay_Offset.c **** *     - Relay_Offset_TRIG_BOTH      - Both rising and falling edge
1185:.\Generated_Source\PSoC4/Relay_Offset.c **** *
1186:.\Generated_Source\PSoC4/Relay_Offset.c **** * Return:
1187:.\Generated_Source\PSoC4/Relay_Offset.c **** *  None
1188:.\Generated_Source\PSoC4/Relay_Offset.c **** *
1189:.\Generated_Source\PSoC4/Relay_Offset.c **** *******************************************************************************/
1190:.\Generated_Source\PSoC4/Relay_Offset.c **** void Relay_Offset_SetCountMode(uint32 triggerMode)
1191:.\Generated_Source\PSoC4/Relay_Offset.c **** {
1192:.\Generated_Source\PSoC4/Relay_Offset.c ****     uint8 enableInterrupts;
1193:.\Generated_Source\PSoC4/Relay_Offset.c **** 
1194:.\Generated_Source\PSoC4/Relay_Offset.c ****     enableInterrupts = CyEnterCriticalSection();
1195:.\Generated_Source\PSoC4/Relay_Offset.c **** 
1196:.\Generated_Source\PSoC4/Relay_Offset.c ****     Relay_Offset_TRIG_CONTROL1_REG &= (uint32)~Relay_Offset_COUNT_MASK;
1197:.\Generated_Source\PSoC4/Relay_Offset.c ****     Relay_Offset_TRIG_CONTROL1_REG |= ((uint32)(triggerMode << Relay_Offset_COUNT_SHIFT));
1198:.\Generated_Source\PSoC4/Relay_Offset.c **** 
1199:.\Generated_Source\PSoC4/Relay_Offset.c ****     CyExitCriticalSection(enableInterrupts);
1200:.\Generated_Source\PSoC4/Relay_Offset.c **** }
1201:.\Generated_Source\PSoC4/Relay_Offset.c **** 
1202:.\Generated_Source\PSoC4/Relay_Offset.c **** 
1203:.\Generated_Source\PSoC4/Relay_Offset.c **** /*******************************************************************************
1204:.\Generated_Source\PSoC4/Relay_Offset.c **** * Function Name: Relay_Offset_TriggerCommand
1205:.\Generated_Source\PSoC4/Relay_Offset.c **** ********************************************************************************
1206:.\Generated_Source\PSoC4/Relay_Offset.c **** *
1207:.\Generated_Source\PSoC4/Relay_Offset.c **** * Summary:
1208:.\Generated_Source\PSoC4/Relay_Offset.c **** *  Triggers the designated command to occur on the designated TCPWM instances.
1209:.\Generated_Source\PSoC4/Relay_Offset.c **** *  The mask can be used to apply this command simultaneously to more than one
1210:.\Generated_Source\PSoC4/Relay_Offset.c **** *  instance.  This allows multiple TCPWM instances to be synchronized.
1211:.\Generated_Source\PSoC4/Relay_Offset.c **** *
ARM GAS  C:\Users\syhaines\AppData\Local\Temp\ccw1hiA6.s 			page 23


1212:.\Generated_Source\PSoC4/Relay_Offset.c **** * Parameters:
1213:.\Generated_Source\PSoC4/Relay_Offset.c **** *  mask: A combination of mask bits for each instance of the TCPWM that the
1214:.\Generated_Source\PSoC4/Relay_Offset.c **** *        command should apply to.  This function from one instance can be used
1215:.\Generated_Source\PSoC4/Relay_Offset.c **** *        to apply the command to any of the instances in the design.
1216:.\Generated_Source\PSoC4/Relay_Offset.c **** *        The mask value for a specific instance is available with the MASK
1217:.\Generated_Source\PSoC4/Relay_Offset.c **** *        define.
1218:.\Generated_Source\PSoC4/Relay_Offset.c **** *  command: Enumerated command values. Capture command only applicable for
1219:.\Generated_Source\PSoC4/Relay_Offset.c **** *           Timer/Counter with Capture and PWM modes.
1220:.\Generated_Source\PSoC4/Relay_Offset.c **** *   Values:
1221:.\Generated_Source\PSoC4/Relay_Offset.c **** *     - Relay_Offset_CMD_CAPTURE    - Trigger Capture command
1222:.\Generated_Source\PSoC4/Relay_Offset.c **** *     - Relay_Offset_CMD_RELOAD     - Trigger Reload command
1223:.\Generated_Source\PSoC4/Relay_Offset.c **** *     - Relay_Offset_CMD_STOP       - Trigger Stop command
1224:.\Generated_Source\PSoC4/Relay_Offset.c **** *     - Relay_Offset_CMD_START      - Trigger Start command
1225:.\Generated_Source\PSoC4/Relay_Offset.c **** *
1226:.\Generated_Source\PSoC4/Relay_Offset.c **** * Return:
1227:.\Generated_Source\PSoC4/Relay_Offset.c **** *  None
1228:.\Generated_Source\PSoC4/Relay_Offset.c **** *
1229:.\Generated_Source\PSoC4/Relay_Offset.c **** *******************************************************************************/
1230:.\Generated_Source\PSoC4/Relay_Offset.c **** void Relay_Offset_TriggerCommand(uint32 mask, uint32 command)
1231:.\Generated_Source\PSoC4/Relay_Offset.c **** {
1232:.\Generated_Source\PSoC4/Relay_Offset.c ****     uint8 enableInterrupts;
1233:.\Generated_Source\PSoC4/Relay_Offset.c **** 
1234:.\Generated_Source\PSoC4/Relay_Offset.c ****     enableInterrupts = CyEnterCriticalSection();
1235:.\Generated_Source\PSoC4/Relay_Offset.c **** 
1236:.\Generated_Source\PSoC4/Relay_Offset.c ****     Relay_Offset_COMMAND_REG = ((uint32)(mask << command));
1237:.\Generated_Source\PSoC4/Relay_Offset.c **** 
1238:.\Generated_Source\PSoC4/Relay_Offset.c ****     CyExitCriticalSection(enableInterrupts);
1239:.\Generated_Source\PSoC4/Relay_Offset.c **** }
1240:.\Generated_Source\PSoC4/Relay_Offset.c **** 
1241:.\Generated_Source\PSoC4/Relay_Offset.c **** 
1242:.\Generated_Source\PSoC4/Relay_Offset.c **** /*******************************************************************************
1243:.\Generated_Source\PSoC4/Relay_Offset.c **** * Function Name: Relay_Offset_ReadStatus
1244:.\Generated_Source\PSoC4/Relay_Offset.c **** ********************************************************************************
1245:.\Generated_Source\PSoC4/Relay_Offset.c **** *
1246:.\Generated_Source\PSoC4/Relay_Offset.c **** * Summary:
1247:.\Generated_Source\PSoC4/Relay_Offset.c **** *  Reads the status of the Relay_Offset.
1248:.\Generated_Source\PSoC4/Relay_Offset.c **** *
1249:.\Generated_Source\PSoC4/Relay_Offset.c **** * Parameters:
1250:.\Generated_Source\PSoC4/Relay_Offset.c **** *  None
1251:.\Generated_Source\PSoC4/Relay_Offset.c **** *
1252:.\Generated_Source\PSoC4/Relay_Offset.c **** * Return:
1253:.\Generated_Source\PSoC4/Relay_Offset.c **** *  Status
1254:.\Generated_Source\PSoC4/Relay_Offset.c **** *   Values:
1255:.\Generated_Source\PSoC4/Relay_Offset.c **** *     - Relay_Offset_STATUS_DOWN    - Set if counting down
1256:.\Generated_Source\PSoC4/Relay_Offset.c **** *     - Relay_Offset_STATUS_RUNNING - Set if counter is running
1257:.\Generated_Source\PSoC4/Relay_Offset.c **** *
1258:.\Generated_Source\PSoC4/Relay_Offset.c **** *******************************************************************************/
1259:.\Generated_Source\PSoC4/Relay_Offset.c **** uint32 Relay_Offset_ReadStatus(void)
1260:.\Generated_Source\PSoC4/Relay_Offset.c **** {
1261:.\Generated_Source\PSoC4/Relay_Offset.c ****     return ((Relay_Offset_STATUS_REG >> Relay_Offset_RUNNING_STATUS_SHIFT) |
1262:.\Generated_Source\PSoC4/Relay_Offset.c ****             (Relay_Offset_STATUS_REG & Relay_Offset_STATUS_DOWN));
1263:.\Generated_Source\PSoC4/Relay_Offset.c **** }
1264:.\Generated_Source\PSoC4/Relay_Offset.c **** 
1265:.\Generated_Source\PSoC4/Relay_Offset.c **** 
1266:.\Generated_Source\PSoC4/Relay_Offset.c **** /*******************************************************************************
1267:.\Generated_Source\PSoC4/Relay_Offset.c **** * Function Name: Relay_Offset_SetInterruptMode
1268:.\Generated_Source\PSoC4/Relay_Offset.c **** ********************************************************************************
ARM GAS  C:\Users\syhaines\AppData\Local\Temp\ccw1hiA6.s 			page 24


1269:.\Generated_Source\PSoC4/Relay_Offset.c **** *
1270:.\Generated_Source\PSoC4/Relay_Offset.c **** * Summary:
1271:.\Generated_Source\PSoC4/Relay_Offset.c **** *  Sets the interrupt mask to control which interrupt
1272:.\Generated_Source\PSoC4/Relay_Offset.c **** *  requests generate the interrupt signal.
1273:.\Generated_Source\PSoC4/Relay_Offset.c **** *
1274:.\Generated_Source\PSoC4/Relay_Offset.c **** * Parameters:
1275:.\Generated_Source\PSoC4/Relay_Offset.c **** *   interruptMask: Mask of bits to be enabled
1276:.\Generated_Source\PSoC4/Relay_Offset.c **** *   Values:
1277:.\Generated_Source\PSoC4/Relay_Offset.c **** *     - Relay_Offset_INTR_MASK_TC       - Terminal count mask
1278:.\Generated_Source\PSoC4/Relay_Offset.c **** *     - Relay_Offset_INTR_MASK_CC_MATCH - Compare count / capture mask
1279:.\Generated_Source\PSoC4/Relay_Offset.c **** *
1280:.\Generated_Source\PSoC4/Relay_Offset.c **** * Return:
1281:.\Generated_Source\PSoC4/Relay_Offset.c **** *  None
1282:.\Generated_Source\PSoC4/Relay_Offset.c **** *
1283:.\Generated_Source\PSoC4/Relay_Offset.c **** *******************************************************************************/
1284:.\Generated_Source\PSoC4/Relay_Offset.c **** void Relay_Offset_SetInterruptMode(uint32 interruptMask)
1285:.\Generated_Source\PSoC4/Relay_Offset.c **** {
1286:.\Generated_Source\PSoC4/Relay_Offset.c ****     Relay_Offset_INTERRUPT_MASK_REG =  interruptMask;
  43              		.loc 1 1286 0
  44 000e 074B     		ldr	r3, .L2+8
  45 0010 0B3A     		sub	r2, r2, #11
  46 0012 1A60     		str	r2, [r3]
  47              	.LVL1:
  48              	.LBE9:
  49              	.LBE8:
  50              	.LBB10:
  51              	.LBB11:
 689:.\Generated_Source\PSoC4/Relay_Offset.c **** }
  52              		.loc 1 689 0
  53 0014 064B     		ldr	r3, .L2+12
  54 0016 3132     		add	r2, r2, #49
  55 0018 1A60     		str	r2, [r3]
  56              	.LVL2:
  57              	.LBE11:
  58              	.LBE10:
  59              	.LBB12:
  60              	.LBB13:
 611:.\Generated_Source\PSoC4/Relay_Offset.c **** }
  61              		.loc 1 611 0
  62 001a 0022     		mov	r2, #0
  63 001c 054B     		ldr	r3, .L2+16
  64 001e 1A60     		str	r2, [r3]
  65              	.LBE13:
  66              	.LBE12:
 160:.\Generated_Source\PSoC4/Relay_Offset.c **** 
  67              		.loc 1 160 0
  68 0020 7047     		bx	lr
  69              	.L3:
  70 0022 C046     		.align	2
  71              	.L2:
  72 0024 00010540 		.word	1074069760
  73 0028 24010540 		.word	1074069796
  74 002c 38010540 		.word	1074069816
  75 0030 14010540 		.word	1074069780
  76 0034 08010540 		.word	1074069768
  77              		.cfi_endproc
  78              	.LFE0:
ARM GAS  C:\Users\syhaines\AppData\Local\Temp\ccw1hiA6.s 			page 25


  79              		.size	Relay_Offset_Init, .-Relay_Offset_Init
  80              		.section	.text.Relay_Offset_Stop,"ax",%progbits
  81              		.align	1
  82              		.global	Relay_Offset_Stop
  83              		.code	16
  84              		.thumb_func
  85              		.type	Relay_Offset_Stop, %function
  86              	Relay_Offset_Stop:
  87              	.LFB3:
 251:.\Generated_Source\PSoC4/Relay_Offset.c ****     uint8 enableInterrupts;
  88              		.loc 1 251 0
  89              		.cfi_startproc
  90 0000 08B5     		push	{r3, lr}
  91              		.cfi_def_cfa_offset 8
  92              		.cfi_offset 3, -8
  93              		.cfi_offset 14, -4
 254:.\Generated_Source\PSoC4/Relay_Offset.c **** 
  94              		.loc 1 254 0
  95 0002 FFF7FEFF 		bl	CyEnterCriticalSection
  96              	.LVL3:
 256:.\Generated_Source\PSoC4/Relay_Offset.c **** 
  97              		.loc 1 256 0
  98 0006 0121     		mov	r1, #1
  99 0008 034A     		ldr	r2, .L5
 259:.\Generated_Source\PSoC4/Relay_Offset.c **** 
 100              		.loc 1 259 0
 101              		@ sp needed
 256:.\Generated_Source\PSoC4/Relay_Offset.c **** 
 102              		.loc 1 256 0
 103 000a 1368     		ldr	r3, [r2]
 104 000c 8B43     		bic	r3, r1
 105 000e 1360     		str	r3, [r2]
 258:.\Generated_Source\PSoC4/Relay_Offset.c **** }
 106              		.loc 1 258 0
 107 0010 FFF7FEFF 		bl	CyExitCriticalSection
 108              	.LVL4:
 259:.\Generated_Source\PSoC4/Relay_Offset.c **** 
 109              		.loc 1 259 0
 110 0014 08BD     		pop	{r3, pc}
 111              	.L6:
 112 0016 C046     		.align	2
 113              	.L5:
 114 0018 00000540 		.word	1074069504
 115              		.cfi_endproc
 116              	.LFE3:
 117              		.size	Relay_Offset_Stop, .-Relay_Offset_Stop
 118              		.section	.text.Relay_Offset_SetMode,"ax",%progbits
 119              		.align	1
 120              		.global	Relay_Offset_SetMode
 121              		.code	16
 122              		.thumb_func
 123              		.type	Relay_Offset_SetMode, %function
 124              	Relay_Offset_SetMode:
 125              	.LFB4:
 288:.\Generated_Source\PSoC4/Relay_Offset.c ****     uint8 enableInterrupts;
 126              		.loc 1 288 0
 127              		.cfi_startproc
ARM GAS  C:\Users\syhaines\AppData\Local\Temp\ccw1hiA6.s 			page 26


 128              	.LVL5:
 129 0000 10B5     		push	{r4, lr}
 130              		.cfi_def_cfa_offset 8
 131              		.cfi_offset 4, -8
 132              		.cfi_offset 14, -4
 288:.\Generated_Source\PSoC4/Relay_Offset.c ****     uint8 enableInterrupts;
 133              		.loc 1 288 0
 134 0002 041C     		mov	r4, r0
 291:.\Generated_Source\PSoC4/Relay_Offset.c **** 
 135              		.loc 1 291 0
 136 0004 FFF7FEFF 		bl	CyEnterCriticalSection
 137              	.LVL6:
 293:.\Generated_Source\PSoC4/Relay_Offset.c ****     Relay_Offset_CONTROL_REG |= mode;
 138              		.loc 1 293 0
 139 0008 054B     		ldr	r3, .L8
 140 000a 064A     		ldr	r2, .L8+4
 141 000c 1968     		ldr	r1, [r3]
 297:.\Generated_Source\PSoC4/Relay_Offset.c **** 
 142              		.loc 1 297 0
 143              		@ sp needed
 293:.\Generated_Source\PSoC4/Relay_Offset.c ****     Relay_Offset_CONTROL_REG |= mode;
 144              		.loc 1 293 0
 145 000e 0A40     		and	r2, r1
 146 0010 1A60     		str	r2, [r3]
 294:.\Generated_Source\PSoC4/Relay_Offset.c **** 
 147              		.loc 1 294 0
 148 0012 1A68     		ldr	r2, [r3]
 149 0014 2243     		orr	r2, r4
 150 0016 1A60     		str	r2, [r3]
 296:.\Generated_Source\PSoC4/Relay_Offset.c **** }
 151              		.loc 1 296 0
 152 0018 FFF7FEFF 		bl	CyExitCriticalSection
 153              	.LVL7:
 154              	.LVL8:
 297:.\Generated_Source\PSoC4/Relay_Offset.c **** 
 155              		.loc 1 297 0
 156 001c 10BD     		pop	{r4, pc}
 157              	.L9:
 158 001e C046     		.align	2
 159              	.L8:
 160 0020 00010540 		.word	1074069760
 161 0024 FFFFFFF8 		.word	-117440513
 162              		.cfi_endproc
 163              	.LFE4:
 164              		.size	Relay_Offset_SetMode, .-Relay_Offset_SetMode
 165              		.section	.text.Relay_Offset_SetQDMode,"ax",%progbits
 166              		.align	1
 167              		.global	Relay_Offset_SetQDMode
 168              		.code	16
 169              		.thumb_func
 170              		.type	Relay_Offset_SetQDMode, %function
 171              	Relay_Offset_SetQDMode:
 172              	.LFB5:
 321:.\Generated_Source\PSoC4/Relay_Offset.c ****     uint8 enableInterrupts;
 173              		.loc 1 321 0
 174              		.cfi_startproc
 175              	.LVL9:
ARM GAS  C:\Users\syhaines\AppData\Local\Temp\ccw1hiA6.s 			page 27


 176 0000 10B5     		push	{r4, lr}
 177              		.cfi_def_cfa_offset 8
 178              		.cfi_offset 4, -8
 179              		.cfi_offset 14, -4
 321:.\Generated_Source\PSoC4/Relay_Offset.c ****     uint8 enableInterrupts;
 180              		.loc 1 321 0
 181 0002 041C     		mov	r4, r0
 324:.\Generated_Source\PSoC4/Relay_Offset.c **** 
 182              		.loc 1 324 0
 183 0004 FFF7FEFF 		bl	CyEnterCriticalSection
 184              	.LVL10:
 326:.\Generated_Source\PSoC4/Relay_Offset.c ****     Relay_Offset_CONTROL_REG |= qdMode;
 185              		.loc 1 326 0
 186 0008 054B     		ldr	r3, .L11
 187 000a 064A     		ldr	r2, .L11+4
 188 000c 1968     		ldr	r1, [r3]
 330:.\Generated_Source\PSoC4/Relay_Offset.c **** 
 189              		.loc 1 330 0
 190              		@ sp needed
 326:.\Generated_Source\PSoC4/Relay_Offset.c ****     Relay_Offset_CONTROL_REG |= qdMode;
 191              		.loc 1 326 0
 192 000e 0A40     		and	r2, r1
 193 0010 1A60     		str	r2, [r3]
 327:.\Generated_Source\PSoC4/Relay_Offset.c **** 
 194              		.loc 1 327 0
 195 0012 1A68     		ldr	r2, [r3]
 196 0014 2243     		orr	r2, r4
 197 0016 1A60     		str	r2, [r3]
 329:.\Generated_Source\PSoC4/Relay_Offset.c **** }
 198              		.loc 1 329 0
 199 0018 FFF7FEFF 		bl	CyExitCriticalSection
 200              	.LVL11:
 201              	.LVL12:
 330:.\Generated_Source\PSoC4/Relay_Offset.c **** 
 202              		.loc 1 330 0
 203 001c 10BD     		pop	{r4, pc}
 204              	.L12:
 205 001e C046     		.align	2
 206              	.L11:
 207 0020 00010540 		.word	1074069760
 208 0024 FFFF8FFF 		.word	-7340033
 209              		.cfi_endproc
 210              	.LFE5:
 211              		.size	Relay_Offset_SetQDMode, .-Relay_Offset_SetQDMode
 212              		.section	.text.Relay_Offset_SetPrescaler,"ax",%progbits
 213              		.align	1
 214              		.global	Relay_Offset_SetPrescaler
 215              		.code	16
 216              		.thumb_func
 217              		.type	Relay_Offset_SetPrescaler, %function
 218              	Relay_Offset_SetPrescaler:
 219              	.LFB6:
 358:.\Generated_Source\PSoC4/Relay_Offset.c ****     uint8 enableInterrupts;
 220              		.loc 1 358 0
 221              		.cfi_startproc
 222              	.LVL13:
 223 0000 10B5     		push	{r4, lr}
ARM GAS  C:\Users\syhaines\AppData\Local\Temp\ccw1hiA6.s 			page 28


 224              		.cfi_def_cfa_offset 8
 225              		.cfi_offset 4, -8
 226              		.cfi_offset 14, -4
 358:.\Generated_Source\PSoC4/Relay_Offset.c ****     uint8 enableInterrupts;
 227              		.loc 1 358 0
 228 0002 041C     		mov	r4, r0
 361:.\Generated_Source\PSoC4/Relay_Offset.c **** 
 229              		.loc 1 361 0
 230 0004 FFF7FEFF 		bl	CyEnterCriticalSection
 231              	.LVL14:
 363:.\Generated_Source\PSoC4/Relay_Offset.c ****     Relay_Offset_CONTROL_REG |= prescaler;
 232              		.loc 1 363 0
 233 0008 054B     		ldr	r3, .L14
 234 000a 064A     		ldr	r2, .L14+4
 235 000c 1968     		ldr	r1, [r3]
 367:.\Generated_Source\PSoC4/Relay_Offset.c **** 
 236              		.loc 1 367 0
 237              		@ sp needed
 363:.\Generated_Source\PSoC4/Relay_Offset.c ****     Relay_Offset_CONTROL_REG |= prescaler;
 238              		.loc 1 363 0
 239 000e 0A40     		and	r2, r1
 240 0010 1A60     		str	r2, [r3]
 364:.\Generated_Source\PSoC4/Relay_Offset.c **** 
 241              		.loc 1 364 0
 242 0012 1A68     		ldr	r2, [r3]
 243 0014 2243     		orr	r2, r4
 244 0016 1A60     		str	r2, [r3]
 366:.\Generated_Source\PSoC4/Relay_Offset.c **** }
 245              		.loc 1 366 0
 246 0018 FFF7FEFF 		bl	CyExitCriticalSection
 247              	.LVL15:
 248              	.LVL16:
 367:.\Generated_Source\PSoC4/Relay_Offset.c **** 
 249              		.loc 1 367 0
 250 001c 10BD     		pop	{r4, pc}
 251              	.L15:
 252 001e C046     		.align	2
 253              	.L14:
 254 0020 00010540 		.word	1074069760
 255 0024 FF00FFFF 		.word	-65281
 256              		.cfi_endproc
 257              	.LFE6:
 258              		.size	Relay_Offset_SetPrescaler, .-Relay_Offset_SetPrescaler
 259              		.section	.text.Relay_Offset_SetOneShot,"ax",%progbits
 260              		.align	1
 261              		.global	Relay_Offset_SetOneShot
 262              		.code	16
 263              		.thumb_func
 264              		.type	Relay_Offset_SetOneShot, %function
 265              	Relay_Offset_SetOneShot:
 266              	.LFB7:
 390:.\Generated_Source\PSoC4/Relay_Offset.c ****     uint8 enableInterrupts;
 267              		.loc 1 390 0
 268              		.cfi_startproc
 269              	.LVL17:
 270 0000 10B5     		push	{r4, lr}
 271              		.cfi_def_cfa_offset 8
ARM GAS  C:\Users\syhaines\AppData\Local\Temp\ccw1hiA6.s 			page 29


 272              		.cfi_offset 4, -8
 273              		.cfi_offset 14, -4
 390:.\Generated_Source\PSoC4/Relay_Offset.c ****     uint8 enableInterrupts;
 274              		.loc 1 390 0
 275 0002 041C     		mov	r4, r0
 393:.\Generated_Source\PSoC4/Relay_Offset.c **** 
 276              		.loc 1 393 0
 277 0004 FFF7FEFF 		bl	CyEnterCriticalSection
 278              	.LVL18:
 395:.\Generated_Source\PSoC4/Relay_Offset.c ****     Relay_Offset_CONTROL_REG |= ((uint32)((oneShotEnable & Relay_Offset_1BIT_MASK) <<
 279              		.loc 1 395 0
 280 0008 064A     		ldr	r2, .L17
 281 000a 074B     		ldr	r3, .L17+4
 282 000c 1168     		ldr	r1, [r2]
 400:.\Generated_Source\PSoC4/Relay_Offset.c **** 
 283              		.loc 1 400 0
 284              		@ sp needed
 395:.\Generated_Source\PSoC4/Relay_Offset.c ****     Relay_Offset_CONTROL_REG |= ((uint32)((oneShotEnable & Relay_Offset_1BIT_MASK) <<
 285              		.loc 1 395 0
 286 000e 0B40     		and	r3, r1
 287 0010 1360     		str	r3, [r2]
 396:.\Generated_Source\PSoC4/Relay_Offset.c ****                                                                Relay_Offset_ONESHOT_SHIFT));
 288              		.loc 1 396 0
 289 0012 0123     		mov	r3, #1
 290 0014 1168     		ldr	r1, [r2]
 291 0016 2340     		and	r3, r4
 292 0018 9B04     		lsl	r3, r3, #18
 293 001a 0B43     		orr	r3, r1
 294 001c 1360     		str	r3, [r2]
 399:.\Generated_Source\PSoC4/Relay_Offset.c **** }
 295              		.loc 1 399 0
 296 001e FFF7FEFF 		bl	CyExitCriticalSection
 297              	.LVL19:
 298              	.LVL20:
 400:.\Generated_Source\PSoC4/Relay_Offset.c **** 
 299              		.loc 1 400 0
 300 0022 10BD     		pop	{r4, pc}
 301              	.L18:
 302              		.align	2
 303              	.L17:
 304 0024 00010540 		.word	1074069760
 305 0028 FFFFFBFF 		.word	-262145
 306              		.cfi_endproc
 307              	.LFE7:
 308              		.size	Relay_Offset_SetOneShot, .-Relay_Offset_SetOneShot
 309              		.section	.text.Relay_Offset_SetPWMMode,"ax",%progbits
 310              		.align	1
 311              		.global	Relay_Offset_SetPWMMode
 312              		.code	16
 313              		.thumb_func
 314              		.type	Relay_Offset_SetPWMMode, %function
 315              	Relay_Offset_SetPWMMode:
 316              	.LFB8:
 444:.\Generated_Source\PSoC4/Relay_Offset.c ****     Relay_Offset_TRIG_CONTROL2_REG = (modeMask & Relay_Offset_6BIT_MASK);
 317              		.loc 1 444 0
 318              		.cfi_startproc
 319              	.LVL21:
ARM GAS  C:\Users\syhaines\AppData\Local\Temp\ccw1hiA6.s 			page 30


 445:.\Generated_Source\PSoC4/Relay_Offset.c **** }
 320              		.loc 1 445 0
 321 0000 3F23     		mov	r3, #63
 322 0002 1840     		and	r0, r3
 323              	.LVL22:
 324 0004 014B     		ldr	r3, .L20
 446:.\Generated_Source\PSoC4/Relay_Offset.c **** 
 325              		.loc 1 446 0
 326              		@ sp needed
 445:.\Generated_Source\PSoC4/Relay_Offset.c **** }
 327              		.loc 1 445 0
 328 0006 1860     		str	r0, [r3]
 446:.\Generated_Source\PSoC4/Relay_Offset.c **** 
 329              		.loc 1 446 0
 330 0008 7047     		bx	lr
 331              	.L21:
 332 000a C046     		.align	2
 333              	.L20:
 334 000c 28010540 		.word	1074069800
 335              		.cfi_endproc
 336              	.LFE8:
 337              		.size	Relay_Offset_SetPWMMode, .-Relay_Offset_SetPWMMode
 338              		.section	.text.Relay_Offset_SetPWMSyncKill,"ax",%progbits
 339              		.align	1
 340              		.global	Relay_Offset_SetPWMSyncKill
 341              		.code	16
 342              		.thumb_func
 343              		.type	Relay_Offset_SetPWMSyncKill, %function
 344              	Relay_Offset_SetPWMSyncKill:
 345              	.LFB9:
 480:.\Generated_Source\PSoC4/Relay_Offset.c ****     uint8 enableInterrupts;
 346              		.loc 1 480 0
 347              		.cfi_startproc
 348              	.LVL23:
 349 0000 10B5     		push	{r4, lr}
 350              		.cfi_def_cfa_offset 8
 351              		.cfi_offset 4, -8
 352              		.cfi_offset 14, -4
 480:.\Generated_Source\PSoC4/Relay_Offset.c ****     uint8 enableInterrupts;
 353              		.loc 1 480 0
 354 0002 041C     		mov	r4, r0
 483:.\Generated_Source\PSoC4/Relay_Offset.c **** 
 355              		.loc 1 483 0
 356 0004 FFF7FEFF 		bl	CyEnterCriticalSection
 357              	.LVL24:
 485:.\Generated_Source\PSoC4/Relay_Offset.c ****     Relay_Offset_CONTROL_REG |= ((uint32)((syncKillEnable & Relay_Offset_1BIT_MASK)  <<
 358              		.loc 1 485 0
 359 0008 0421     		mov	r1, #4
 360 000a 064A     		ldr	r2, .L23
 490:.\Generated_Source\PSoC4/Relay_Offset.c **** 
 361              		.loc 1 490 0
 362              		@ sp needed
 485:.\Generated_Source\PSoC4/Relay_Offset.c ****     Relay_Offset_CONTROL_REG |= ((uint32)((syncKillEnable & Relay_Offset_1BIT_MASK)  <<
 363              		.loc 1 485 0
 364 000c 1368     		ldr	r3, [r2]
 365 000e 8B43     		bic	r3, r1
 366 0010 1360     		str	r3, [r2]
ARM GAS  C:\Users\syhaines\AppData\Local\Temp\ccw1hiA6.s 			page 31


 486:.\Generated_Source\PSoC4/Relay_Offset.c ****                                                Relay_Offset_PWM_SYNC_KILL_SHIFT));
 367              		.loc 1 486 0
 368 0012 0123     		mov	r3, #1
 369 0014 1168     		ldr	r1, [r2]
 370 0016 2340     		and	r3, r4
 371 0018 9B00     		lsl	r3, r3, #2
 372 001a 0B43     		orr	r3, r1
 373 001c 1360     		str	r3, [r2]
 489:.\Generated_Source\PSoC4/Relay_Offset.c **** }
 374              		.loc 1 489 0
 375 001e FFF7FEFF 		bl	CyExitCriticalSection
 376              	.LVL25:
 377              	.LVL26:
 490:.\Generated_Source\PSoC4/Relay_Offset.c **** 
 378              		.loc 1 490 0
 379 0022 10BD     		pop	{r4, pc}
 380              	.L24:
 381              		.align	2
 382              	.L23:
 383 0024 00010540 		.word	1074069760
 384              		.cfi_endproc
 385              	.LFE9:
 386              		.size	Relay_Offset_SetPWMSyncKill, .-Relay_Offset_SetPWMSyncKill
 387              		.section	.text.Relay_Offset_SetPWMStopOnKill,"ax",%progbits
 388              		.align	1
 389              		.global	Relay_Offset_SetPWMStopOnKill
 390              		.code	16
 391              		.thumb_func
 392              		.type	Relay_Offset_SetPWMStopOnKill, %function
 393              	Relay_Offset_SetPWMStopOnKill:
 394              	.LFB10:
 514:.\Generated_Source\PSoC4/Relay_Offset.c ****     uint8 enableInterrupts;
 395              		.loc 1 514 0
 396              		.cfi_startproc
 397              	.LVL27:
 398 0000 10B5     		push	{r4, lr}
 399              		.cfi_def_cfa_offset 8
 400              		.cfi_offset 4, -8
 401              		.cfi_offset 14, -4
 514:.\Generated_Source\PSoC4/Relay_Offset.c ****     uint8 enableInterrupts;
 402              		.loc 1 514 0
 403 0002 041C     		mov	r4, r0
 517:.\Generated_Source\PSoC4/Relay_Offset.c **** 
 404              		.loc 1 517 0
 405 0004 FFF7FEFF 		bl	CyEnterCriticalSection
 406              	.LVL28:
 519:.\Generated_Source\PSoC4/Relay_Offset.c ****     Relay_Offset_CONTROL_REG |= ((uint32)((stopOnKillEnable & Relay_Offset_1BIT_MASK)  <<
 407              		.loc 1 519 0
 408 0008 0821     		mov	r1, #8
 409 000a 064A     		ldr	r2, .L26
 524:.\Generated_Source\PSoC4/Relay_Offset.c **** 
 410              		.loc 1 524 0
 411              		@ sp needed
 519:.\Generated_Source\PSoC4/Relay_Offset.c ****     Relay_Offset_CONTROL_REG |= ((uint32)((stopOnKillEnable & Relay_Offset_1BIT_MASK)  <<
 412              		.loc 1 519 0
 413 000c 1368     		ldr	r3, [r2]
 414 000e 8B43     		bic	r3, r1
ARM GAS  C:\Users\syhaines\AppData\Local\Temp\ccw1hiA6.s 			page 32


 415 0010 1360     		str	r3, [r2]
 520:.\Generated_Source\PSoC4/Relay_Offset.c ****                                                          Relay_Offset_PWM_STOP_KILL_SHIFT));
 416              		.loc 1 520 0
 417 0012 0123     		mov	r3, #1
 418 0014 1168     		ldr	r1, [r2]
 419 0016 2340     		and	r3, r4
 420 0018 DB00     		lsl	r3, r3, #3
 421 001a 0B43     		orr	r3, r1
 422 001c 1360     		str	r3, [r2]
 523:.\Generated_Source\PSoC4/Relay_Offset.c **** }
 423              		.loc 1 523 0
 424 001e FFF7FEFF 		bl	CyExitCriticalSection
 425              	.LVL29:
 426              	.LVL30:
 524:.\Generated_Source\PSoC4/Relay_Offset.c **** 
 427              		.loc 1 524 0
 428 0022 10BD     		pop	{r4, pc}
 429              	.L27:
 430              		.align	2
 431              	.L26:
 432 0024 00010540 		.word	1074069760
 433              		.cfi_endproc
 434              	.LFE10:
 435              		.size	Relay_Offset_SetPWMStopOnKill, .-Relay_Offset_SetPWMStopOnKill
 436              		.section	.text.Relay_Offset_SetPWMDeadTime,"ax",%progbits
 437              		.align	1
 438              		.global	Relay_Offset_SetPWMDeadTime
 439              		.code	16
 440              		.thumb_func
 441              		.type	Relay_Offset_SetPWMDeadTime, %function
 442              	Relay_Offset_SetPWMDeadTime:
 443              	.LFB11:
 547:.\Generated_Source\PSoC4/Relay_Offset.c ****     uint8 enableInterrupts;
 444              		.loc 1 547 0
 445              		.cfi_startproc
 446              	.LVL31:
 447 0000 10B5     		push	{r4, lr}
 448              		.cfi_def_cfa_offset 8
 449              		.cfi_offset 4, -8
 450              		.cfi_offset 14, -4
 547:.\Generated_Source\PSoC4/Relay_Offset.c ****     uint8 enableInterrupts;
 451              		.loc 1 547 0
 452 0002 041C     		mov	r4, r0
 550:.\Generated_Source\PSoC4/Relay_Offset.c **** 
 453              		.loc 1 550 0
 454 0004 FFF7FEFF 		bl	CyEnterCriticalSection
 455              	.LVL32:
 552:.\Generated_Source\PSoC4/Relay_Offset.c ****     Relay_Offset_CONTROL_REG |= ((uint32)((deadTime & Relay_Offset_8BIT_MASK) <<
 456              		.loc 1 552 0
 457 0008 064B     		ldr	r3, .L29
 458 000a 074A     		ldr	r2, .L29+4
 459 000c 1968     		ldr	r1, [r3]
 553:.\Generated_Source\PSoC4/Relay_Offset.c ****                                                           Relay_Offset_PRESCALER_SHIFT));
 460              		.loc 1 553 0
 461 000e 2406     		lsl	r4, r4, #24
 462              	.LVL33:
 552:.\Generated_Source\PSoC4/Relay_Offset.c ****     Relay_Offset_CONTROL_REG |= ((uint32)((deadTime & Relay_Offset_8BIT_MASK) <<
ARM GAS  C:\Users\syhaines\AppData\Local\Temp\ccw1hiA6.s 			page 33


 463              		.loc 1 552 0
 464 0010 0A40     		and	r2, r1
 465 0012 1A60     		str	r2, [r3]
 553:.\Generated_Source\PSoC4/Relay_Offset.c ****                                                           Relay_Offset_PRESCALER_SHIFT));
 466              		.loc 1 553 0
 467 0014 1A68     		ldr	r2, [r3]
 468 0016 240C     		lsr	r4, r4, #16
 469 0018 1443     		orr	r4, r2
 470 001a 1C60     		str	r4, [r3]
 556:.\Generated_Source\PSoC4/Relay_Offset.c **** }
 471              		.loc 1 556 0
 472 001c FFF7FEFF 		bl	CyExitCriticalSection
 473              	.LVL34:
 557:.\Generated_Source\PSoC4/Relay_Offset.c **** 
 474              		.loc 1 557 0
 475              		@ sp needed
 476 0020 10BD     		pop	{r4, pc}
 477              	.L30:
 478 0022 C046     		.align	2
 479              	.L29:
 480 0024 00010540 		.word	1074069760
 481 0028 FF00FFFF 		.word	-65281
 482              		.cfi_endproc
 483              	.LFE11:
 484              		.size	Relay_Offset_SetPWMDeadTime, .-Relay_Offset_SetPWMDeadTime
 485              		.section	.text.Relay_Offset_SetPWMInvert,"ax",%progbits
 486              		.align	1
 487              		.global	Relay_Offset_SetPWMInvert
 488              		.code	16
 489              		.thumb_func
 490              		.type	Relay_Offset_SetPWMInvert, %function
 491              	Relay_Offset_SetPWMInvert:
 492              	.LFB12:
 580:.\Generated_Source\PSoC4/Relay_Offset.c ****     uint8 enableInterrupts;
 493              		.loc 1 580 0
 494              		.cfi_startproc
 495              	.LVL35:
 496 0000 10B5     		push	{r4, lr}
 497              		.cfi_def_cfa_offset 8
 498              		.cfi_offset 4, -8
 499              		.cfi_offset 14, -4
 580:.\Generated_Source\PSoC4/Relay_Offset.c ****     uint8 enableInterrupts;
 500              		.loc 1 580 0
 501 0002 041C     		mov	r4, r0
 583:.\Generated_Source\PSoC4/Relay_Offset.c **** 
 502              		.loc 1 583 0
 503 0004 FFF7FEFF 		bl	CyEnterCriticalSection
 504              	.LVL36:
 585:.\Generated_Source\PSoC4/Relay_Offset.c ****     Relay_Offset_CONTROL_REG |= mask;
 505              		.loc 1 585 0
 506 0008 054B     		ldr	r3, .L32
 507 000a 064A     		ldr	r2, .L32+4
 508 000c 1968     		ldr	r1, [r3]
 589:.\Generated_Source\PSoC4/Relay_Offset.c **** 
 509              		.loc 1 589 0
 510              		@ sp needed
 585:.\Generated_Source\PSoC4/Relay_Offset.c ****     Relay_Offset_CONTROL_REG |= mask;
ARM GAS  C:\Users\syhaines\AppData\Local\Temp\ccw1hiA6.s 			page 34


 511              		.loc 1 585 0
 512 000e 0A40     		and	r2, r1
 513 0010 1A60     		str	r2, [r3]
 586:.\Generated_Source\PSoC4/Relay_Offset.c **** 
 514              		.loc 1 586 0
 515 0012 1A68     		ldr	r2, [r3]
 516 0014 2243     		orr	r2, r4
 517 0016 1A60     		str	r2, [r3]
 588:.\Generated_Source\PSoC4/Relay_Offset.c **** }
 518              		.loc 1 588 0
 519 0018 FFF7FEFF 		bl	CyExitCriticalSection
 520              	.LVL37:
 521              	.LVL38:
 589:.\Generated_Source\PSoC4/Relay_Offset.c **** 
 522              		.loc 1 589 0
 523 001c 10BD     		pop	{r4, pc}
 524              	.L33:
 525 001e C046     		.align	2
 526              	.L32:
 527 0020 00010540 		.word	1074069760
 528 0024 FFFFCFFF 		.word	-3145729
 529              		.cfi_endproc
 530              	.LFE12:
 531              		.size	Relay_Offset_SetPWMInvert, .-Relay_Offset_SetPWMInvert
 532              		.section	.text.Relay_Offset_WriteCounter,"ax",%progbits
 533              		.align	1
 534              		.global	Relay_Offset_WriteCounter
 535              		.code	16
 536              		.thumb_func
 537              		.type	Relay_Offset_WriteCounter, %function
 538              	Relay_Offset_WriteCounter:
 539              	.LFB13:
 610:.\Generated_Source\PSoC4/Relay_Offset.c ****     Relay_Offset_COUNTER_REG = (count & Relay_Offset_16BIT_MASK);
 540              		.loc 1 610 0
 541              		.cfi_startproc
 542              	.LVL39:
 611:.\Generated_Source\PSoC4/Relay_Offset.c **** }
 543              		.loc 1 611 0
 544 0000 014B     		ldr	r3, .L35
 545 0002 80B2     		uxth	r0, r0
 546              	.LVL40:
 547 0004 1860     		str	r0, [r3]
 612:.\Generated_Source\PSoC4/Relay_Offset.c **** 
 548              		.loc 1 612 0
 549              		@ sp needed
 550 0006 7047     		bx	lr
 551              	.L36:
 552              		.align	2
 553              	.L35:
 554 0008 08010540 		.word	1074069768
 555              		.cfi_endproc
 556              	.LFE13:
 557              		.size	Relay_Offset_WriteCounter, .-Relay_Offset_WriteCounter
 558              		.section	.text.Relay_Offset_ReadCounter,"ax",%progbits
 559              		.align	1
 560              		.global	Relay_Offset_ReadCounter
 561              		.code	16
ARM GAS  C:\Users\syhaines\AppData\Local\Temp\ccw1hiA6.s 			page 35


 562              		.thumb_func
 563              		.type	Relay_Offset_ReadCounter, %function
 564              	Relay_Offset_ReadCounter:
 565              	.LFB14:
 630:.\Generated_Source\PSoC4/Relay_Offset.c ****     return (Relay_Offset_COUNTER_REG & Relay_Offset_16BIT_MASK);
 566              		.loc 1 630 0
 567              		.cfi_startproc
 631:.\Generated_Source\PSoC4/Relay_Offset.c **** }
 568              		.loc 1 631 0
 569 0000 014B     		ldr	r3, .L38
 632:.\Generated_Source\PSoC4/Relay_Offset.c **** 
 570              		.loc 1 632 0
 571              		@ sp needed
 631:.\Generated_Source\PSoC4/Relay_Offset.c **** }
 572              		.loc 1 631 0
 573 0002 1868     		ldr	r0, [r3]
 574 0004 80B2     		uxth	r0, r0
 632:.\Generated_Source\PSoC4/Relay_Offset.c **** 
 575              		.loc 1 632 0
 576 0006 7047     		bx	lr
 577              	.L39:
 578              		.align	2
 579              	.L38:
 580 0008 08010540 		.word	1074069768
 581              		.cfi_endproc
 582              	.LFE14:
 583              		.size	Relay_Offset_ReadCounter, .-Relay_Offset_ReadCounter
 584              		.section	.text.Relay_Offset_SetCounterMode,"ax",%progbits
 585              		.align	1
 586              		.global	Relay_Offset_SetCounterMode
 587              		.code	16
 588              		.thumb_func
 589              		.type	Relay_Offset_SetCounterMode, %function
 590              	Relay_Offset_SetCounterMode:
 591              	.LFB15:
 659:.\Generated_Source\PSoC4/Relay_Offset.c ****     uint8 enableInterrupts;
 592              		.loc 1 659 0
 593              		.cfi_startproc
 594              	.LVL41:
 595 0000 10B5     		push	{r4, lr}
 596              		.cfi_def_cfa_offset 8
 597              		.cfi_offset 4, -8
 598              		.cfi_offset 14, -4
 659:.\Generated_Source\PSoC4/Relay_Offset.c ****     uint8 enableInterrupts;
 599              		.loc 1 659 0
 600 0002 041C     		mov	r4, r0
 662:.\Generated_Source\PSoC4/Relay_Offset.c **** 
 601              		.loc 1 662 0
 602 0004 FFF7FEFF 		bl	CyEnterCriticalSection
 603              	.LVL42:
 664:.\Generated_Source\PSoC4/Relay_Offset.c ****     Relay_Offset_CONTROL_REG |= counterMode;
 604              		.loc 1 664 0
 605 0008 054B     		ldr	r3, .L41
 606 000a 064A     		ldr	r2, .L41+4
 607 000c 1968     		ldr	r1, [r3]
 668:.\Generated_Source\PSoC4/Relay_Offset.c **** 
 608              		.loc 1 668 0
ARM GAS  C:\Users\syhaines\AppData\Local\Temp\ccw1hiA6.s 			page 36


 609              		@ sp needed
 664:.\Generated_Source\PSoC4/Relay_Offset.c ****     Relay_Offset_CONTROL_REG |= counterMode;
 610              		.loc 1 664 0
 611 000e 0A40     		and	r2, r1
 612 0010 1A60     		str	r2, [r3]
 665:.\Generated_Source\PSoC4/Relay_Offset.c **** 
 613              		.loc 1 665 0
 614 0012 1A68     		ldr	r2, [r3]
 615 0014 2243     		orr	r2, r4
 616 0016 1A60     		str	r2, [r3]
 667:.\Generated_Source\PSoC4/Relay_Offset.c **** }
 617              		.loc 1 667 0
 618 0018 FFF7FEFF 		bl	CyExitCriticalSection
 619              	.LVL43:
 620              	.LVL44:
 668:.\Generated_Source\PSoC4/Relay_Offset.c **** 
 621              		.loc 1 668 0
 622 001c 10BD     		pop	{r4, pc}
 623              	.L42:
 624 001e C046     		.align	2
 625              	.L41:
 626 0020 00010540 		.word	1074069760
 627 0024 FFFFFCFF 		.word	-196609
 628              		.cfi_endproc
 629              	.LFE15:
 630              		.size	Relay_Offset_SetCounterMode, .-Relay_Offset_SetCounterMode
 631              		.section	.text.Relay_Offset_WritePeriod,"ax",%progbits
 632              		.align	1
 633              		.global	Relay_Offset_WritePeriod
 634              		.code	16
 635              		.thumb_func
 636              		.type	Relay_Offset_WritePeriod, %function
 637              	Relay_Offset_WritePeriod:
 638              	.LFB16:
 688:.\Generated_Source\PSoC4/Relay_Offset.c ****     Relay_Offset_PERIOD_REG = (period & Relay_Offset_16BIT_MASK);
 639              		.loc 1 688 0
 640              		.cfi_startproc
 641              	.LVL45:
 689:.\Generated_Source\PSoC4/Relay_Offset.c **** }
 642              		.loc 1 689 0
 643 0000 014B     		ldr	r3, .L44
 644 0002 80B2     		uxth	r0, r0
 645              	.LVL46:
 646 0004 1860     		str	r0, [r3]
 690:.\Generated_Source\PSoC4/Relay_Offset.c **** 
 647              		.loc 1 690 0
 648              		@ sp needed
 649 0006 7047     		bx	lr
 650              	.L45:
 651              		.align	2
 652              	.L44:
 653 0008 14010540 		.word	1074069780
 654              		.cfi_endproc
 655              	.LFE16:
 656              		.size	Relay_Offset_WritePeriod, .-Relay_Offset_WritePeriod
 657              		.section	.text.Relay_Offset_ReadPeriod,"ax",%progbits
 658              		.align	1
ARM GAS  C:\Users\syhaines\AppData\Local\Temp\ccw1hiA6.s 			page 37


 659              		.global	Relay_Offset_ReadPeriod
 660              		.code	16
 661              		.thumb_func
 662              		.type	Relay_Offset_ReadPeriod, %function
 663              	Relay_Offset_ReadPeriod:
 664              	.LFB17:
 708:.\Generated_Source\PSoC4/Relay_Offset.c ****     return (Relay_Offset_PERIOD_REG & Relay_Offset_16BIT_MASK);
 665              		.loc 1 708 0
 666              		.cfi_startproc
 709:.\Generated_Source\PSoC4/Relay_Offset.c **** }
 667              		.loc 1 709 0
 668 0000 014B     		ldr	r3, .L47
 710:.\Generated_Source\PSoC4/Relay_Offset.c **** 
 669              		.loc 1 710 0
 670              		@ sp needed
 709:.\Generated_Source\PSoC4/Relay_Offset.c **** }
 671              		.loc 1 709 0
 672 0002 1868     		ldr	r0, [r3]
 673 0004 80B2     		uxth	r0, r0
 710:.\Generated_Source\PSoC4/Relay_Offset.c **** 
 674              		.loc 1 710 0
 675 0006 7047     		bx	lr
 676              	.L48:
 677              		.align	2
 678              	.L47:
 679 0008 14010540 		.word	1074069780
 680              		.cfi_endproc
 681              	.LFE17:
 682              		.size	Relay_Offset_ReadPeriod, .-Relay_Offset_ReadPeriod
 683              		.section	.text.Relay_Offset_SetCompareSwap,"ax",%progbits
 684              		.align	1
 685              		.global	Relay_Offset_SetCompareSwap
 686              		.code	16
 687              		.thumb_func
 688              		.type	Relay_Offset_SetCompareSwap, %function
 689              	Relay_Offset_SetCompareSwap:
 690              	.LFB18:
 734:.\Generated_Source\PSoC4/Relay_Offset.c ****     uint8 enableInterrupts;
 691              		.loc 1 734 0
 692              		.cfi_startproc
 693              	.LVL47:
 694 0000 10B5     		push	{r4, lr}
 695              		.cfi_def_cfa_offset 8
 696              		.cfi_offset 4, -8
 697              		.cfi_offset 14, -4
 734:.\Generated_Source\PSoC4/Relay_Offset.c ****     uint8 enableInterrupts;
 698              		.loc 1 734 0
 699 0002 041C     		mov	r4, r0
 737:.\Generated_Source\PSoC4/Relay_Offset.c **** 
 700              		.loc 1 737 0
 701 0004 FFF7FEFF 		bl	CyEnterCriticalSection
 702              	.LVL48:
 739:.\Generated_Source\PSoC4/Relay_Offset.c ****     Relay_Offset_CONTROL_REG |= (swapEnable & Relay_Offset_1BIT_MASK);
 703              		.loc 1 739 0
 704 0008 0122     		mov	r2, #1
 705 000a 054B     		ldr	r3, .L50
 743:.\Generated_Source\PSoC4/Relay_Offset.c **** 
ARM GAS  C:\Users\syhaines\AppData\Local\Temp\ccw1hiA6.s 			page 38


 706              		.loc 1 743 0
 707              		@ sp needed
 739:.\Generated_Source\PSoC4/Relay_Offset.c ****     Relay_Offset_CONTROL_REG |= (swapEnable & Relay_Offset_1BIT_MASK);
 708              		.loc 1 739 0
 709 000c 1968     		ldr	r1, [r3]
 710 000e 9143     		bic	r1, r2
 711 0010 1960     		str	r1, [r3]
 740:.\Generated_Source\PSoC4/Relay_Offset.c **** 
 712              		.loc 1 740 0
 713 0012 1968     		ldr	r1, [r3]
 714 0014 2240     		and	r2, r4
 715 0016 0A43     		orr	r2, r1
 716 0018 1A60     		str	r2, [r3]
 742:.\Generated_Source\PSoC4/Relay_Offset.c **** }
 717              		.loc 1 742 0
 718 001a FFF7FEFF 		bl	CyExitCriticalSection
 719              	.LVL49:
 720              	.LVL50:
 743:.\Generated_Source\PSoC4/Relay_Offset.c **** 
 721              		.loc 1 743 0
 722 001e 10BD     		pop	{r4, pc}
 723              	.L51:
 724              		.align	2
 725              	.L50:
 726 0020 00010540 		.word	1074069760
 727              		.cfi_endproc
 728              	.LFE18:
 729              		.size	Relay_Offset_SetCompareSwap, .-Relay_Offset_SetCompareSwap
 730              		.section	.text.Relay_Offset_WritePeriodBuf,"ax",%progbits
 731              		.align	1
 732              		.global	Relay_Offset_WritePeriodBuf
 733              		.code	16
 734              		.thumb_func
 735              		.type	Relay_Offset_WritePeriodBuf, %function
 736              	Relay_Offset_WritePeriodBuf:
 737              	.LFB19:
 761:.\Generated_Source\PSoC4/Relay_Offset.c ****     Relay_Offset_PERIOD_BUF_REG = (periodBuf & Relay_Offset_16BIT_MASK);
 738              		.loc 1 761 0
 739              		.cfi_startproc
 740              	.LVL51:
 762:.\Generated_Source\PSoC4/Relay_Offset.c **** }
 741              		.loc 1 762 0
 742 0000 014B     		ldr	r3, .L53
 743 0002 80B2     		uxth	r0, r0
 744              	.LVL52:
 745 0004 1860     		str	r0, [r3]
 763:.\Generated_Source\PSoC4/Relay_Offset.c **** 
 746              		.loc 1 763 0
 747              		@ sp needed
 748 0006 7047     		bx	lr
 749              	.L54:
 750              		.align	2
 751              	.L53:
 752 0008 18010540 		.word	1074069784
 753              		.cfi_endproc
 754              	.LFE19:
 755              		.size	Relay_Offset_WritePeriodBuf, .-Relay_Offset_WritePeriodBuf
ARM GAS  C:\Users\syhaines\AppData\Local\Temp\ccw1hiA6.s 			page 39


 756              		.section	.text.Relay_Offset_ReadPeriodBuf,"ax",%progbits
 757              		.align	1
 758              		.global	Relay_Offset_ReadPeriodBuf
 759              		.code	16
 760              		.thumb_func
 761              		.type	Relay_Offset_ReadPeriodBuf, %function
 762              	Relay_Offset_ReadPeriodBuf:
 763              	.LFB20:
 781:.\Generated_Source\PSoC4/Relay_Offset.c ****     return (Relay_Offset_PERIOD_BUF_REG & Relay_Offset_16BIT_MASK);
 764              		.loc 1 781 0
 765              		.cfi_startproc
 782:.\Generated_Source\PSoC4/Relay_Offset.c **** }
 766              		.loc 1 782 0
 767 0000 014B     		ldr	r3, .L56
 783:.\Generated_Source\PSoC4/Relay_Offset.c **** 
 768              		.loc 1 783 0
 769              		@ sp needed
 782:.\Generated_Source\PSoC4/Relay_Offset.c **** }
 770              		.loc 1 782 0
 771 0002 1868     		ldr	r0, [r3]
 772 0004 80B2     		uxth	r0, r0
 783:.\Generated_Source\PSoC4/Relay_Offset.c **** 
 773              		.loc 1 783 0
 774 0006 7047     		bx	lr
 775              	.L57:
 776              		.align	2
 777              	.L56:
 778 0008 18010540 		.word	1074069784
 779              		.cfi_endproc
 780              	.LFE20:
 781              		.size	Relay_Offset_ReadPeriodBuf, .-Relay_Offset_ReadPeriodBuf
 782              		.section	.text.Relay_Offset_SetPeriodSwap,"ax",%progbits
 783              		.align	1
 784              		.global	Relay_Offset_SetPeriodSwap
 785              		.code	16
 786              		.thumb_func
 787              		.type	Relay_Offset_SetPeriodSwap, %function
 788              	Relay_Offset_SetPeriodSwap:
 789              	.LFB21:
 807:.\Generated_Source\PSoC4/Relay_Offset.c ****     uint8 enableInterrupts;
 790              		.loc 1 807 0
 791              		.cfi_startproc
 792              	.LVL53:
 793 0000 10B5     		push	{r4, lr}
 794              		.cfi_def_cfa_offset 8
 795              		.cfi_offset 4, -8
 796              		.cfi_offset 14, -4
 807:.\Generated_Source\PSoC4/Relay_Offset.c ****     uint8 enableInterrupts;
 797              		.loc 1 807 0
 798 0002 041C     		mov	r4, r0
 810:.\Generated_Source\PSoC4/Relay_Offset.c **** 
 799              		.loc 1 810 0
 800 0004 FFF7FEFF 		bl	CyEnterCriticalSection
 801              	.LVL54:
 812:.\Generated_Source\PSoC4/Relay_Offset.c ****     Relay_Offset_CONTROL_REG |= ((uint32)((swapEnable & Relay_Offset_1BIT_MASK) <<
 802              		.loc 1 812 0
 803 0008 0221     		mov	r1, #2
ARM GAS  C:\Users\syhaines\AppData\Local\Temp\ccw1hiA6.s 			page 40


 804 000a 064A     		ldr	r2, .L59
 817:.\Generated_Source\PSoC4/Relay_Offset.c **** 
 805              		.loc 1 817 0
 806              		@ sp needed
 812:.\Generated_Source\PSoC4/Relay_Offset.c ****     Relay_Offset_CONTROL_REG |= ((uint32)((swapEnable & Relay_Offset_1BIT_MASK) <<
 807              		.loc 1 812 0
 808 000c 1368     		ldr	r3, [r2]
 809 000e 8B43     		bic	r3, r1
 810 0010 1360     		str	r3, [r2]
 813:.\Generated_Source\PSoC4/Relay_Offset.c ****                                                             Relay_Offset_RELOAD_PERIOD_SHIFT));
 811              		.loc 1 813 0
 812 0012 0123     		mov	r3, #1
 813 0014 1168     		ldr	r1, [r2]
 814 0016 2340     		and	r3, r4
 815 0018 5B00     		lsl	r3, r3, #1
 816 001a 0B43     		orr	r3, r1
 817 001c 1360     		str	r3, [r2]
 816:.\Generated_Source\PSoC4/Relay_Offset.c **** }
 818              		.loc 1 816 0
 819 001e FFF7FEFF 		bl	CyExitCriticalSection
 820              	.LVL55:
 821              	.LVL56:
 817:.\Generated_Source\PSoC4/Relay_Offset.c **** 
 822              		.loc 1 817 0
 823 0022 10BD     		pop	{r4, pc}
 824              	.L60:
 825              		.align	2
 826              	.L59:
 827 0024 00010540 		.word	1074069760
 828              		.cfi_endproc
 829              	.LFE21:
 830              		.size	Relay_Offset_SetPeriodSwap, .-Relay_Offset_SetPeriodSwap
 831              		.section	.text.Relay_Offset_WriteCompare,"ax",%progbits
 832              		.align	1
 833              		.global	Relay_Offset_WriteCompare
 834              		.code	16
 835              		.thumb_func
 836              		.type	Relay_Offset_WriteCompare, %function
 837              	Relay_Offset_WriteCompare:
 838              	.LFB22:
 836:.\Generated_Source\PSoC4/Relay_Offset.c ****     #if (Relay_Offset_CY_TCPWM_4000)
 839              		.loc 1 836 0
 840              		.cfi_startproc
 841              	.LVL57:
 859:.\Generated_Source\PSoC4/Relay_Offset.c **** }
 842              		.loc 1 859 0
 843 0000 014B     		ldr	r3, .L62
 844 0002 80B2     		uxth	r0, r0
 845              	.LVL58:
 846 0004 1860     		str	r0, [r3]
 860:.\Generated_Source\PSoC4/Relay_Offset.c **** 
 847              		.loc 1 860 0
 848              		@ sp needed
 849 0006 7047     		bx	lr
 850              	.L63:
 851              		.align	2
 852              	.L62:
ARM GAS  C:\Users\syhaines\AppData\Local\Temp\ccw1hiA6.s 			page 41


 853 0008 0C010540 		.word	1074069772
 854              		.cfi_endproc
 855              	.LFE22:
 856              		.size	Relay_Offset_WriteCompare, .-Relay_Offset_WriteCompare
 857              		.section	.text.Relay_Offset_ReadCompare,"ax",%progbits
 858              		.align	1
 859              		.global	Relay_Offset_ReadCompare
 860              		.code	16
 861              		.thumb_func
 862              		.type	Relay_Offset_ReadCompare, %function
 863              	Relay_Offset_ReadCompare:
 864              	.LFB23:
 879:.\Generated_Source\PSoC4/Relay_Offset.c ****     #if (Relay_Offset_CY_TCPWM_4000)
 865              		.loc 1 879 0
 866              		.cfi_startproc
 904:.\Generated_Source\PSoC4/Relay_Offset.c ****     #endif /* (Relay_Offset_CY_TCPWM_4000) */
 867              		.loc 1 904 0
 868 0000 014B     		ldr	r3, .L65
 906:.\Generated_Source\PSoC4/Relay_Offset.c **** 
 869              		.loc 1 906 0
 870              		@ sp needed
 904:.\Generated_Source\PSoC4/Relay_Offset.c ****     #endif /* (Relay_Offset_CY_TCPWM_4000) */
 871              		.loc 1 904 0
 872 0002 1868     		ldr	r0, [r3]
 873 0004 80B2     		uxth	r0, r0
 906:.\Generated_Source\PSoC4/Relay_Offset.c **** 
 874              		.loc 1 906 0
 875 0006 7047     		bx	lr
 876              	.L66:
 877              		.align	2
 878              	.L65:
 879 0008 0C010540 		.word	1074069772
 880              		.cfi_endproc
 881              	.LFE23:
 882              		.size	Relay_Offset_ReadCompare, .-Relay_Offset_ReadCompare
 883              		.section	.text.Relay_Offset_WriteCompareBuf,"ax",%progbits
 884              		.align	1
 885              		.global	Relay_Offset_WriteCompareBuf
 886              		.code	16
 887              		.thumb_func
 888              		.type	Relay_Offset_WriteCompareBuf, %function
 889              	Relay_Offset_WriteCompareBuf:
 890              	.LFB24:
 925:.\Generated_Source\PSoC4/Relay_Offset.c ****     #if (Relay_Offset_CY_TCPWM_4000)
 891              		.loc 1 925 0
 892              		.cfi_startproc
 893              	.LVL59:
 946:.\Generated_Source\PSoC4/Relay_Offset.c **** }
 894              		.loc 1 946 0
 895 0000 014B     		ldr	r3, .L68
 896 0002 80B2     		uxth	r0, r0
 897              	.LVL60:
 898 0004 1860     		str	r0, [r3]
 947:.\Generated_Source\PSoC4/Relay_Offset.c **** 
 899              		.loc 1 947 0
 900              		@ sp needed
 901 0006 7047     		bx	lr
ARM GAS  C:\Users\syhaines\AppData\Local\Temp\ccw1hiA6.s 			page 42


 902              	.L69:
 903              		.align	2
 904              	.L68:
 905 0008 10010540 		.word	1074069776
 906              		.cfi_endproc
 907              	.LFE24:
 908              		.size	Relay_Offset_WriteCompareBuf, .-Relay_Offset_WriteCompareBuf
 909              		.section	.text.Relay_Offset_ReadCompareBuf,"ax",%progbits
 910              		.align	1
 911              		.global	Relay_Offset_ReadCompareBuf
 912              		.code	16
 913              		.thumb_func
 914              		.type	Relay_Offset_ReadCompareBuf, %function
 915              	Relay_Offset_ReadCompareBuf:
 916              	.LFB25:
 966:.\Generated_Source\PSoC4/Relay_Offset.c ****     #if (Relay_Offset_CY_TCPWM_4000)
 917              		.loc 1 966 0
 918              		.cfi_startproc
 991:.\Generated_Source\PSoC4/Relay_Offset.c ****     #endif /* (Relay_Offset_CY_TCPWM_4000) */
 919              		.loc 1 991 0
 920 0000 014B     		ldr	r3, .L71
 993:.\Generated_Source\PSoC4/Relay_Offset.c **** 
 921              		.loc 1 993 0
 922              		@ sp needed
 991:.\Generated_Source\PSoC4/Relay_Offset.c ****     #endif /* (Relay_Offset_CY_TCPWM_4000) */
 923              		.loc 1 991 0
 924 0002 1868     		ldr	r0, [r3]
 925 0004 80B2     		uxth	r0, r0
 993:.\Generated_Source\PSoC4/Relay_Offset.c **** 
 926              		.loc 1 993 0
 927 0006 7047     		bx	lr
 928              	.L72:
 929              		.align	2
 930              	.L71:
 931 0008 10010540 		.word	1074069776
 932              		.cfi_endproc
 933              	.LFE25:
 934              		.size	Relay_Offset_ReadCompareBuf, .-Relay_Offset_ReadCompareBuf
 935              		.section	.text.Relay_Offset_ReadCapture,"ax",%progbits
 936              		.align	1
 937              		.global	Relay_Offset_ReadCapture
 938              		.code	16
 939              		.thumb_func
 940              		.type	Relay_Offset_ReadCapture, %function
 941              	Relay_Offset_ReadCapture:
 942              	.LFB26:
1012:.\Generated_Source\PSoC4/Relay_Offset.c ****     return (Relay_Offset_COMP_CAP_REG & Relay_Offset_16BIT_MASK);
 943              		.loc 1 1012 0
 944              		.cfi_startproc
1013:.\Generated_Source\PSoC4/Relay_Offset.c **** }
 945              		.loc 1 1013 0
 946 0000 014B     		ldr	r3, .L74
1014:.\Generated_Source\PSoC4/Relay_Offset.c **** 
 947              		.loc 1 1014 0
 948              		@ sp needed
1013:.\Generated_Source\PSoC4/Relay_Offset.c **** }
 949              		.loc 1 1013 0
ARM GAS  C:\Users\syhaines\AppData\Local\Temp\ccw1hiA6.s 			page 43


 950 0002 1868     		ldr	r0, [r3]
 951 0004 80B2     		uxth	r0, r0
1014:.\Generated_Source\PSoC4/Relay_Offset.c **** 
 952              		.loc 1 1014 0
 953 0006 7047     		bx	lr
 954              	.L75:
 955              		.align	2
 956              	.L74:
 957 0008 0C010540 		.word	1074069772
 958              		.cfi_endproc
 959              	.LFE26:
 960              		.size	Relay_Offset_ReadCapture, .-Relay_Offset_ReadCapture
 961              		.section	.text.Relay_Offset_ReadCaptureBuf,"ax",%progbits
 962              		.align	1
 963              		.global	Relay_Offset_ReadCaptureBuf
 964              		.code	16
 965              		.thumb_func
 966              		.type	Relay_Offset_ReadCaptureBuf, %function
 967              	Relay_Offset_ReadCaptureBuf:
 968              	.LFB27:
1033:.\Generated_Source\PSoC4/Relay_Offset.c ****     return (Relay_Offset_COMP_CAP_BUF_REG & Relay_Offset_16BIT_MASK);
 969              		.loc 1 1033 0
 970              		.cfi_startproc
1034:.\Generated_Source\PSoC4/Relay_Offset.c **** }
 971              		.loc 1 1034 0
 972 0000 014B     		ldr	r3, .L77
1035:.\Generated_Source\PSoC4/Relay_Offset.c **** 
 973              		.loc 1 1035 0
 974              		@ sp needed
1034:.\Generated_Source\PSoC4/Relay_Offset.c **** }
 975              		.loc 1 1034 0
 976 0002 1868     		ldr	r0, [r3]
 977 0004 80B2     		uxth	r0, r0
1035:.\Generated_Source\PSoC4/Relay_Offset.c **** 
 978              		.loc 1 1035 0
 979 0006 7047     		bx	lr
 980              	.L78:
 981              		.align	2
 982              	.L77:
 983 0008 10010540 		.word	1074069776
 984              		.cfi_endproc
 985              	.LFE27:
 986              		.size	Relay_Offset_ReadCaptureBuf, .-Relay_Offset_ReadCaptureBuf
 987              		.section	.text.Relay_Offset_SetCaptureMode,"ax",%progbits
 988              		.align	1
 989              		.global	Relay_Offset_SetCaptureMode
 990              		.code	16
 991              		.thumb_func
 992              		.type	Relay_Offset_SetCaptureMode, %function
 993              	Relay_Offset_SetCaptureMode:
 994              	.LFB28:
1060:.\Generated_Source\PSoC4/Relay_Offset.c ****     uint8 enableInterrupts;
 995              		.loc 1 1060 0
 996              		.cfi_startproc
 997              	.LVL61:
 998 0000 10B5     		push	{r4, lr}
 999              		.cfi_def_cfa_offset 8
ARM GAS  C:\Users\syhaines\AppData\Local\Temp\ccw1hiA6.s 			page 44


 1000              		.cfi_offset 4, -8
 1001              		.cfi_offset 14, -4
1060:.\Generated_Source\PSoC4/Relay_Offset.c ****     uint8 enableInterrupts;
 1002              		.loc 1 1060 0
 1003 0002 041C     		mov	r4, r0
1063:.\Generated_Source\PSoC4/Relay_Offset.c **** 
 1004              		.loc 1 1063 0
 1005 0004 FFF7FEFF 		bl	CyEnterCriticalSection
 1006              	.LVL62:
1065:.\Generated_Source\PSoC4/Relay_Offset.c ****     Relay_Offset_TRIG_CONTROL1_REG |= triggerMode;
 1007              		.loc 1 1065 0
 1008 0008 0321     		mov	r1, #3
 1009 000a 054B     		ldr	r3, .L80
1069:.\Generated_Source\PSoC4/Relay_Offset.c **** 
 1010              		.loc 1 1069 0
 1011              		@ sp needed
1065:.\Generated_Source\PSoC4/Relay_Offset.c ****     Relay_Offset_TRIG_CONTROL1_REG |= triggerMode;
 1012              		.loc 1 1065 0
 1013 000c 1A68     		ldr	r2, [r3]
 1014 000e 8A43     		bic	r2, r1
 1015 0010 1A60     		str	r2, [r3]
1066:.\Generated_Source\PSoC4/Relay_Offset.c **** 
 1016              		.loc 1 1066 0
 1017 0012 1A68     		ldr	r2, [r3]
 1018 0014 2243     		orr	r2, r4
 1019 0016 1A60     		str	r2, [r3]
1068:.\Generated_Source\PSoC4/Relay_Offset.c **** }
 1020              		.loc 1 1068 0
 1021 0018 FFF7FEFF 		bl	CyExitCriticalSection
 1022              	.LVL63:
 1023              	.LVL64:
1069:.\Generated_Source\PSoC4/Relay_Offset.c **** 
 1024              		.loc 1 1069 0
 1025 001c 10BD     		pop	{r4, pc}
 1026              	.L81:
 1027 001e C046     		.align	2
 1028              	.L80:
 1029 0020 24010540 		.word	1074069796
 1030              		.cfi_endproc
 1031              	.LFE28:
 1032              		.size	Relay_Offset_SetCaptureMode, .-Relay_Offset_SetCaptureMode
 1033              		.section	.text.Relay_Offset_SetReloadMode,"ax",%progbits
 1034              		.align	1
 1035              		.global	Relay_Offset_SetReloadMode
 1036              		.code	16
 1037              		.thumb_func
 1038              		.type	Relay_Offset_SetReloadMode, %function
 1039              	Relay_Offset_SetReloadMode:
 1040              	.LFB29:
1093:.\Generated_Source\PSoC4/Relay_Offset.c ****     uint8 enableInterrupts;
 1041              		.loc 1 1093 0
 1042              		.cfi_startproc
 1043              	.LVL65:
 1044 0000 10B5     		push	{r4, lr}
 1045              		.cfi_def_cfa_offset 8
 1046              		.cfi_offset 4, -8
 1047              		.cfi_offset 14, -4
ARM GAS  C:\Users\syhaines\AppData\Local\Temp\ccw1hiA6.s 			page 45


1093:.\Generated_Source\PSoC4/Relay_Offset.c ****     uint8 enableInterrupts;
 1048              		.loc 1 1093 0
 1049 0002 041C     		mov	r4, r0
1096:.\Generated_Source\PSoC4/Relay_Offset.c **** 
 1050              		.loc 1 1096 0
 1051 0004 FFF7FEFF 		bl	CyEnterCriticalSection
 1052              	.LVL66:
1098:.\Generated_Source\PSoC4/Relay_Offset.c ****     Relay_Offset_TRIG_CONTROL1_REG |= ((uint32)(triggerMode << Relay_Offset_RELOAD_SHIFT));
 1053              		.loc 1 1098 0
 1054 0008 3021     		mov	r1, #48
 1055 000a 054B     		ldr	r3, .L83
1102:.\Generated_Source\PSoC4/Relay_Offset.c **** 
 1056              		.loc 1 1102 0
 1057              		@ sp needed
1098:.\Generated_Source\PSoC4/Relay_Offset.c ****     Relay_Offset_TRIG_CONTROL1_REG |= ((uint32)(triggerMode << Relay_Offset_RELOAD_SHIFT));
 1058              		.loc 1 1098 0
 1059 000c 1A68     		ldr	r2, [r3]
 1060 000e 8A43     		bic	r2, r1
 1061 0010 1A60     		str	r2, [r3]
1099:.\Generated_Source\PSoC4/Relay_Offset.c **** 
 1062              		.loc 1 1099 0
 1063 0012 1968     		ldr	r1, [r3]
 1064 0014 2201     		lsl	r2, r4, #4
 1065 0016 0A43     		orr	r2, r1
 1066 0018 1A60     		str	r2, [r3]
1101:.\Generated_Source\PSoC4/Relay_Offset.c **** }
 1067              		.loc 1 1101 0
 1068 001a FFF7FEFF 		bl	CyExitCriticalSection
 1069              	.LVL67:
 1070              	.LVL68:
1102:.\Generated_Source\PSoC4/Relay_Offset.c **** 
 1071              		.loc 1 1102 0
 1072 001e 10BD     		pop	{r4, pc}
 1073              	.L84:
 1074              		.align	2
 1075              	.L83:
 1076 0020 24010540 		.word	1074069796
 1077              		.cfi_endproc
 1078              	.LFE29:
 1079              		.size	Relay_Offset_SetReloadMode, .-Relay_Offset_SetReloadMode
 1080              		.section	.text.Relay_Offset_SetStartMode,"ax",%progbits
 1081              		.align	1
 1082              		.global	Relay_Offset_SetStartMode
 1083              		.code	16
 1084              		.thumb_func
 1085              		.type	Relay_Offset_SetStartMode, %function
 1086              	Relay_Offset_SetStartMode:
 1087              	.LFB30:
1126:.\Generated_Source\PSoC4/Relay_Offset.c ****     uint8 enableInterrupts;
 1088              		.loc 1 1126 0
 1089              		.cfi_startproc
 1090              	.LVL69:
 1091 0000 10B5     		push	{r4, lr}
 1092              		.cfi_def_cfa_offset 8
 1093              		.cfi_offset 4, -8
 1094              		.cfi_offset 14, -4
1126:.\Generated_Source\PSoC4/Relay_Offset.c ****     uint8 enableInterrupts;
ARM GAS  C:\Users\syhaines\AppData\Local\Temp\ccw1hiA6.s 			page 46


 1095              		.loc 1 1126 0
 1096 0002 041C     		mov	r4, r0
1129:.\Generated_Source\PSoC4/Relay_Offset.c **** 
 1097              		.loc 1 1129 0
 1098 0004 FFF7FEFF 		bl	CyEnterCriticalSection
 1099              	.LVL70:
1131:.\Generated_Source\PSoC4/Relay_Offset.c ****     Relay_Offset_TRIG_CONTROL1_REG |= ((uint32)(triggerMode << Relay_Offset_START_SHIFT));
 1100              		.loc 1 1131 0
 1101 0008 054B     		ldr	r3, .L86
 1102 000a 064A     		ldr	r2, .L86+4
 1103 000c 1968     		ldr	r1, [r3]
1135:.\Generated_Source\PSoC4/Relay_Offset.c **** 
 1104              		.loc 1 1135 0
 1105              		@ sp needed
1131:.\Generated_Source\PSoC4/Relay_Offset.c ****     Relay_Offset_TRIG_CONTROL1_REG |= ((uint32)(triggerMode << Relay_Offset_START_SHIFT));
 1106              		.loc 1 1131 0
 1107 000e 0A40     		and	r2, r1
 1108 0010 1A60     		str	r2, [r3]
1132:.\Generated_Source\PSoC4/Relay_Offset.c **** 
 1109              		.loc 1 1132 0
 1110 0012 1968     		ldr	r1, [r3]
 1111 0014 2202     		lsl	r2, r4, #8
 1112 0016 0A43     		orr	r2, r1
 1113 0018 1A60     		str	r2, [r3]
1134:.\Generated_Source\PSoC4/Relay_Offset.c **** }
 1114              		.loc 1 1134 0
 1115 001a FFF7FEFF 		bl	CyExitCriticalSection
 1116              	.LVL71:
 1117              	.LVL72:
1135:.\Generated_Source\PSoC4/Relay_Offset.c **** 
 1118              		.loc 1 1135 0
 1119 001e 10BD     		pop	{r4, pc}
 1120              	.L87:
 1121              		.align	2
 1122              	.L86:
 1123 0020 24010540 		.word	1074069796
 1124 0024 FFFCFFFF 		.word	-769
 1125              		.cfi_endproc
 1126              	.LFE30:
 1127              		.size	Relay_Offset_SetStartMode, .-Relay_Offset_SetStartMode
 1128              		.section	.text.Relay_Offset_SetStopMode,"ax",%progbits
 1129              		.align	1
 1130              		.global	Relay_Offset_SetStopMode
 1131              		.code	16
 1132              		.thumb_func
 1133              		.type	Relay_Offset_SetStopMode, %function
 1134              	Relay_Offset_SetStopMode:
 1135              	.LFB31:
1158:.\Generated_Source\PSoC4/Relay_Offset.c ****     uint8 enableInterrupts;
 1136              		.loc 1 1158 0
 1137              		.cfi_startproc
 1138              	.LVL73:
 1139 0000 10B5     		push	{r4, lr}
 1140              		.cfi_def_cfa_offset 8
 1141              		.cfi_offset 4, -8
 1142              		.cfi_offset 14, -4
1158:.\Generated_Source\PSoC4/Relay_Offset.c ****     uint8 enableInterrupts;
ARM GAS  C:\Users\syhaines\AppData\Local\Temp\ccw1hiA6.s 			page 47


 1143              		.loc 1 1158 0
 1144 0002 041C     		mov	r4, r0
1161:.\Generated_Source\PSoC4/Relay_Offset.c **** 
 1145              		.loc 1 1161 0
 1146 0004 FFF7FEFF 		bl	CyEnterCriticalSection
 1147              	.LVL74:
1163:.\Generated_Source\PSoC4/Relay_Offset.c ****     Relay_Offset_TRIG_CONTROL1_REG |= ((uint32)(triggerMode << Relay_Offset_STOP_SHIFT));
 1148              		.loc 1 1163 0
 1149 0008 C021     		mov	r1, #192
 1150 000a 054B     		ldr	r3, .L89
1167:.\Generated_Source\PSoC4/Relay_Offset.c **** 
 1151              		.loc 1 1167 0
 1152              		@ sp needed
1163:.\Generated_Source\PSoC4/Relay_Offset.c ****     Relay_Offset_TRIG_CONTROL1_REG |= ((uint32)(triggerMode << Relay_Offset_STOP_SHIFT));
 1153              		.loc 1 1163 0
 1154 000c 1A68     		ldr	r2, [r3]
 1155 000e 8A43     		bic	r2, r1
 1156 0010 1A60     		str	r2, [r3]
1164:.\Generated_Source\PSoC4/Relay_Offset.c **** 
 1157              		.loc 1 1164 0
 1158 0012 1968     		ldr	r1, [r3]
 1159 0014 A201     		lsl	r2, r4, #6
 1160 0016 0A43     		orr	r2, r1
 1161 0018 1A60     		str	r2, [r3]
1166:.\Generated_Source\PSoC4/Relay_Offset.c **** }
 1162              		.loc 1 1166 0
 1163 001a FFF7FEFF 		bl	CyExitCriticalSection
 1164              	.LVL75:
 1165              	.LVL76:
1167:.\Generated_Source\PSoC4/Relay_Offset.c **** 
 1166              		.loc 1 1167 0
 1167 001e 10BD     		pop	{r4, pc}
 1168              	.L90:
 1169              		.align	2
 1170              	.L89:
 1171 0020 24010540 		.word	1074069796
 1172              		.cfi_endproc
 1173              	.LFE31:
 1174              		.size	Relay_Offset_SetStopMode, .-Relay_Offset_SetStopMode
 1175              		.section	.text.Relay_Offset_SetCountMode,"ax",%progbits
 1176              		.align	1
 1177              		.global	Relay_Offset_SetCountMode
 1178              		.code	16
 1179              		.thumb_func
 1180              		.type	Relay_Offset_SetCountMode, %function
 1181              	Relay_Offset_SetCountMode:
 1182              	.LFB32:
1191:.\Generated_Source\PSoC4/Relay_Offset.c ****     uint8 enableInterrupts;
 1183              		.loc 1 1191 0
 1184              		.cfi_startproc
 1185              	.LVL77:
 1186 0000 10B5     		push	{r4, lr}
 1187              		.cfi_def_cfa_offset 8
 1188              		.cfi_offset 4, -8
 1189              		.cfi_offset 14, -4
1191:.\Generated_Source\PSoC4/Relay_Offset.c ****     uint8 enableInterrupts;
 1190              		.loc 1 1191 0
ARM GAS  C:\Users\syhaines\AppData\Local\Temp\ccw1hiA6.s 			page 48


 1191 0002 041C     		mov	r4, r0
1194:.\Generated_Source\PSoC4/Relay_Offset.c **** 
 1192              		.loc 1 1194 0
 1193 0004 FFF7FEFF 		bl	CyEnterCriticalSection
 1194              	.LVL78:
1196:.\Generated_Source\PSoC4/Relay_Offset.c ****     Relay_Offset_TRIG_CONTROL1_REG |= ((uint32)(triggerMode << Relay_Offset_COUNT_SHIFT));
 1195              		.loc 1 1196 0
 1196 0008 0C21     		mov	r1, #12
 1197 000a 054B     		ldr	r3, .L92
1200:.\Generated_Source\PSoC4/Relay_Offset.c **** 
 1198              		.loc 1 1200 0
 1199              		@ sp needed
1196:.\Generated_Source\PSoC4/Relay_Offset.c ****     Relay_Offset_TRIG_CONTROL1_REG |= ((uint32)(triggerMode << Relay_Offset_COUNT_SHIFT));
 1200              		.loc 1 1196 0
 1201 000c 1A68     		ldr	r2, [r3]
 1202 000e 8A43     		bic	r2, r1
 1203 0010 1A60     		str	r2, [r3]
1197:.\Generated_Source\PSoC4/Relay_Offset.c **** 
 1204              		.loc 1 1197 0
 1205 0012 1968     		ldr	r1, [r3]
 1206 0014 A200     		lsl	r2, r4, #2
 1207 0016 0A43     		orr	r2, r1
 1208 0018 1A60     		str	r2, [r3]
1199:.\Generated_Source\PSoC4/Relay_Offset.c **** }
 1209              		.loc 1 1199 0
 1210 001a FFF7FEFF 		bl	CyExitCriticalSection
 1211              	.LVL79:
 1212              	.LVL80:
1200:.\Generated_Source\PSoC4/Relay_Offset.c **** 
 1213              		.loc 1 1200 0
 1214 001e 10BD     		pop	{r4, pc}
 1215              	.L93:
 1216              		.align	2
 1217              	.L92:
 1218 0020 24010540 		.word	1074069796
 1219              		.cfi_endproc
 1220              	.LFE32:
 1221              		.size	Relay_Offset_SetCountMode, .-Relay_Offset_SetCountMode
 1222              		.section	.text.Relay_Offset_TriggerCommand,"ax",%progbits
 1223              		.align	1
 1224              		.global	Relay_Offset_TriggerCommand
 1225              		.code	16
 1226              		.thumb_func
 1227              		.type	Relay_Offset_TriggerCommand, %function
 1228              	Relay_Offset_TriggerCommand:
 1229              	.LFB33:
1231:.\Generated_Source\PSoC4/Relay_Offset.c ****     uint8 enableInterrupts;
 1230              		.loc 1 1231 0
 1231              		.cfi_startproc
 1232              	.LVL81:
 1233 0000 38B5     		push	{r3, r4, r5, lr}
 1234              		.cfi_def_cfa_offset 16
 1235              		.cfi_offset 3, -16
 1236              		.cfi_offset 4, -12
 1237              		.cfi_offset 5, -8
 1238              		.cfi_offset 14, -4
1231:.\Generated_Source\PSoC4/Relay_Offset.c ****     uint8 enableInterrupts;
ARM GAS  C:\Users\syhaines\AppData\Local\Temp\ccw1hiA6.s 			page 49


 1239              		.loc 1 1231 0
 1240 0002 0D1C     		mov	r5, r1
 1241 0004 041C     		mov	r4, r0
1236:.\Generated_Source\PSoC4/Relay_Offset.c **** 
 1242              		.loc 1 1236 0
 1243 0006 AC40     		lsl	r4, r4, r5
1234:.\Generated_Source\PSoC4/Relay_Offset.c **** 
 1244              		.loc 1 1234 0
 1245 0008 FFF7FEFF 		bl	CyEnterCriticalSection
 1246              	.LVL82:
1236:.\Generated_Source\PSoC4/Relay_Offset.c **** 
 1247              		.loc 1 1236 0
 1248 000c 024B     		ldr	r3, .L95
1239:.\Generated_Source\PSoC4/Relay_Offset.c **** 
 1249              		.loc 1 1239 0
 1250              		@ sp needed
1236:.\Generated_Source\PSoC4/Relay_Offset.c **** 
 1251              		.loc 1 1236 0
 1252 000e 1C60     		str	r4, [r3]
1238:.\Generated_Source\PSoC4/Relay_Offset.c **** }
 1253              		.loc 1 1238 0
 1254 0010 FFF7FEFF 		bl	CyExitCriticalSection
 1255              	.LVL83:
 1256              	.LVL84:
1239:.\Generated_Source\PSoC4/Relay_Offset.c **** 
 1257              		.loc 1 1239 0
 1258 0014 38BD     		pop	{r3, r4, r5, pc}
 1259              	.L96:
 1260 0016 C046     		.align	2
 1261              	.L95:
 1262 0018 08000540 		.word	1074069512
 1263              		.cfi_endproc
 1264              	.LFE33:
 1265              		.size	Relay_Offset_TriggerCommand, .-Relay_Offset_TriggerCommand
 1266              		.section	.text.Relay_Offset_Enable,"ax",%progbits
 1267              		.align	1
 1268              		.global	Relay_Offset_Enable
 1269              		.code	16
 1270              		.thumb_func
 1271              		.type	Relay_Offset_Enable, %function
 1272              	Relay_Offset_Enable:
 1273              	.LFB1:
 178:.\Generated_Source\PSoC4/Relay_Offset.c ****     uint8 enableInterrupts;
 1274              		.loc 1 178 0
 1275              		.cfi_startproc
 1276 0000 10B5     		push	{r4, lr}
 1277              		.cfi_def_cfa_offset 8
 1278              		.cfi_offset 4, -8
 1279              		.cfi_offset 14, -4
 182:.\Generated_Source\PSoC4/Relay_Offset.c ****     CyExitCriticalSection(enableInterrupts);
 1280              		.loc 1 182 0
 1281 0002 0124     		mov	r4, #1
 181:.\Generated_Source\PSoC4/Relay_Offset.c ****     Relay_Offset_BLOCK_CONTROL_REG |= Relay_Offset_MASK;
 1282              		.loc 1 181 0
 1283 0004 FFF7FEFF 		bl	CyEnterCriticalSection
 1284              	.LVL85:
 182:.\Generated_Source\PSoC4/Relay_Offset.c ****     CyExitCriticalSection(enableInterrupts);
ARM GAS  C:\Users\syhaines\AppData\Local\Temp\ccw1hiA6.s 			page 50


 1285              		.loc 1 182 0
 1286 0008 054A     		ldr	r2, .L98
 197:.\Generated_Source\PSoC4/Relay_Offset.c **** 
 1287              		.loc 1 197 0
 1288              		@ sp needed
 182:.\Generated_Source\PSoC4/Relay_Offset.c ****     CyExitCriticalSection(enableInterrupts);
 1289              		.loc 1 182 0
 1290 000a 1368     		ldr	r3, [r2]
 1291 000c 2343     		orr	r3, r4
 1292 000e 1360     		str	r3, [r2]
 183:.\Generated_Source\PSoC4/Relay_Offset.c **** 
 1293              		.loc 1 183 0
 1294 0010 FFF7FEFF 		bl	CyExitCriticalSection
 1295              	.LVL86:
 194:.\Generated_Source\PSoC4/Relay_Offset.c ****         #endif /* (0u == Relay_Offset_TC_START_SIGNAL_PRESENT) */
 1296              		.loc 1 194 0
 1297 0014 201C     		mov	r0, r4
 1298 0016 1821     		mov	r1, #24
 1299 0018 FFF7FEFF 		bl	Relay_Offset_TriggerCommand
 1300              	.LVL87:
 197:.\Generated_Source\PSoC4/Relay_Offset.c **** 
 1301              		.loc 1 197 0
 1302 001c 10BD     		pop	{r4, pc}
 1303              	.L99:
 1304 001e C046     		.align	2
 1305              	.L98:
 1306 0020 00000540 		.word	1074069504
 1307              		.cfi_endproc
 1308              	.LFE1:
 1309              		.size	Relay_Offset_Enable, .-Relay_Offset_Enable
 1310              		.section	.text.Relay_Offset_Start,"ax",%progbits
 1311              		.align	1
 1312              		.global	Relay_Offset_Start
 1313              		.code	16
 1314              		.thumb_func
 1315              		.type	Relay_Offset_Start, %function
 1316              	Relay_Offset_Start:
 1317              	.LFB2:
 225:.\Generated_Source\PSoC4/Relay_Offset.c ****     if (0u == Relay_Offset_initVar)
 1318              		.loc 1 225 0
 1319              		.cfi_startproc
 1320 0000 10B5     		push	{r4, lr}
 1321              		.cfi_def_cfa_offset 8
 1322              		.cfi_offset 4, -8
 1323              		.cfi_offset 14, -4
 226:.\Generated_Source\PSoC4/Relay_Offset.c ****     {
 1324              		.loc 1 226 0
 1325 0002 054C     		ldr	r4, .L103
 1326 0004 2378     		ldrb	r3, [r4]
 1327 0006 002B     		cmp	r3, #0
 1328 0008 03D1     		bne	.L101
 228:.\Generated_Source\PSoC4/Relay_Offset.c ****         Relay_Offset_initVar = 1u;
 1329              		.loc 1 228 0
 1330 000a FFF7FEFF 		bl	Relay_Offset_Init
 1331              	.LVL88:
 229:.\Generated_Source\PSoC4/Relay_Offset.c ****     }
 1332              		.loc 1 229 0
ARM GAS  C:\Users\syhaines\AppData\Local\Temp\ccw1hiA6.s 			page 51


 1333 000e 0123     		mov	r3, #1
 1334 0010 2370     		strb	r3, [r4]
 1335              	.L101:
 232:.\Generated_Source\PSoC4/Relay_Offset.c **** }
 1336              		.loc 1 232 0
 1337 0012 FFF7FEFF 		bl	Relay_Offset_Enable
 1338              	.LVL89:
 233:.\Generated_Source\PSoC4/Relay_Offset.c **** 
 1339              		.loc 1 233 0
 1340              		@ sp needed
 1341 0016 10BD     		pop	{r4, pc}
 1342              	.L104:
 1343              		.align	2
 1344              	.L103:
 1345 0018 00000000 		.word	.LANCHOR0
 1346              		.cfi_endproc
 1347              	.LFE2:
 1348              		.size	Relay_Offset_Start, .-Relay_Offset_Start
 1349              		.section	.text.Relay_Offset_ReadStatus,"ax",%progbits
 1350              		.align	1
 1351              		.global	Relay_Offset_ReadStatus
 1352              		.code	16
 1353              		.thumb_func
 1354              		.type	Relay_Offset_ReadStatus, %function
 1355              	Relay_Offset_ReadStatus:
 1356              	.LFB34:
1260:.\Generated_Source\PSoC4/Relay_Offset.c ****     return ((Relay_Offset_STATUS_REG >> Relay_Offset_RUNNING_STATUS_SHIFT) |
 1357              		.loc 1 1260 0
 1358              		.cfi_startproc
1261:.\Generated_Source\PSoC4/Relay_Offset.c ****             (Relay_Offset_STATUS_REG & Relay_Offset_STATUS_DOWN));
 1359              		.loc 1 1261 0
 1360 0000 034A     		ldr	r2, .L106
1263:.\Generated_Source\PSoC4/Relay_Offset.c **** 
 1361              		.loc 1 1263 0
 1362              		@ sp needed
1261:.\Generated_Source\PSoC4/Relay_Offset.c ****             (Relay_Offset_STATUS_REG & Relay_Offset_STATUS_DOWN));
 1363              		.loc 1 1261 0
 1364 0002 1368     		ldr	r3, [r2]
1262:.\Generated_Source\PSoC4/Relay_Offset.c **** }
 1365              		.loc 1 1262 0
 1366 0004 1068     		ldr	r0, [r2]
 1367 0006 0122     		mov	r2, #1
1261:.\Generated_Source\PSoC4/Relay_Offset.c ****             (Relay_Offset_STATUS_REG & Relay_Offset_STATUS_DOWN));
 1368              		.loc 1 1261 0
 1369 0008 9B0F     		lsr	r3, r3, #30
1262:.\Generated_Source\PSoC4/Relay_Offset.c **** }
 1370              		.loc 1 1262 0
 1371 000a 1040     		and	r0, r2
1261:.\Generated_Source\PSoC4/Relay_Offset.c ****             (Relay_Offset_STATUS_REG & Relay_Offset_STATUS_DOWN));
 1372              		.loc 1 1261 0
 1373 000c 1843     		orr	r0, r3
1263:.\Generated_Source\PSoC4/Relay_Offset.c **** 
 1374              		.loc 1 1263 0
 1375 000e 7047     		bx	lr
 1376              	.L107:
 1377              		.align	2
 1378              	.L106:
ARM GAS  C:\Users\syhaines\AppData\Local\Temp\ccw1hiA6.s 			page 52


 1379 0010 04010540 		.word	1074069764
 1380              		.cfi_endproc
 1381              	.LFE34:
 1382              		.size	Relay_Offset_ReadStatus, .-Relay_Offset_ReadStatus
 1383              		.section	.text.Relay_Offset_SetInterruptMode,"ax",%progbits
 1384              		.align	1
 1385              		.global	Relay_Offset_SetInterruptMode
 1386              		.code	16
 1387              		.thumb_func
 1388              		.type	Relay_Offset_SetInterruptMode, %function
 1389              	Relay_Offset_SetInterruptMode:
 1390              	.LFB35:
1285:.\Generated_Source\PSoC4/Relay_Offset.c ****     Relay_Offset_INTERRUPT_MASK_REG =  interruptMask;
 1391              		.loc 1 1285 0
 1392              		.cfi_startproc
 1393              	.LVL90:
 1394              		.loc 1 1286 0
 1395 0000 014B     		ldr	r3, .L109
1287:.\Generated_Source\PSoC4/Relay_Offset.c **** }
 1396              		.loc 1 1287 0
 1397              		@ sp needed
1286:.\Generated_Source\PSoC4/Relay_Offset.c **** }
 1398              		.loc 1 1286 0
 1399 0002 1860     		str	r0, [r3]
 1400              		.loc 1 1287 0
 1401 0004 7047     		bx	lr
 1402              	.L110:
 1403 0006 C046     		.align	2
 1404              	.L109:
 1405 0008 38010540 		.word	1074069816
 1406              		.cfi_endproc
 1407              	.LFE35:
 1408              		.size	Relay_Offset_SetInterruptMode, .-Relay_Offset_SetInterruptMode
 1409              		.section	.text.Relay_Offset_GetInterruptSourceMasked,"ax",%progbits
 1410              		.align	1
 1411              		.global	Relay_Offset_GetInterruptSourceMasked
 1412              		.code	16
 1413              		.thumb_func
 1414              		.type	Relay_Offset_GetInterruptSourceMasked, %function
 1415              	Relay_Offset_GetInterruptSourceMasked:
 1416              	.LFB36:
1288:.\Generated_Source\PSoC4/Relay_Offset.c **** 
1289:.\Generated_Source\PSoC4/Relay_Offset.c **** 
1290:.\Generated_Source\PSoC4/Relay_Offset.c **** /*******************************************************************************
1291:.\Generated_Source\PSoC4/Relay_Offset.c **** * Function Name: Relay_Offset_GetInterruptSourceMasked
1292:.\Generated_Source\PSoC4/Relay_Offset.c **** ********************************************************************************
1293:.\Generated_Source\PSoC4/Relay_Offset.c **** *
1294:.\Generated_Source\PSoC4/Relay_Offset.c **** * Summary:
1295:.\Generated_Source\PSoC4/Relay_Offset.c **** *  Gets the interrupt requests masked by the interrupt mask.
1296:.\Generated_Source\PSoC4/Relay_Offset.c **** *
1297:.\Generated_Source\PSoC4/Relay_Offset.c **** * Parameters:
1298:.\Generated_Source\PSoC4/Relay_Offset.c **** *   None
1299:.\Generated_Source\PSoC4/Relay_Offset.c **** *
1300:.\Generated_Source\PSoC4/Relay_Offset.c **** * Return:
1301:.\Generated_Source\PSoC4/Relay_Offset.c **** *  Masked interrupt source
1302:.\Generated_Source\PSoC4/Relay_Offset.c **** *   Values:
1303:.\Generated_Source\PSoC4/Relay_Offset.c **** *     - Relay_Offset_INTR_MASK_TC       - Terminal count mask
ARM GAS  C:\Users\syhaines\AppData\Local\Temp\ccw1hiA6.s 			page 53


1304:.\Generated_Source\PSoC4/Relay_Offset.c **** *     - Relay_Offset_INTR_MASK_CC_MATCH - Compare count / capture mask
1305:.\Generated_Source\PSoC4/Relay_Offset.c **** *
1306:.\Generated_Source\PSoC4/Relay_Offset.c **** *******************************************************************************/
1307:.\Generated_Source\PSoC4/Relay_Offset.c **** uint32 Relay_Offset_GetInterruptSourceMasked(void)
1308:.\Generated_Source\PSoC4/Relay_Offset.c **** {
 1417              		.loc 1 1308 0
 1418              		.cfi_startproc
1309:.\Generated_Source\PSoC4/Relay_Offset.c ****     return (Relay_Offset_INTERRUPT_MASKED_REG);
 1419              		.loc 1 1309 0
 1420 0000 014B     		ldr	r3, .L112
1310:.\Generated_Source\PSoC4/Relay_Offset.c **** }
 1421              		.loc 1 1310 0
 1422              		@ sp needed
1309:.\Generated_Source\PSoC4/Relay_Offset.c ****     return (Relay_Offset_INTERRUPT_MASKED_REG);
 1423              		.loc 1 1309 0
 1424 0002 1868     		ldr	r0, [r3]
 1425              		.loc 1 1310 0
 1426 0004 7047     		bx	lr
 1427              	.L113:
 1428 0006 C046     		.align	2
 1429              	.L112:
 1430 0008 3C010540 		.word	1074069820
 1431              		.cfi_endproc
 1432              	.LFE36:
 1433              		.size	Relay_Offset_GetInterruptSourceMasked, .-Relay_Offset_GetInterruptSourceMasked
 1434              		.section	.text.Relay_Offset_GetInterruptSource,"ax",%progbits
 1435              		.align	1
 1436              		.global	Relay_Offset_GetInterruptSource
 1437              		.code	16
 1438              		.thumb_func
 1439              		.type	Relay_Offset_GetInterruptSource, %function
 1440              	Relay_Offset_GetInterruptSource:
 1441              	.LFB37:
1311:.\Generated_Source\PSoC4/Relay_Offset.c **** 
1312:.\Generated_Source\PSoC4/Relay_Offset.c **** 
1313:.\Generated_Source\PSoC4/Relay_Offset.c **** /*******************************************************************************
1314:.\Generated_Source\PSoC4/Relay_Offset.c **** * Function Name: Relay_Offset_GetInterruptSource
1315:.\Generated_Source\PSoC4/Relay_Offset.c **** ********************************************************************************
1316:.\Generated_Source\PSoC4/Relay_Offset.c **** *
1317:.\Generated_Source\PSoC4/Relay_Offset.c **** * Summary:
1318:.\Generated_Source\PSoC4/Relay_Offset.c **** *  Gets the interrupt requests (without masking).
1319:.\Generated_Source\PSoC4/Relay_Offset.c **** *
1320:.\Generated_Source\PSoC4/Relay_Offset.c **** * Parameters:
1321:.\Generated_Source\PSoC4/Relay_Offset.c **** *  None
1322:.\Generated_Source\PSoC4/Relay_Offset.c **** *
1323:.\Generated_Source\PSoC4/Relay_Offset.c **** * Return:
1324:.\Generated_Source\PSoC4/Relay_Offset.c **** *  Interrupt request value
1325:.\Generated_Source\PSoC4/Relay_Offset.c **** *   Values:
1326:.\Generated_Source\PSoC4/Relay_Offset.c **** *     - Relay_Offset_INTR_MASK_TC       - Terminal count mask
1327:.\Generated_Source\PSoC4/Relay_Offset.c **** *     - Relay_Offset_INTR_MASK_CC_MATCH - Compare count / capture mask
1328:.\Generated_Source\PSoC4/Relay_Offset.c **** *
1329:.\Generated_Source\PSoC4/Relay_Offset.c **** *******************************************************************************/
1330:.\Generated_Source\PSoC4/Relay_Offset.c **** uint32 Relay_Offset_GetInterruptSource(void)
1331:.\Generated_Source\PSoC4/Relay_Offset.c **** {
 1442              		.loc 1 1331 0
 1443              		.cfi_startproc
1332:.\Generated_Source\PSoC4/Relay_Offset.c ****     return (Relay_Offset_INTERRUPT_REQ_REG);
ARM GAS  C:\Users\syhaines\AppData\Local\Temp\ccw1hiA6.s 			page 54


 1444              		.loc 1 1332 0
 1445 0000 014B     		ldr	r3, .L115
1333:.\Generated_Source\PSoC4/Relay_Offset.c **** }
 1446              		.loc 1 1333 0
 1447              		@ sp needed
1332:.\Generated_Source\PSoC4/Relay_Offset.c ****     return (Relay_Offset_INTERRUPT_REQ_REG);
 1448              		.loc 1 1332 0
 1449 0002 1868     		ldr	r0, [r3]
 1450              		.loc 1 1333 0
 1451 0004 7047     		bx	lr
 1452              	.L116:
 1453 0006 C046     		.align	2
 1454              	.L115:
 1455 0008 30010540 		.word	1074069808
 1456              		.cfi_endproc
 1457              	.LFE37:
 1458              		.size	Relay_Offset_GetInterruptSource, .-Relay_Offset_GetInterruptSource
 1459              		.section	.text.Relay_Offset_ClearInterrupt,"ax",%progbits
 1460              		.align	1
 1461              		.global	Relay_Offset_ClearInterrupt
 1462              		.code	16
 1463              		.thumb_func
 1464              		.type	Relay_Offset_ClearInterrupt, %function
 1465              	Relay_Offset_ClearInterrupt:
 1466              	.LFB38:
1334:.\Generated_Source\PSoC4/Relay_Offset.c **** 
1335:.\Generated_Source\PSoC4/Relay_Offset.c **** 
1336:.\Generated_Source\PSoC4/Relay_Offset.c **** /*******************************************************************************
1337:.\Generated_Source\PSoC4/Relay_Offset.c **** * Function Name: Relay_Offset_ClearInterrupt
1338:.\Generated_Source\PSoC4/Relay_Offset.c **** ********************************************************************************
1339:.\Generated_Source\PSoC4/Relay_Offset.c **** *
1340:.\Generated_Source\PSoC4/Relay_Offset.c **** * Summary:
1341:.\Generated_Source\PSoC4/Relay_Offset.c **** *  Clears the interrupt request.
1342:.\Generated_Source\PSoC4/Relay_Offset.c **** *
1343:.\Generated_Source\PSoC4/Relay_Offset.c **** * Parameters:
1344:.\Generated_Source\PSoC4/Relay_Offset.c **** *   interruptMask: Mask of interrupts to clear
1345:.\Generated_Source\PSoC4/Relay_Offset.c **** *   Values:
1346:.\Generated_Source\PSoC4/Relay_Offset.c **** *     - Relay_Offset_INTR_MASK_TC       - Terminal count mask
1347:.\Generated_Source\PSoC4/Relay_Offset.c **** *     - Relay_Offset_INTR_MASK_CC_MATCH - Compare count / capture mask
1348:.\Generated_Source\PSoC4/Relay_Offset.c **** *
1349:.\Generated_Source\PSoC4/Relay_Offset.c **** * Return:
1350:.\Generated_Source\PSoC4/Relay_Offset.c **** *  None
1351:.\Generated_Source\PSoC4/Relay_Offset.c **** *
1352:.\Generated_Source\PSoC4/Relay_Offset.c **** *******************************************************************************/
1353:.\Generated_Source\PSoC4/Relay_Offset.c **** void Relay_Offset_ClearInterrupt(uint32 interruptMask)
1354:.\Generated_Source\PSoC4/Relay_Offset.c **** {
 1467              		.loc 1 1354 0
 1468              		.cfi_startproc
 1469              	.LVL91:
1355:.\Generated_Source\PSoC4/Relay_Offset.c ****     Relay_Offset_INTERRUPT_REQ_REG = interruptMask;
 1470              		.loc 1 1355 0
 1471 0000 014B     		ldr	r3, .L118
1356:.\Generated_Source\PSoC4/Relay_Offset.c **** }
 1472              		.loc 1 1356 0
 1473              		@ sp needed
1355:.\Generated_Source\PSoC4/Relay_Offset.c ****     Relay_Offset_INTERRUPT_REQ_REG = interruptMask;
 1474              		.loc 1 1355 0
ARM GAS  C:\Users\syhaines\AppData\Local\Temp\ccw1hiA6.s 			page 55


 1475 0002 1860     		str	r0, [r3]
 1476              		.loc 1 1356 0
 1477 0004 7047     		bx	lr
 1478              	.L119:
 1479 0006 C046     		.align	2
 1480              	.L118:
 1481 0008 30010540 		.word	1074069808
 1482              		.cfi_endproc
 1483              	.LFE38:
 1484              		.size	Relay_Offset_ClearInterrupt, .-Relay_Offset_ClearInterrupt
 1485              		.section	.text.Relay_Offset_SetInterrupt,"ax",%progbits
 1486              		.align	1
 1487              		.global	Relay_Offset_SetInterrupt
 1488              		.code	16
 1489              		.thumb_func
 1490              		.type	Relay_Offset_SetInterrupt, %function
 1491              	Relay_Offset_SetInterrupt:
 1492              	.LFB39:
1357:.\Generated_Source\PSoC4/Relay_Offset.c **** 
1358:.\Generated_Source\PSoC4/Relay_Offset.c **** 
1359:.\Generated_Source\PSoC4/Relay_Offset.c **** /*******************************************************************************
1360:.\Generated_Source\PSoC4/Relay_Offset.c **** * Function Name: Relay_Offset_SetInterrupt
1361:.\Generated_Source\PSoC4/Relay_Offset.c **** ********************************************************************************
1362:.\Generated_Source\PSoC4/Relay_Offset.c **** *
1363:.\Generated_Source\PSoC4/Relay_Offset.c **** * Summary:
1364:.\Generated_Source\PSoC4/Relay_Offset.c **** *  Sets a software interrupt request.
1365:.\Generated_Source\PSoC4/Relay_Offset.c **** *
1366:.\Generated_Source\PSoC4/Relay_Offset.c **** * Parameters:
1367:.\Generated_Source\PSoC4/Relay_Offset.c **** *   interruptMask: Mask of interrupts to set
1368:.\Generated_Source\PSoC4/Relay_Offset.c **** *   Values:
1369:.\Generated_Source\PSoC4/Relay_Offset.c **** *     - Relay_Offset_INTR_MASK_TC       - Terminal count mask
1370:.\Generated_Source\PSoC4/Relay_Offset.c **** *     - Relay_Offset_INTR_MASK_CC_MATCH - Compare count / capture mask
1371:.\Generated_Source\PSoC4/Relay_Offset.c **** *
1372:.\Generated_Source\PSoC4/Relay_Offset.c **** * Return:
1373:.\Generated_Source\PSoC4/Relay_Offset.c **** *  None
1374:.\Generated_Source\PSoC4/Relay_Offset.c **** *
1375:.\Generated_Source\PSoC4/Relay_Offset.c **** *******************************************************************************/
1376:.\Generated_Source\PSoC4/Relay_Offset.c **** void Relay_Offset_SetInterrupt(uint32 interruptMask)
1377:.\Generated_Source\PSoC4/Relay_Offset.c **** {
 1493              		.loc 1 1377 0
 1494              		.cfi_startproc
 1495              	.LVL92:
1378:.\Generated_Source\PSoC4/Relay_Offset.c ****     Relay_Offset_INTERRUPT_SET_REG = interruptMask;
 1496              		.loc 1 1378 0
 1497 0000 014B     		ldr	r3, .L121
1379:.\Generated_Source\PSoC4/Relay_Offset.c **** }
 1498              		.loc 1 1379 0
 1499              		@ sp needed
1378:.\Generated_Source\PSoC4/Relay_Offset.c ****     Relay_Offset_INTERRUPT_SET_REG = interruptMask;
 1500              		.loc 1 1378 0
 1501 0002 1860     		str	r0, [r3]
 1502              		.loc 1 1379 0
 1503 0004 7047     		bx	lr
 1504              	.L122:
 1505 0006 C046     		.align	2
 1506              	.L121:
 1507 0008 34010540 		.word	1074069812
ARM GAS  C:\Users\syhaines\AppData\Local\Temp\ccw1hiA6.s 			page 56


 1508              		.cfi_endproc
 1509              	.LFE39:
 1510              		.size	Relay_Offset_SetInterrupt, .-Relay_Offset_SetInterrupt
 1511              		.global	Relay_Offset_initVar
 1512              		.bss
 1513              		.set	.LANCHOR0,. + 0
 1514              		.type	Relay_Offset_initVar, %object
 1515              		.size	Relay_Offset_initVar, 1
 1516              	Relay_Offset_initVar:
 1517 0000 00       		.space	1
 1518              		.text
 1519              	.Letext0:
 1520              		.file 2 ".\\Generated_Source\\PSoC4\\cytypes.h"
 1521              		.file 3 ".\\Generated_Source\\PSoC4\\CyLib.h"
 1522              		.section	.debug_info,"",%progbits
 1523              	.Ldebug_info0:
 1524 0000 2D090000 		.4byte	0x92d
 1525 0004 0400     		.2byte	0x4
 1526 0006 00000000 		.4byte	.Ldebug_abbrev0
 1527 000a 04       		.byte	0x4
 1528 000b 01       		.uleb128 0x1
 1529 000c 06000000 		.4byte	.LASF76
 1530 0010 01       		.byte	0x1
 1531 0011 31010000 		.4byte	.LASF77
 1532 0015 D8030000 		.4byte	.LASF78
 1533 0019 00000000 		.4byte	.Ldebug_ranges0+0
 1534 001d 00000000 		.4byte	0
 1535 0021 00000000 		.4byte	.Ldebug_line0
 1536 0025 02       		.uleb128 0x2
 1537 0026 01       		.byte	0x1
 1538 0027 06       		.byte	0x6
 1539 0028 59010000 		.4byte	.LASF0
 1540 002c 02       		.uleb128 0x2
 1541 002d 01       		.byte	0x1
 1542 002e 08       		.byte	0x8
 1543 002f 70040000 		.4byte	.LASF1
 1544 0033 02       		.uleb128 0x2
 1545 0034 02       		.byte	0x2
 1546 0035 05       		.byte	0x5
 1547 0036 8F040000 		.4byte	.LASF2
 1548 003a 02       		.uleb128 0x2
 1549 003b 02       		.byte	0x2
 1550 003c 07       		.byte	0x7
 1551 003d FA020000 		.4byte	.LASF3
 1552 0041 02       		.uleb128 0x2
 1553 0042 04       		.byte	0x4
 1554 0043 05       		.byte	0x5
 1555 0044 9C010000 		.4byte	.LASF4
 1556 0048 02       		.uleb128 0x2
 1557 0049 04       		.byte	0x4
 1558 004a 07       		.byte	0x7
 1559 004b 90020000 		.4byte	.LASF5
 1560 004f 02       		.uleb128 0x2
 1561 0050 08       		.byte	0x8
 1562 0051 05       		.byte	0x5
 1563 0052 AB010000 		.4byte	.LASF6
 1564 0056 02       		.uleb128 0x2
ARM GAS  C:\Users\syhaines\AppData\Local\Temp\ccw1hiA6.s 			page 57


 1565 0057 08       		.byte	0x8
 1566 0058 07       		.byte	0x7
 1567 0059 FA000000 		.4byte	.LASF7
 1568 005d 03       		.uleb128 0x3
 1569 005e 04       		.byte	0x4
 1570 005f 05       		.byte	0x5
 1571 0060 696E7400 		.ascii	"int\000"
 1572 0064 02       		.uleb128 0x2
 1573 0065 04       		.byte	0x4
 1574 0066 07       		.byte	0x7
 1575 0067 5D020000 		.4byte	.LASF8
 1576 006b 04       		.uleb128 0x4
 1577 006c A5010000 		.4byte	.LASF9
 1578 0070 02       		.byte	0x2
 1579 0071 A1       		.byte	0xa1
 1580 0072 2C000000 		.4byte	0x2c
 1581 0076 04       		.uleb128 0x4
 1582 0077 09020000 		.4byte	.LASF10
 1583 007b 02       		.byte	0x2
 1584 007c A3       		.byte	0xa3
 1585 007d 48000000 		.4byte	0x48
 1586 0081 02       		.uleb128 0x2
 1587 0082 04       		.byte	0x4
 1588 0083 04       		.byte	0x4
 1589 0084 2D040000 		.4byte	.LASF11
 1590 0088 02       		.uleb128 0x2
 1591 0089 08       		.byte	0x8
 1592 008a 04       		.byte	0x4
 1593 008b B9010000 		.4byte	.LASF12
 1594 008f 02       		.uleb128 0x2
 1595 0090 01       		.byte	0x1
 1596 0091 08       		.byte	0x8
 1597 0092 D3040000 		.4byte	.LASF13
 1598 0096 05       		.uleb128 0x5
 1599 0097 6C030000 		.4byte	.LASF14
 1600 009b 02       		.byte	0x2
 1601 009c 4D01     		.2byte	0x14d
 1602 009e A2000000 		.4byte	0xa2
 1603 00a2 06       		.uleb128 0x6
 1604 00a3 76000000 		.4byte	0x76
 1605 00a7 02       		.uleb128 0x2
 1606 00a8 04       		.byte	0x4
 1607 00a9 07       		.byte	0x7
 1608 00aa 86030000 		.4byte	.LASF15
 1609 00ae 07       		.uleb128 0x7
 1610 00af 6A020000 		.4byte	.LASF16
 1611 00b3 01       		.byte	0x1
 1612 00b4 0405     		.2byte	0x504
 1613 00b6 01       		.byte	0x1
 1614 00b7 C8000000 		.4byte	0xc8
 1615 00bb 08       		.uleb128 0x8
 1616 00bc AB040000 		.4byte	.LASF18
 1617 00c0 01       		.byte	0x1
 1618 00c1 0405     		.2byte	0x504
 1619 00c3 76000000 		.4byte	0x76
 1620 00c7 00       		.byte	0
 1621 00c8 07       		.uleb128 0x7
ARM GAS  C:\Users\syhaines\AppData\Local\Temp\ccw1hiA6.s 			page 58


 1622 00c9 11010000 		.4byte	.LASF17
 1623 00cd 01       		.byte	0x1
 1624 00ce AF02     		.2byte	0x2af
 1625 00d0 01       		.byte	0x1
 1626 00d1 E2000000 		.4byte	0xe2
 1627 00d5 08       		.uleb128 0x8
 1628 00d6 C4000000 		.4byte	.LASF19
 1629 00da 01       		.byte	0x1
 1630 00db AF02     		.2byte	0x2af
 1631 00dd 76000000 		.4byte	0x76
 1632 00e1 00       		.byte	0
 1633 00e2 07       		.uleb128 0x7
 1634 00e3 B9040000 		.4byte	.LASF20
 1635 00e7 01       		.byte	0x1
 1636 00e8 6102     		.2byte	0x261
 1637 00ea 01       		.byte	0x1
 1638 00eb FC000000 		.4byte	0xfc
 1639 00ef 08       		.uleb128 0x8
 1640 00f0 00000000 		.4byte	.LASF21
 1641 00f4 01       		.byte	0x1
 1642 00f5 6102     		.2byte	0x261
 1643 00f7 76000000 		.4byte	0x76
 1644 00fb 00       		.byte	0
 1645 00fc 09       		.uleb128 0x9
 1646 00fd CB000000 		.4byte	.LASF22
 1647 0101 01       		.byte	0x1
 1648 0102 26       		.byte	0x26
 1649 0103 00000000 		.4byte	.LFB0
 1650 0107 38000000 		.4byte	.LFE0-.LFB0
 1651 010b 01       		.uleb128 0x1
 1652 010c 9C       		.byte	0x9c
 1653 010d 5C010000 		.4byte	0x15c
 1654 0111 0A       		.uleb128 0xa
 1655 0112 AE000000 		.4byte	0xae
 1656 0116 0E000000 		.4byte	.LBB8
 1657 011a 06000000 		.4byte	.LBE8-.LBB8
 1658 011e 01       		.byte	0x1
 1659 011f 40       		.byte	0x40
 1660 0120 2B010000 		.4byte	0x12b
 1661 0124 0B       		.uleb128 0xb
 1662 0125 BB000000 		.4byte	0xbb
 1663 0129 01       		.byte	0x1
 1664 012a 00       		.byte	0
 1665 012b 0A       		.uleb128 0xa
 1666 012c C8000000 		.4byte	0xc8
 1667 0130 14000000 		.4byte	.LBB10
 1668 0134 06000000 		.4byte	.LBE10-.LBB10
 1669 0138 01       		.byte	0x1
 1670 0139 43       		.byte	0x43
 1671 013a 45010000 		.4byte	0x145
 1672 013e 0B       		.uleb128 0xb
 1673 013f D5000000 		.4byte	0xd5
 1674 0143 32       		.byte	0x32
 1675 0144 00       		.byte	0
 1676 0145 0C       		.uleb128 0xc
 1677 0146 E2000000 		.4byte	0xe2
 1678 014a 1A000000 		.4byte	.LBB12
ARM GAS  C:\Users\syhaines\AppData\Local\Temp\ccw1hiA6.s 			page 59


 1679 014e 06000000 		.4byte	.LBE12-.LBB12
 1680 0152 01       		.byte	0x1
 1681 0153 54       		.byte	0x54
 1682 0154 0B       		.uleb128 0xb
 1683 0155 EF000000 		.4byte	0xef
 1684 0159 00       		.byte	0
 1685 015a 00       		.byte	0
 1686 015b 00       		.byte	0
 1687 015c 09       		.uleb128 0x9
 1688 015d 99040000 		.4byte	.LASF23
 1689 0161 01       		.byte	0x1
 1690 0162 FA       		.byte	0xfa
 1691 0163 00000000 		.4byte	.LFB3
 1692 0167 1C000000 		.4byte	.LFE3-.LFB3
 1693 016b 01       		.uleb128 0x1
 1694 016c 9C       		.byte	0x9c
 1695 016d 93010000 		.4byte	0x193
 1696 0171 0D       		.uleb128 0xd
 1697 0172 AC050000 		.4byte	.LASF25
 1698 0176 01       		.byte	0x1
 1699 0177 FC       		.byte	0xfc
 1700 0178 6B000000 		.4byte	0x6b
 1701 017c 00000000 		.4byte	.LLST0
 1702 0180 0E       		.uleb128 0xe
 1703 0181 06000000 		.4byte	.LVL3
 1704 0185 18090000 		.4byte	0x918
 1705 0189 0E       		.uleb128 0xe
 1706 018a 14000000 		.4byte	.LVL4
 1707 018e 23090000 		.4byte	0x923
 1708 0192 00       		.byte	0
 1709 0193 0F       		.uleb128 0xf
 1710 0194 DB010000 		.4byte	.LASF24
 1711 0198 01       		.byte	0x1
 1712 0199 1F01     		.2byte	0x11f
 1713 019b 00000000 		.4byte	.LFB4
 1714 019f 28000000 		.4byte	.LFE4-.LFB4
 1715 01a3 01       		.uleb128 0x1
 1716 01a4 9C       		.byte	0x9c
 1717 01a5 DC010000 		.4byte	0x1dc
 1718 01a9 10       		.uleb128 0x10
 1719 01aa D8040000 		.4byte	.LASF27
 1720 01ae 01       		.byte	0x1
 1721 01af 1F01     		.2byte	0x11f
 1722 01b1 76000000 		.4byte	0x76
 1723 01b5 13000000 		.4byte	.LLST1
 1724 01b9 11       		.uleb128 0x11
 1725 01ba AC050000 		.4byte	.LASF25
 1726 01be 01       		.byte	0x1
 1727 01bf 2101     		.2byte	0x121
 1728 01c1 6B000000 		.4byte	0x6b
 1729 01c5 3F000000 		.4byte	.LLST2
 1730 01c9 0E       		.uleb128 0xe
 1731 01ca 08000000 		.4byte	.LVL6
 1732 01ce 18090000 		.4byte	0x918
 1733 01d2 0E       		.uleb128 0xe
 1734 01d3 1C000000 		.4byte	.LVL7
 1735 01d7 23090000 		.4byte	0x923
ARM GAS  C:\Users\syhaines\AppData\Local\Temp\ccw1hiA6.s 			page 60


 1736 01db 00       		.byte	0
 1737 01dc 0F       		.uleb128 0xf
 1738 01dd 21020000 		.4byte	.LASF26
 1739 01e1 01       		.byte	0x1
 1740 01e2 4001     		.2byte	0x140
 1741 01e4 00000000 		.4byte	.LFB5
 1742 01e8 28000000 		.4byte	.LFE5-.LFB5
 1743 01ec 01       		.uleb128 0x1
 1744 01ed 9C       		.byte	0x9c
 1745 01ee 25020000 		.4byte	0x225
 1746 01f2 10       		.uleb128 0x10
 1747 01f3 2A010000 		.4byte	.LASF28
 1748 01f7 01       		.byte	0x1
 1749 01f8 4001     		.2byte	0x140
 1750 01fa 76000000 		.4byte	0x76
 1751 01fe 52000000 		.4byte	.LLST3
 1752 0202 11       		.uleb128 0x11
 1753 0203 AC050000 		.4byte	.LASF25
 1754 0207 01       		.byte	0x1
 1755 0208 4201     		.2byte	0x142
 1756 020a 6B000000 		.4byte	0x6b
 1757 020e 7E000000 		.4byte	.LLST4
 1758 0212 0E       		.uleb128 0xe
 1759 0213 08000000 		.4byte	.LVL10
 1760 0217 18090000 		.4byte	0x918
 1761 021b 0E       		.uleb128 0xe
 1762 021c 1C000000 		.4byte	.LVL11
 1763 0220 23090000 		.4byte	0x923
 1764 0224 00       		.byte	0
 1765 0225 0F       		.uleb128 0xf
 1766 0226 AA000000 		.4byte	.LASF29
 1767 022a 01       		.byte	0x1
 1768 022b 6501     		.2byte	0x165
 1769 022d 00000000 		.4byte	.LFB6
 1770 0231 28000000 		.4byte	.LFE6-.LFB6
 1771 0235 01       		.uleb128 0x1
 1772 0236 9C       		.byte	0x9c
 1773 0237 6E020000 		.4byte	0x26e
 1774 023b 10       		.uleb128 0x10
 1775 023c 33040000 		.4byte	.LASF30
 1776 0240 01       		.byte	0x1
 1777 0241 6501     		.2byte	0x165
 1778 0243 76000000 		.4byte	0x76
 1779 0247 91000000 		.4byte	.LLST5
 1780 024b 11       		.uleb128 0x11
 1781 024c AC050000 		.4byte	.LASF25
 1782 0250 01       		.byte	0x1
 1783 0251 6701     		.2byte	0x167
 1784 0253 6B000000 		.4byte	0x6b
 1785 0257 BD000000 		.4byte	.LLST6
 1786 025b 0E       		.uleb128 0xe
 1787 025c 08000000 		.4byte	.LVL14
 1788 0260 18090000 		.4byte	0x918
 1789 0264 0E       		.uleb128 0xe
 1790 0265 1C000000 		.4byte	.LVL15
 1791 0269 23090000 		.4byte	0x923
 1792 026d 00       		.byte	0
ARM GAS  C:\Users\syhaines\AppData\Local\Temp\ccw1hiA6.s 			page 61


 1793 026e 0F       		.uleb128 0xf
 1794 026f 20050000 		.4byte	.LASF31
 1795 0273 01       		.byte	0x1
 1796 0274 8501     		.2byte	0x185
 1797 0276 00000000 		.4byte	.LFB7
 1798 027a 2C000000 		.4byte	.LFE7-.LFB7
 1799 027e 01       		.uleb128 0x1
 1800 027f 9C       		.byte	0x9c
 1801 0280 B7020000 		.4byte	0x2b7
 1802 0284 10       		.uleb128 0x10
 1803 0285 42030000 		.4byte	.LASF32
 1804 0289 01       		.byte	0x1
 1805 028a 8501     		.2byte	0x185
 1806 028c 76000000 		.4byte	0x76
 1807 0290 D0000000 		.4byte	.LLST7
 1808 0294 11       		.uleb128 0x11
 1809 0295 AC050000 		.4byte	.LASF25
 1810 0299 01       		.byte	0x1
 1811 029a 8701     		.2byte	0x187
 1812 029c 6B000000 		.4byte	0x6b
 1813 02a0 FC000000 		.4byte	.LLST8
 1814 02a4 0E       		.uleb128 0xe
 1815 02a5 08000000 		.4byte	.LVL18
 1816 02a9 18090000 		.4byte	0x918
 1817 02ad 0E       		.uleb128 0xe
 1818 02ae 22000000 		.4byte	.LVL19
 1819 02b2 23090000 		.4byte	0x923
 1820 02b6 00       		.byte	0
 1821 02b7 0F       		.uleb128 0xf
 1822 02b8 33060000 		.4byte	.LASF33
 1823 02bc 01       		.byte	0x1
 1824 02bd BB01     		.2byte	0x1bb
 1825 02bf 00000000 		.4byte	.LFB8
 1826 02c3 10000000 		.4byte	.LFE8-.LFB8
 1827 02c7 01       		.uleb128 0x1
 1828 02c8 9C       		.byte	0x9c
 1829 02c9 DE020000 		.4byte	0x2de
 1830 02cd 10       		.uleb128 0x10
 1831 02ce A2020000 		.4byte	.LASF34
 1832 02d2 01       		.byte	0x1
 1833 02d3 BB01     		.2byte	0x1bb
 1834 02d5 76000000 		.4byte	0x76
 1835 02d9 0F010000 		.4byte	.LLST9
 1836 02dd 00       		.byte	0
 1837 02de 0F       		.uleb128 0xf
 1838 02df 65010000 		.4byte	.LASF35
 1839 02e3 01       		.byte	0x1
 1840 02e4 DF01     		.2byte	0x1df
 1841 02e6 00000000 		.4byte	.LFB9
 1842 02ea 28000000 		.4byte	.LFE9-.LFB9
 1843 02ee 01       		.uleb128 0x1
 1844 02ef 9C       		.byte	0x9c
 1845 02f0 27030000 		.4byte	0x327
 1846 02f4 10       		.uleb128 0x10
 1847 02f5 8F030000 		.4byte	.LASF36
 1848 02f9 01       		.byte	0x1
 1849 02fa DF01     		.2byte	0x1df
ARM GAS  C:\Users\syhaines\AppData\Local\Temp\ccw1hiA6.s 			page 62


 1850 02fc 76000000 		.4byte	0x76
 1851 0300 30010000 		.4byte	.LLST10
 1852 0304 11       		.uleb128 0x11
 1853 0305 AC050000 		.4byte	.LASF25
 1854 0309 01       		.byte	0x1
 1855 030a E101     		.2byte	0x1e1
 1856 030c 6B000000 		.4byte	0x6b
 1857 0310 5C010000 		.4byte	.LLST11
 1858 0314 0E       		.uleb128 0xe
 1859 0315 08000000 		.4byte	.LVL24
 1860 0319 18090000 		.4byte	0x918
 1861 031d 0E       		.uleb128 0xe
 1862 031e 22000000 		.4byte	.LVL25
 1863 0322 23090000 		.4byte	0x923
 1864 0326 00       		.byte	0
 1865 0327 0F       		.uleb128 0xf
 1866 0328 F6040000 		.4byte	.LASF37
 1867 032c 01       		.byte	0x1
 1868 032d 0102     		.2byte	0x201
 1869 032f 00000000 		.4byte	.LFB10
 1870 0333 28000000 		.4byte	.LFE10-.LFB10
 1871 0337 01       		.uleb128 0x1
 1872 0338 9C       		.byte	0x9c
 1873 0339 70030000 		.4byte	0x370
 1874 033d 10       		.uleb128 0x10
 1875 033e 7E040000 		.4byte	.LASF38
 1876 0342 01       		.byte	0x1
 1877 0343 0102     		.2byte	0x201
 1878 0345 76000000 		.4byte	0x76
 1879 0349 6F010000 		.4byte	.LLST12
 1880 034d 11       		.uleb128 0x11
 1881 034e AC050000 		.4byte	.LASF25
 1882 0352 01       		.byte	0x1
 1883 0353 0302     		.2byte	0x203
 1884 0355 6B000000 		.4byte	0x6b
 1885 0359 9B010000 		.4byte	.LLST13
 1886 035d 0E       		.uleb128 0xe
 1887 035e 08000000 		.4byte	.LVL28
 1888 0362 18090000 		.4byte	0x918
 1889 0366 0E       		.uleb128 0xe
 1890 0367 22000000 		.4byte	.LVL29
 1891 036b 23090000 		.4byte	0x923
 1892 036f 00       		.byte	0
 1893 0370 0F       		.uleb128 0xf
 1894 0371 50030000 		.4byte	.LASF39
 1895 0375 01       		.byte	0x1
 1896 0376 2202     		.2byte	0x222
 1897 0378 00000000 		.4byte	.LFB11
 1898 037c 2C000000 		.4byte	.LFE11-.LFB11
 1899 0380 01       		.uleb128 0x1
 1900 0381 9C       		.byte	0x9c
 1901 0382 B9030000 		.4byte	0x3b9
 1902 0386 10       		.uleb128 0x10
 1903 0387 54020000 		.4byte	.LASF40
 1904 038b 01       		.byte	0x1
 1905 038c 2202     		.2byte	0x222
 1906 038e 76000000 		.4byte	0x76
ARM GAS  C:\Users\syhaines\AppData\Local\Temp\ccw1hiA6.s 			page 63


 1907 0392 AE010000 		.4byte	.LLST14
 1908 0396 11       		.uleb128 0x11
 1909 0397 AC050000 		.4byte	.LASF25
 1910 039b 01       		.byte	0x1
 1911 039c 2402     		.2byte	0x224
 1912 039e 6B000000 		.4byte	0x6b
 1913 03a2 DA010000 		.4byte	.LLST15
 1914 03a6 0E       		.uleb128 0xe
 1915 03a7 08000000 		.4byte	.LVL32
 1916 03ab 18090000 		.4byte	0x918
 1917 03af 0E       		.uleb128 0xe
 1918 03b0 20000000 		.4byte	.LVL34
 1919 03b4 23090000 		.4byte	0x923
 1920 03b8 00       		.byte	0
 1921 03b9 0F       		.uleb128 0xf
 1922 03ba BD050000 		.4byte	.LASF41
 1923 03be 01       		.byte	0x1
 1924 03bf 4302     		.2byte	0x243
 1925 03c1 00000000 		.4byte	.LFB12
 1926 03c5 28000000 		.4byte	.LFE12-.LFB12
 1927 03c9 01       		.uleb128 0x1
 1928 03ca 9C       		.byte	0x9c
 1929 03cb 02040000 		.4byte	0x402
 1930 03cf 10       		.uleb128 0x10
 1931 03d0 1C020000 		.4byte	.LASF42
 1932 03d4 01       		.byte	0x1
 1933 03d5 4302     		.2byte	0x243
 1934 03d7 76000000 		.4byte	0x76
 1935 03db ED010000 		.4byte	.LLST16
 1936 03df 11       		.uleb128 0x11
 1937 03e0 AC050000 		.4byte	.LASF25
 1938 03e4 01       		.byte	0x1
 1939 03e5 4502     		.2byte	0x245
 1940 03e7 6B000000 		.4byte	0x6b
 1941 03eb 19020000 		.4byte	.LLST17
 1942 03ef 0E       		.uleb128 0xe
 1943 03f0 08000000 		.4byte	.LVL36
 1944 03f4 18090000 		.4byte	0x918
 1945 03f8 0E       		.uleb128 0xe
 1946 03f9 1C000000 		.4byte	.LVL37
 1947 03fd 23090000 		.4byte	0x923
 1948 0401 00       		.byte	0
 1949 0402 12       		.uleb128 0x12
 1950 0403 E2000000 		.4byte	0xe2
 1951 0407 00000000 		.4byte	.LFB13
 1952 040b 0C000000 		.4byte	.LFE13-.LFB13
 1953 040f 01       		.uleb128 0x1
 1954 0410 9C       		.byte	0x9c
 1955 0411 1F040000 		.4byte	0x41f
 1956 0415 13       		.uleb128 0x13
 1957 0416 EF000000 		.4byte	0xef
 1958 041a 2C020000 		.4byte	.LLST18
 1959 041e 00       		.byte	0
 1960 041f 14       		.uleb128 0x14
 1961 0420 DD040000 		.4byte	.LASF45
 1962 0424 01       		.byte	0x1
 1963 0425 7502     		.2byte	0x275
ARM GAS  C:\Users\syhaines\AppData\Local\Temp\ccw1hiA6.s 			page 64


 1964 0427 76000000 		.4byte	0x76
 1965 042b 00000000 		.4byte	.LFB14
 1966 042f 0C000000 		.4byte	.LFE14-.LFB14
 1967 0433 01       		.uleb128 0x1
 1968 0434 9C       		.byte	0x9c
 1969 0435 0F       		.uleb128 0xf
 1970 0436 38050000 		.4byte	.LASF43
 1971 043a 01       		.byte	0x1
 1972 043b 9202     		.2byte	0x292
 1973 043d 00000000 		.4byte	.LFB15
 1974 0441 28000000 		.4byte	.LFE15-.LFB15
 1975 0445 01       		.uleb128 0x1
 1976 0446 9C       		.byte	0x9c
 1977 0447 7E040000 		.4byte	0x47e
 1978 044b 10       		.uleb128 0x10
 1979 044c 14050000 		.4byte	.LASF44
 1980 0450 01       		.byte	0x1
 1981 0451 9202     		.2byte	0x292
 1982 0453 76000000 		.4byte	0x76
 1983 0457 4D020000 		.4byte	.LLST19
 1984 045b 11       		.uleb128 0x11
 1985 045c AC050000 		.4byte	.LASF25
 1986 0460 01       		.byte	0x1
 1987 0461 9402     		.2byte	0x294
 1988 0463 6B000000 		.4byte	0x6b
 1989 0467 79020000 		.4byte	.LLST20
 1990 046b 0E       		.uleb128 0xe
 1991 046c 08000000 		.4byte	.LVL42
 1992 0470 18090000 		.4byte	0x918
 1993 0474 0E       		.uleb128 0xe
 1994 0475 1C000000 		.4byte	.LVL43
 1995 0479 23090000 		.4byte	0x923
 1996 047d 00       		.byte	0
 1997 047e 12       		.uleb128 0x12
 1998 047f C8000000 		.4byte	0xc8
 1999 0483 00000000 		.4byte	.LFB16
 2000 0487 0C000000 		.4byte	.LFE16-.LFB16
 2001 048b 01       		.uleb128 0x1
 2002 048c 9C       		.byte	0x9c
 2003 048d 9B040000 		.4byte	0x49b
 2004 0491 13       		.uleb128 0x13
 2005 0492 D5000000 		.4byte	0xd5
 2006 0496 8C020000 		.4byte	.LLST21
 2007 049a 00       		.byte	0
 2008 049b 14       		.uleb128 0x14
 2009 049c 94050000 		.4byte	.LASF46
 2010 04a0 01       		.byte	0x1
 2011 04a1 C302     		.2byte	0x2c3
 2012 04a3 76000000 		.4byte	0x76
 2013 04a7 00000000 		.4byte	.LFB17
 2014 04ab 0C000000 		.4byte	.LFE17-.LFB17
 2015 04af 01       		.uleb128 0x1
 2016 04b0 9C       		.byte	0x9c
 2017 04b1 0F       		.uleb128 0xf
 2018 04b2 DE020000 		.4byte	.LASF47
 2019 04b6 01       		.byte	0x1
 2020 04b7 DD02     		.2byte	0x2dd
ARM GAS  C:\Users\syhaines\AppData\Local\Temp\ccw1hiA6.s 			page 65


 2021 04b9 00000000 		.4byte	.LFB18
 2022 04bd 24000000 		.4byte	.LFE18-.LFB18
 2023 04c1 01       		.uleb128 0x1
 2024 04c2 9C       		.byte	0x9c
 2025 04c3 FA040000 		.4byte	0x4fa
 2026 04c7 10       		.uleb128 0x10
 2027 04c8 4B060000 		.4byte	.LASF48
 2028 04cc 01       		.byte	0x1
 2029 04cd DD02     		.2byte	0x2dd
 2030 04cf 76000000 		.4byte	0x76
 2031 04d3 AD020000 		.4byte	.LLST22
 2032 04d7 11       		.uleb128 0x11
 2033 04d8 AC050000 		.4byte	.LASF25
 2034 04dc 01       		.byte	0x1
 2035 04dd DF02     		.2byte	0x2df
 2036 04df 6B000000 		.4byte	0x6b
 2037 04e3 D9020000 		.4byte	.LLST23
 2038 04e7 0E       		.uleb128 0xe
 2039 04e8 08000000 		.4byte	.LVL48
 2040 04ec 18090000 		.4byte	0x918
 2041 04f0 0E       		.uleb128 0xe
 2042 04f1 1E000000 		.4byte	.LVL49
 2043 04f5 23090000 		.4byte	0x923
 2044 04f9 00       		.byte	0
 2045 04fa 0F       		.uleb128 0xf
 2046 04fb D7050000 		.4byte	.LASF49
 2047 04ff 01       		.byte	0x1
 2048 0500 F802     		.2byte	0x2f8
 2049 0502 00000000 		.4byte	.LFB19
 2050 0506 0C000000 		.4byte	.LFE19-.LFB19
 2051 050a 01       		.uleb128 0x1
 2052 050b 9C       		.byte	0x9c
 2053 050c 21050000 		.4byte	0x521
 2054 0510 10       		.uleb128 0x10
 2055 0511 9E060000 		.4byte	.LASF50
 2056 0515 01       		.byte	0x1
 2057 0516 F802     		.2byte	0x2f8
 2058 0518 76000000 		.4byte	0x76
 2059 051c EC020000 		.4byte	.LLST24
 2060 0520 00       		.byte	0
 2061 0521 14       		.uleb128 0x14
 2062 0522 81010000 		.4byte	.LASF51
 2063 0526 01       		.byte	0x1
 2064 0527 0C03     		.2byte	0x30c
 2065 0529 76000000 		.4byte	0x76
 2066 052d 00000000 		.4byte	.LFB20
 2067 0531 0C000000 		.4byte	.LFE20-.LFB20
 2068 0535 01       		.uleb128 0x1
 2069 0536 9C       		.byte	0x9c
 2070 0537 0F       		.uleb128 0xf
 2071 0538 C0010000 		.4byte	.LASF52
 2072 053c 01       		.byte	0x1
 2073 053d 2603     		.2byte	0x326
 2074 053f 00000000 		.4byte	.LFB21
 2075 0543 28000000 		.4byte	.LFE21-.LFB21
 2076 0547 01       		.uleb128 0x1
 2077 0548 9C       		.byte	0x9c
ARM GAS  C:\Users\syhaines\AppData\Local\Temp\ccw1hiA6.s 			page 66


 2078 0549 80050000 		.4byte	0x580
 2079 054d 10       		.uleb128 0x10
 2080 054e 4B060000 		.4byte	.LASF48
 2081 0552 01       		.byte	0x1
 2082 0553 2603     		.2byte	0x326
 2083 0555 76000000 		.4byte	0x76
 2084 0559 0D030000 		.4byte	.LLST25
 2085 055d 11       		.uleb128 0x11
 2086 055e AC050000 		.4byte	.LASF25
 2087 0562 01       		.byte	0x1
 2088 0563 2803     		.2byte	0x328
 2089 0565 6B000000 		.4byte	0x6b
 2090 0569 39030000 		.4byte	.LLST26
 2091 056d 0E       		.uleb128 0xe
 2092 056e 08000000 		.4byte	.LVL54
 2093 0572 18090000 		.4byte	0x918
 2094 0576 0E       		.uleb128 0xe
 2095 0577 22000000 		.4byte	.LVL55
 2096 057b 23090000 		.4byte	0x923
 2097 057f 00       		.byte	0
 2098 0580 0F       		.uleb128 0xf
 2099 0581 3D040000 		.4byte	.LASF53
 2100 0585 01       		.byte	0x1
 2101 0586 4303     		.2byte	0x343
 2102 0588 00000000 		.4byte	.LFB22
 2103 058c 0C000000 		.4byte	.LFE22-.LFB22
 2104 0590 01       		.uleb128 0x1
 2105 0591 9C       		.byte	0x9c
 2106 0592 A7050000 		.4byte	0x5a7
 2107 0596 10       		.uleb128 0x10
 2108 0597 B8030000 		.4byte	.LASF54
 2109 059b 01       		.byte	0x1
 2110 059c 4303     		.2byte	0x343
 2111 059e 76000000 		.4byte	0x76
 2112 05a2 4C030000 		.4byte	.LLST27
 2113 05a6 00       		.byte	0
 2114 05a7 14       		.uleb128 0x14
 2115 05a8 57040000 		.4byte	.LASF55
 2116 05ac 01       		.byte	0x1
 2117 05ad 6E03     		.2byte	0x36e
 2118 05af 76000000 		.4byte	0x76
 2119 05b3 00000000 		.4byte	.LFB23
 2120 05b7 0C000000 		.4byte	.LFE23-.LFB23
 2121 05bb 01       		.uleb128 0x1
 2122 05bc 9C       		.byte	0x9c
 2123 05bd 0F       		.uleb128 0xf
 2124 05be DD000000 		.4byte	.LASF56
 2125 05c2 01       		.byte	0x1
 2126 05c3 9C03     		.2byte	0x39c
 2127 05c5 00000000 		.4byte	.LFB24
 2128 05c9 0C000000 		.4byte	.LFE24-.LFB24
 2129 05cd 01       		.uleb128 0x1
 2130 05ce 9C       		.byte	0x9c
 2131 05cf E4050000 		.4byte	0x5e4
 2132 05d3 10       		.uleb128 0x10
 2133 05d4 69050000 		.4byte	.LASF57
 2134 05d8 01       		.byte	0x1
ARM GAS  C:\Users\syhaines\AppData\Local\Temp\ccw1hiA6.s 			page 67


 2135 05d9 9C03     		.2byte	0x39c
 2136 05db 76000000 		.4byte	0x76
 2137 05df 6D030000 		.4byte	.LLST28
 2138 05e3 00       		.byte	0
 2139 05e4 14       		.uleb128 0x14
 2140 05e5 C2020000 		.4byte	.LASF58
 2141 05e9 01       		.byte	0x1
 2142 05ea C503     		.2byte	0x3c5
 2143 05ec 76000000 		.4byte	0x76
 2144 05f0 00000000 		.4byte	.LFB25
 2145 05f4 0C000000 		.4byte	.LFE25-.LFB25
 2146 05f8 01       		.uleb128 0x1
 2147 05f9 9C       		.byte	0x9c
 2148 05fa 14       		.uleb128 0x14
 2149 05fb F0010000 		.4byte	.LASF59
 2150 05ff 01       		.byte	0x1
 2151 0600 F303     		.2byte	0x3f3
 2152 0602 76000000 		.4byte	0x76
 2153 0606 00000000 		.4byte	.LFB26
 2154 060a 0C000000 		.4byte	.LFE26-.LFB26
 2155 060e 01       		.uleb128 0x1
 2156 060f 9C       		.byte	0x9c
 2157 0610 14       		.uleb128 0x14
 2158 0611 A8060000 		.4byte	.LASF60
 2159 0615 01       		.byte	0x1
 2160 0616 0804     		.2byte	0x408
 2161 0618 76000000 		.4byte	0x76
 2162 061c 00000000 		.4byte	.LFB27
 2163 0620 0C000000 		.4byte	.LFE27-.LFB27
 2164 0624 01       		.uleb128 0x1
 2165 0625 9C       		.byte	0x9c
 2166 0626 0F       		.uleb128 0xf
 2167 0627 69060000 		.4byte	.LASF61
 2168 062b 01       		.byte	0x1
 2169 062c 2304     		.2byte	0x423
 2170 062e 00000000 		.4byte	.LFB28
 2171 0632 24000000 		.4byte	.LFE28-.LFB28
 2172 0636 01       		.uleb128 0x1
 2173 0637 9C       		.byte	0x9c
 2174 0638 6F060000 		.4byte	0x66f
 2175 063c 10       		.uleb128 0x10
 2176 063d 10020000 		.4byte	.LASF62
 2177 0641 01       		.byte	0x1
 2178 0642 2304     		.2byte	0x423
 2179 0644 76000000 		.4byte	0x76
 2180 0648 8E030000 		.4byte	.LLST29
 2181 064c 11       		.uleb128 0x11
 2182 064d AC050000 		.4byte	.LASF25
 2183 0651 01       		.byte	0x1
 2184 0652 2504     		.2byte	0x425
 2185 0654 6B000000 		.4byte	0x6b
 2186 0658 BA030000 		.4byte	.LLST30
 2187 065c 0E       		.uleb128 0xe
 2188 065d 08000000 		.4byte	.LVL62
 2189 0661 18090000 		.4byte	0x918
 2190 0665 0E       		.uleb128 0xe
 2191 0666 1C000000 		.4byte	.LVL63
ARM GAS  C:\Users\syhaines\AppData\Local\Temp\ccw1hiA6.s 			page 68


 2192 066a 23090000 		.4byte	0x923
 2193 066e 00       		.byte	0
 2194 066f 0F       		.uleb128 0xf
 2195 0670 27030000 		.4byte	.LASF63
 2196 0674 01       		.byte	0x1
 2197 0675 4404     		.2byte	0x444
 2198 0677 00000000 		.4byte	.LFB29
 2199 067b 24000000 		.4byte	.LFE29-.LFB29
 2200 067f 01       		.uleb128 0x1
 2201 0680 9C       		.byte	0x9c
 2202 0681 B8060000 		.4byte	0x6b8
 2203 0685 10       		.uleb128 0x10
 2204 0686 10020000 		.4byte	.LASF62
 2205 068a 01       		.byte	0x1
 2206 068b 4404     		.2byte	0x444
 2207 068d 76000000 		.4byte	0x76
 2208 0691 CD030000 		.4byte	.LLST31
 2209 0695 11       		.uleb128 0x11
 2210 0696 AC050000 		.4byte	.LASF25
 2211 069a 01       		.byte	0x1
 2212 069b 4604     		.2byte	0x446
 2213 069d 6B000000 		.4byte	0x6b
 2214 06a1 F9030000 		.4byte	.LLST32
 2215 06a5 0E       		.uleb128 0xe
 2216 06a6 08000000 		.4byte	.LVL66
 2217 06aa 18090000 		.4byte	0x918
 2218 06ae 0E       		.uleb128 0xe
 2219 06af 1E000000 		.4byte	.LVL67
 2220 06b3 23090000 		.4byte	0x923
 2221 06b7 00       		.byte	0
 2222 06b8 0F       		.uleb128 0xf
 2223 06b9 F3050000 		.4byte	.LASF64
 2224 06bd 01       		.byte	0x1
 2225 06be 6504     		.2byte	0x465
 2226 06c0 00000000 		.4byte	.LFB30
 2227 06c4 28000000 		.4byte	.LFE30-.LFB30
 2228 06c8 01       		.uleb128 0x1
 2229 06c9 9C       		.byte	0x9c
 2230 06ca 01070000 		.4byte	0x701
 2231 06ce 10       		.uleb128 0x10
 2232 06cf 10020000 		.4byte	.LASF62
 2233 06d3 01       		.byte	0x1
 2234 06d4 6504     		.2byte	0x465
 2235 06d6 76000000 		.4byte	0x76
 2236 06da 0C040000 		.4byte	.LLST33
 2237 06de 11       		.uleb128 0x11
 2238 06df AC050000 		.4byte	.LASF25
 2239 06e3 01       		.byte	0x1
 2240 06e4 6704     		.2byte	0x467
 2241 06e6 6B000000 		.4byte	0x6b
 2242 06ea 38040000 		.4byte	.LLST34
 2243 06ee 0E       		.uleb128 0xe
 2244 06ef 08000000 		.4byte	.LVL70
 2245 06f3 18090000 		.4byte	0x918
 2246 06f7 0E       		.uleb128 0xe
 2247 06f8 1E000000 		.4byte	.LVL71
 2248 06fc 23090000 		.4byte	0x923
ARM GAS  C:\Users\syhaines\AppData\Local\Temp\ccw1hiA6.s 			page 69


 2249 0700 00       		.byte	0
 2250 0701 0F       		.uleb128 0xf
 2251 0702 85060000 		.4byte	.LASF65
 2252 0706 01       		.byte	0x1
 2253 0707 8504     		.2byte	0x485
 2254 0709 00000000 		.4byte	.LFB31
 2255 070d 24000000 		.4byte	.LFE31-.LFB31
 2256 0711 01       		.uleb128 0x1
 2257 0712 9C       		.byte	0x9c
 2258 0713 4A070000 		.4byte	0x74a
 2259 0717 10       		.uleb128 0x10
 2260 0718 10020000 		.4byte	.LASF62
 2261 071c 01       		.byte	0x1
 2262 071d 8504     		.2byte	0x485
 2263 071f 76000000 		.4byte	0x76
 2264 0723 4B040000 		.4byte	.LLST35
 2265 0727 11       		.uleb128 0x11
 2266 0728 AC050000 		.4byte	.LASF25
 2267 072c 01       		.byte	0x1
 2268 072d 8704     		.2byte	0x487
 2269 072f 6B000000 		.4byte	0x6b
 2270 0733 77040000 		.4byte	.LLST36
 2271 0737 0E       		.uleb128 0xe
 2272 0738 08000000 		.4byte	.LVL74
 2273 073c 18090000 		.4byte	0x918
 2274 0740 0E       		.uleb128 0xe
 2275 0741 1E000000 		.4byte	.LVL75
 2276 0745 23090000 		.4byte	0x923
 2277 0749 00       		.byte	0
 2278 074a 0F       		.uleb128 0xf
 2279 074b 9E030000 		.4byte	.LASF66
 2280 074f 01       		.byte	0x1
 2281 0750 A604     		.2byte	0x4a6
 2282 0752 00000000 		.4byte	.LFB32
 2283 0756 24000000 		.4byte	.LFE32-.LFB32
 2284 075a 01       		.uleb128 0x1
 2285 075b 9C       		.byte	0x9c
 2286 075c 93070000 		.4byte	0x793
 2287 0760 10       		.uleb128 0x10
 2288 0761 10020000 		.4byte	.LASF62
 2289 0765 01       		.byte	0x1
 2290 0766 A604     		.2byte	0x4a6
 2291 0768 76000000 		.4byte	0x76
 2292 076c 8A040000 		.4byte	.LLST37
 2293 0770 11       		.uleb128 0x11
 2294 0771 AC050000 		.4byte	.LASF25
 2295 0775 01       		.byte	0x1
 2296 0776 A804     		.2byte	0x4a8
 2297 0778 6B000000 		.4byte	0x6b
 2298 077c B6040000 		.4byte	.LLST38
 2299 0780 0E       		.uleb128 0xe
 2300 0781 08000000 		.4byte	.LVL78
 2301 0785 18090000 		.4byte	0x918
 2302 0789 0E       		.uleb128 0xe
 2303 078a 1E000000 		.4byte	.LVL79
 2304 078e 23090000 		.4byte	0x923
 2305 0792 00       		.byte	0
ARM GAS  C:\Users\syhaines\AppData\Local\Temp\ccw1hiA6.s 			page 70


 2306 0793 0F       		.uleb128 0xf
 2307 0794 11040000 		.4byte	.LASF67
 2308 0798 01       		.byte	0x1
 2309 0799 CE04     		.2byte	0x4ce
 2310 079b 00000000 		.4byte	.LFB33
 2311 079f 1C000000 		.4byte	.LFE33-.LFB33
 2312 07a3 01       		.uleb128 0x1
 2313 07a4 9C       		.byte	0x9c
 2314 07a5 EC070000 		.4byte	0x7ec
 2315 07a9 10       		.uleb128 0x10
 2316 07aa 1C020000 		.4byte	.LASF42
 2317 07ae 01       		.byte	0x1
 2318 07af CE04     		.2byte	0x4ce
 2319 07b1 76000000 		.4byte	0x76
 2320 07b5 C9040000 		.4byte	.LLST39
 2321 07b9 10       		.uleb128 0x10
 2322 07ba 88020000 		.4byte	.LASF68
 2323 07be 01       		.byte	0x1
 2324 07bf CE04     		.2byte	0x4ce
 2325 07c1 76000000 		.4byte	0x76
 2326 07c5 EA040000 		.4byte	.LLST40
 2327 07c9 11       		.uleb128 0x11
 2328 07ca AC050000 		.4byte	.LASF25
 2329 07ce 01       		.byte	0x1
 2330 07cf D004     		.2byte	0x4d0
 2331 07d1 6B000000 		.4byte	0x6b
 2332 07d5 16050000 		.4byte	.LLST41
 2333 07d9 0E       		.uleb128 0xe
 2334 07da 0C000000 		.4byte	.LVL82
 2335 07de 18090000 		.4byte	0x918
 2336 07e2 0E       		.uleb128 0xe
 2337 07e3 14000000 		.4byte	.LVL83
 2338 07e7 23090000 		.4byte	0x923
 2339 07eb 00       		.byte	0
 2340 07ec 09       		.uleb128 0x9
 2341 07ed 72030000 		.4byte	.LASF69
 2342 07f1 01       		.byte	0x1
 2343 07f2 B1       		.byte	0xb1
 2344 07f3 00000000 		.4byte	.LFB1
 2345 07f7 24000000 		.4byte	.LFE1-.LFB1
 2346 07fb 01       		.uleb128 0x1
 2347 07fc 9C       		.byte	0x9c
 2348 07fd 38080000 		.4byte	0x838
 2349 0801 0D       		.uleb128 0xd
 2350 0802 AC050000 		.4byte	.LASF25
 2351 0806 01       		.byte	0x1
 2352 0807 B3       		.byte	0xb3
 2353 0808 6B000000 		.4byte	0x6b
 2354 080c 29050000 		.4byte	.LLST42
 2355 0810 0E       		.uleb128 0xe
 2356 0811 08000000 		.4byte	.LVL85
 2357 0815 18090000 		.4byte	0x918
 2358 0819 0E       		.uleb128 0xe
 2359 081a 14000000 		.4byte	.LVL86
 2360 081e 23090000 		.4byte	0x923
 2361 0822 15       		.uleb128 0x15
 2362 0823 1C000000 		.4byte	.LVL87
ARM GAS  C:\Users\syhaines\AppData\Local\Temp\ccw1hiA6.s 			page 71


 2363 0827 93070000 		.4byte	0x793
 2364 082b 16       		.uleb128 0x16
 2365 082c 01       		.uleb128 0x1
 2366 082d 51       		.byte	0x51
 2367 082e 01       		.uleb128 0x1
 2368 082f 48       		.byte	0x48
 2369 0830 16       		.uleb128 0x16
 2370 0831 01       		.uleb128 0x1
 2371 0832 50       		.byte	0x50
 2372 0833 02       		.uleb128 0x2
 2373 0834 74       		.byte	0x74
 2374 0835 00       		.sleb128 0
 2375 0836 00       		.byte	0
 2376 0837 00       		.byte	0
 2377 0838 09       		.uleb128 0x9
 2378 0839 56060000 		.4byte	.LASF70
 2379 083d 01       		.byte	0x1
 2380 083e E0       		.byte	0xe0
 2381 083f 00000000 		.4byte	.LFB2
 2382 0843 1C000000 		.4byte	.LFE2-.LFB2
 2383 0847 01       		.uleb128 0x1
 2384 0848 9C       		.byte	0x9c
 2385 0849 60080000 		.4byte	0x860
 2386 084d 0E       		.uleb128 0xe
 2387 084e 0E000000 		.4byte	.LVL88
 2388 0852 FC000000 		.4byte	0xfc
 2389 0856 0E       		.uleb128 0xe
 2390 0857 16000000 		.4byte	.LVL89
 2391 085b EC070000 		.4byte	0x7ec
 2392 085f 00       		.byte	0
 2393 0860 14       		.uleb128 0x14
 2394 0861 C0030000 		.4byte	.LASF71
 2395 0865 01       		.byte	0x1
 2396 0866 EB04     		.2byte	0x4eb
 2397 0868 76000000 		.4byte	0x76
 2398 086c 00000000 		.4byte	.LFB34
 2399 0870 14000000 		.4byte	.LFE34-.LFB34
 2400 0874 01       		.uleb128 0x1
 2401 0875 9C       		.byte	0x9c
 2402 0876 12       		.uleb128 0x12
 2403 0877 AE000000 		.4byte	0xae
 2404 087b 00000000 		.4byte	.LFB35
 2405 087f 0C000000 		.4byte	.LFE35-.LFB35
 2406 0883 01       		.uleb128 0x1
 2407 0884 9C       		.byte	0x9c
 2408 0885 91080000 		.4byte	0x891
 2409 0889 17       		.uleb128 0x17
 2410 088a BB000000 		.4byte	0xbb
 2411 088e 01       		.uleb128 0x1
 2412 088f 50       		.byte	0x50
 2413 0890 00       		.byte	0
 2414 0891 14       		.uleb128 0x14
 2415 0892 0D060000 		.4byte	.LASF72
 2416 0896 01       		.byte	0x1
 2417 0897 1B05     		.2byte	0x51b
 2418 0899 76000000 		.4byte	0x76
 2419 089d 00000000 		.4byte	.LFB36
ARM GAS  C:\Users\syhaines\AppData\Local\Temp\ccw1hiA6.s 			page 72


 2420 08a1 0C000000 		.4byte	.LFE36-.LFB36
 2421 08a5 01       		.uleb128 0x1
 2422 08a6 9C       		.byte	0x9c
 2423 08a7 14       		.uleb128 0x14
 2424 08a8 74050000 		.4byte	.LASF73
 2425 08ac 01       		.byte	0x1
 2426 08ad 3205     		.2byte	0x532
 2427 08af 76000000 		.4byte	0x76
 2428 08b3 00000000 		.4byte	.LFB37
 2429 08b7 0C000000 		.4byte	.LFE37-.LFB37
 2430 08bb 01       		.uleb128 0x1
 2431 08bc 9C       		.byte	0x9c
 2432 08bd 0F       		.uleb128 0xf
 2433 08be 38020000 		.4byte	.LASF74
 2434 08c2 01       		.byte	0x1
 2435 08c3 4905     		.2byte	0x549
 2436 08c5 00000000 		.4byte	.LFB38
 2437 08c9 0C000000 		.4byte	.LFE38-.LFB38
 2438 08cd 01       		.uleb128 0x1
 2439 08ce 9C       		.byte	0x9c
 2440 08cf E2080000 		.4byte	0x8e2
 2441 08d3 18       		.uleb128 0x18
 2442 08d4 AB040000 		.4byte	.LASF18
 2443 08d8 01       		.byte	0x1
 2444 08d9 4905     		.2byte	0x549
 2445 08db 76000000 		.4byte	0x76
 2446 08df 01       		.uleb128 0x1
 2447 08e0 50       		.byte	0x50
 2448 08e1 00       		.byte	0
 2449 08e2 0F       		.uleb128 0xf
 2450 08e3 0D030000 		.4byte	.LASF75
 2451 08e7 01       		.byte	0x1
 2452 08e8 6005     		.2byte	0x560
 2453 08ea 00000000 		.4byte	.LFB39
 2454 08ee 0C000000 		.4byte	.LFE39-.LFB39
 2455 08f2 01       		.uleb128 0x1
 2456 08f3 9C       		.byte	0x9c
 2457 08f4 07090000 		.4byte	0x907
 2458 08f8 18       		.uleb128 0x18
 2459 08f9 AB040000 		.4byte	.LASF18
 2460 08fd 01       		.byte	0x1
 2461 08fe 6005     		.2byte	0x560
 2462 0900 76000000 		.4byte	0x76
 2463 0904 01       		.uleb128 0x1
 2464 0905 50       		.byte	0x50
 2465 0906 00       		.byte	0
 2466 0907 19       		.uleb128 0x19
 2467 0908 54050000 		.4byte	.LASF79
 2468 090c 01       		.byte	0x1
 2469 090d 15       		.byte	0x15
 2470 090e 6B000000 		.4byte	0x6b
 2471 0912 05       		.uleb128 0x5
 2472 0913 03       		.byte	0x3
 2473 0914 00000000 		.4byte	Relay_Offset_initVar
 2474 0918 1A       		.uleb128 0x1a
 2475 0919 AB020000 		.4byte	.LASF80
 2476 091d 03       		.byte	0x3
ARM GAS  C:\Users\syhaines\AppData\Local\Temp\ccw1hiA6.s 			page 73


 2477 091e 82       		.byte	0x82
 2478 091f 6B000000 		.4byte	0x6b
 2479 0923 1B       		.uleb128 0x1b
 2480 0924 94000000 		.4byte	.LASF81
 2481 0928 03       		.byte	0x3
 2482 0929 83       		.byte	0x83
 2483 092a 1C       		.uleb128 0x1c
 2484 092b 6B000000 		.4byte	0x6b
 2485 092f 00       		.byte	0
 2486 0930 00       		.byte	0
 2487              		.section	.debug_abbrev,"",%progbits
 2488              	.Ldebug_abbrev0:
 2489 0000 01       		.uleb128 0x1
 2490 0001 11       		.uleb128 0x11
 2491 0002 01       		.byte	0x1
 2492 0003 25       		.uleb128 0x25
 2493 0004 0E       		.uleb128 0xe
 2494 0005 13       		.uleb128 0x13
 2495 0006 0B       		.uleb128 0xb
 2496 0007 03       		.uleb128 0x3
 2497 0008 0E       		.uleb128 0xe
 2498 0009 1B       		.uleb128 0x1b
 2499 000a 0E       		.uleb128 0xe
 2500 000b 55       		.uleb128 0x55
 2501 000c 17       		.uleb128 0x17
 2502 000d 11       		.uleb128 0x11
 2503 000e 01       		.uleb128 0x1
 2504 000f 10       		.uleb128 0x10
 2505 0010 17       		.uleb128 0x17
 2506 0011 00       		.byte	0
 2507 0012 00       		.byte	0
 2508 0013 02       		.uleb128 0x2
 2509 0014 24       		.uleb128 0x24
 2510 0015 00       		.byte	0
 2511 0016 0B       		.uleb128 0xb
 2512 0017 0B       		.uleb128 0xb
 2513 0018 3E       		.uleb128 0x3e
 2514 0019 0B       		.uleb128 0xb
 2515 001a 03       		.uleb128 0x3
 2516 001b 0E       		.uleb128 0xe
 2517 001c 00       		.byte	0
 2518 001d 00       		.byte	0
 2519 001e 03       		.uleb128 0x3
 2520 001f 24       		.uleb128 0x24
 2521 0020 00       		.byte	0
 2522 0021 0B       		.uleb128 0xb
 2523 0022 0B       		.uleb128 0xb
 2524 0023 3E       		.uleb128 0x3e
 2525 0024 0B       		.uleb128 0xb
 2526 0025 03       		.uleb128 0x3
 2527 0026 08       		.uleb128 0x8
 2528 0027 00       		.byte	0
 2529 0028 00       		.byte	0
 2530 0029 04       		.uleb128 0x4
 2531 002a 16       		.uleb128 0x16
 2532 002b 00       		.byte	0
 2533 002c 03       		.uleb128 0x3
ARM GAS  C:\Users\syhaines\AppData\Local\Temp\ccw1hiA6.s 			page 74


 2534 002d 0E       		.uleb128 0xe
 2535 002e 3A       		.uleb128 0x3a
 2536 002f 0B       		.uleb128 0xb
 2537 0030 3B       		.uleb128 0x3b
 2538 0031 0B       		.uleb128 0xb
 2539 0032 49       		.uleb128 0x49
 2540 0033 13       		.uleb128 0x13
 2541 0034 00       		.byte	0
 2542 0035 00       		.byte	0
 2543 0036 05       		.uleb128 0x5
 2544 0037 16       		.uleb128 0x16
 2545 0038 00       		.byte	0
 2546 0039 03       		.uleb128 0x3
 2547 003a 0E       		.uleb128 0xe
 2548 003b 3A       		.uleb128 0x3a
 2549 003c 0B       		.uleb128 0xb
 2550 003d 3B       		.uleb128 0x3b
 2551 003e 05       		.uleb128 0x5
 2552 003f 49       		.uleb128 0x49
 2553 0040 13       		.uleb128 0x13
 2554 0041 00       		.byte	0
 2555 0042 00       		.byte	0
 2556 0043 06       		.uleb128 0x6
 2557 0044 35       		.uleb128 0x35
 2558 0045 00       		.byte	0
 2559 0046 49       		.uleb128 0x49
 2560 0047 13       		.uleb128 0x13
 2561 0048 00       		.byte	0
 2562 0049 00       		.byte	0
 2563 004a 07       		.uleb128 0x7
 2564 004b 2E       		.uleb128 0x2e
 2565 004c 01       		.byte	0x1
 2566 004d 3F       		.uleb128 0x3f
 2567 004e 19       		.uleb128 0x19
 2568 004f 03       		.uleb128 0x3
 2569 0050 0E       		.uleb128 0xe
 2570 0051 3A       		.uleb128 0x3a
 2571 0052 0B       		.uleb128 0xb
 2572 0053 3B       		.uleb128 0x3b
 2573 0054 05       		.uleb128 0x5
 2574 0055 27       		.uleb128 0x27
 2575 0056 19       		.uleb128 0x19
 2576 0057 20       		.uleb128 0x20
 2577 0058 0B       		.uleb128 0xb
 2578 0059 01       		.uleb128 0x1
 2579 005a 13       		.uleb128 0x13
 2580 005b 00       		.byte	0
 2581 005c 00       		.byte	0
 2582 005d 08       		.uleb128 0x8
 2583 005e 05       		.uleb128 0x5
 2584 005f 00       		.byte	0
 2585 0060 03       		.uleb128 0x3
 2586 0061 0E       		.uleb128 0xe
 2587 0062 3A       		.uleb128 0x3a
 2588 0063 0B       		.uleb128 0xb
 2589 0064 3B       		.uleb128 0x3b
 2590 0065 05       		.uleb128 0x5
ARM GAS  C:\Users\syhaines\AppData\Local\Temp\ccw1hiA6.s 			page 75


 2591 0066 49       		.uleb128 0x49
 2592 0067 13       		.uleb128 0x13
 2593 0068 00       		.byte	0
 2594 0069 00       		.byte	0
 2595 006a 09       		.uleb128 0x9
 2596 006b 2E       		.uleb128 0x2e
 2597 006c 01       		.byte	0x1
 2598 006d 3F       		.uleb128 0x3f
 2599 006e 19       		.uleb128 0x19
 2600 006f 03       		.uleb128 0x3
 2601 0070 0E       		.uleb128 0xe
 2602 0071 3A       		.uleb128 0x3a
 2603 0072 0B       		.uleb128 0xb
 2604 0073 3B       		.uleb128 0x3b
 2605 0074 0B       		.uleb128 0xb
 2606 0075 27       		.uleb128 0x27
 2607 0076 19       		.uleb128 0x19
 2608 0077 11       		.uleb128 0x11
 2609 0078 01       		.uleb128 0x1
 2610 0079 12       		.uleb128 0x12
 2611 007a 06       		.uleb128 0x6
 2612 007b 40       		.uleb128 0x40
 2613 007c 18       		.uleb128 0x18
 2614 007d 9742     		.uleb128 0x2117
 2615 007f 19       		.uleb128 0x19
 2616 0080 01       		.uleb128 0x1
 2617 0081 13       		.uleb128 0x13
 2618 0082 00       		.byte	0
 2619 0083 00       		.byte	0
 2620 0084 0A       		.uleb128 0xa
 2621 0085 1D       		.uleb128 0x1d
 2622 0086 01       		.byte	0x1
 2623 0087 31       		.uleb128 0x31
 2624 0088 13       		.uleb128 0x13
 2625 0089 11       		.uleb128 0x11
 2626 008a 01       		.uleb128 0x1
 2627 008b 12       		.uleb128 0x12
 2628 008c 06       		.uleb128 0x6
 2629 008d 58       		.uleb128 0x58
 2630 008e 0B       		.uleb128 0xb
 2631 008f 59       		.uleb128 0x59
 2632 0090 0B       		.uleb128 0xb
 2633 0091 01       		.uleb128 0x1
 2634 0092 13       		.uleb128 0x13
 2635 0093 00       		.byte	0
 2636 0094 00       		.byte	0
 2637 0095 0B       		.uleb128 0xb
 2638 0096 05       		.uleb128 0x5
 2639 0097 00       		.byte	0
 2640 0098 31       		.uleb128 0x31
 2641 0099 13       		.uleb128 0x13
 2642 009a 1C       		.uleb128 0x1c
 2643 009b 0B       		.uleb128 0xb
 2644 009c 00       		.byte	0
 2645 009d 00       		.byte	0
 2646 009e 0C       		.uleb128 0xc
 2647 009f 1D       		.uleb128 0x1d
ARM GAS  C:\Users\syhaines\AppData\Local\Temp\ccw1hiA6.s 			page 76


 2648 00a0 01       		.byte	0x1
 2649 00a1 31       		.uleb128 0x31
 2650 00a2 13       		.uleb128 0x13
 2651 00a3 11       		.uleb128 0x11
 2652 00a4 01       		.uleb128 0x1
 2653 00a5 12       		.uleb128 0x12
 2654 00a6 06       		.uleb128 0x6
 2655 00a7 58       		.uleb128 0x58
 2656 00a8 0B       		.uleb128 0xb
 2657 00a9 59       		.uleb128 0x59
 2658 00aa 0B       		.uleb128 0xb
 2659 00ab 00       		.byte	0
 2660 00ac 00       		.byte	0
 2661 00ad 0D       		.uleb128 0xd
 2662 00ae 34       		.uleb128 0x34
 2663 00af 00       		.byte	0
 2664 00b0 03       		.uleb128 0x3
 2665 00b1 0E       		.uleb128 0xe
 2666 00b2 3A       		.uleb128 0x3a
 2667 00b3 0B       		.uleb128 0xb
 2668 00b4 3B       		.uleb128 0x3b
 2669 00b5 0B       		.uleb128 0xb
 2670 00b6 49       		.uleb128 0x49
 2671 00b7 13       		.uleb128 0x13
 2672 00b8 02       		.uleb128 0x2
 2673 00b9 17       		.uleb128 0x17
 2674 00ba 00       		.byte	0
 2675 00bb 00       		.byte	0
 2676 00bc 0E       		.uleb128 0xe
 2677 00bd 898201   		.uleb128 0x4109
 2678 00c0 00       		.byte	0
 2679 00c1 11       		.uleb128 0x11
 2680 00c2 01       		.uleb128 0x1
 2681 00c3 31       		.uleb128 0x31
 2682 00c4 13       		.uleb128 0x13
 2683 00c5 00       		.byte	0
 2684 00c6 00       		.byte	0
 2685 00c7 0F       		.uleb128 0xf
 2686 00c8 2E       		.uleb128 0x2e
 2687 00c9 01       		.byte	0x1
 2688 00ca 3F       		.uleb128 0x3f
 2689 00cb 19       		.uleb128 0x19
 2690 00cc 03       		.uleb128 0x3
 2691 00cd 0E       		.uleb128 0xe
 2692 00ce 3A       		.uleb128 0x3a
 2693 00cf 0B       		.uleb128 0xb
 2694 00d0 3B       		.uleb128 0x3b
 2695 00d1 05       		.uleb128 0x5
 2696 00d2 27       		.uleb128 0x27
 2697 00d3 19       		.uleb128 0x19
 2698 00d4 11       		.uleb128 0x11
 2699 00d5 01       		.uleb128 0x1
 2700 00d6 12       		.uleb128 0x12
 2701 00d7 06       		.uleb128 0x6
 2702 00d8 40       		.uleb128 0x40
 2703 00d9 18       		.uleb128 0x18
 2704 00da 9742     		.uleb128 0x2117
ARM GAS  C:\Users\syhaines\AppData\Local\Temp\ccw1hiA6.s 			page 77


 2705 00dc 19       		.uleb128 0x19
 2706 00dd 01       		.uleb128 0x1
 2707 00de 13       		.uleb128 0x13
 2708 00df 00       		.byte	0
 2709 00e0 00       		.byte	0
 2710 00e1 10       		.uleb128 0x10
 2711 00e2 05       		.uleb128 0x5
 2712 00e3 00       		.byte	0
 2713 00e4 03       		.uleb128 0x3
 2714 00e5 0E       		.uleb128 0xe
 2715 00e6 3A       		.uleb128 0x3a
 2716 00e7 0B       		.uleb128 0xb
 2717 00e8 3B       		.uleb128 0x3b
 2718 00e9 05       		.uleb128 0x5
 2719 00ea 49       		.uleb128 0x49
 2720 00eb 13       		.uleb128 0x13
 2721 00ec 02       		.uleb128 0x2
 2722 00ed 17       		.uleb128 0x17
 2723 00ee 00       		.byte	0
 2724 00ef 00       		.byte	0
 2725 00f0 11       		.uleb128 0x11
 2726 00f1 34       		.uleb128 0x34
 2727 00f2 00       		.byte	0
 2728 00f3 03       		.uleb128 0x3
 2729 00f4 0E       		.uleb128 0xe
 2730 00f5 3A       		.uleb128 0x3a
 2731 00f6 0B       		.uleb128 0xb
 2732 00f7 3B       		.uleb128 0x3b
 2733 00f8 05       		.uleb128 0x5
 2734 00f9 49       		.uleb128 0x49
 2735 00fa 13       		.uleb128 0x13
 2736 00fb 02       		.uleb128 0x2
 2737 00fc 17       		.uleb128 0x17
 2738 00fd 00       		.byte	0
 2739 00fe 00       		.byte	0
 2740 00ff 12       		.uleb128 0x12
 2741 0100 2E       		.uleb128 0x2e
 2742 0101 01       		.byte	0x1
 2743 0102 31       		.uleb128 0x31
 2744 0103 13       		.uleb128 0x13
 2745 0104 11       		.uleb128 0x11
 2746 0105 01       		.uleb128 0x1
 2747 0106 12       		.uleb128 0x12
 2748 0107 06       		.uleb128 0x6
 2749 0108 40       		.uleb128 0x40
 2750 0109 18       		.uleb128 0x18
 2751 010a 9742     		.uleb128 0x2117
 2752 010c 19       		.uleb128 0x19
 2753 010d 01       		.uleb128 0x1
 2754 010e 13       		.uleb128 0x13
 2755 010f 00       		.byte	0
 2756 0110 00       		.byte	0
 2757 0111 13       		.uleb128 0x13
 2758 0112 05       		.uleb128 0x5
 2759 0113 00       		.byte	0
 2760 0114 31       		.uleb128 0x31
 2761 0115 13       		.uleb128 0x13
ARM GAS  C:\Users\syhaines\AppData\Local\Temp\ccw1hiA6.s 			page 78


 2762 0116 02       		.uleb128 0x2
 2763 0117 17       		.uleb128 0x17
 2764 0118 00       		.byte	0
 2765 0119 00       		.byte	0
 2766 011a 14       		.uleb128 0x14
 2767 011b 2E       		.uleb128 0x2e
 2768 011c 00       		.byte	0
 2769 011d 3F       		.uleb128 0x3f
 2770 011e 19       		.uleb128 0x19
 2771 011f 03       		.uleb128 0x3
 2772 0120 0E       		.uleb128 0xe
 2773 0121 3A       		.uleb128 0x3a
 2774 0122 0B       		.uleb128 0xb
 2775 0123 3B       		.uleb128 0x3b
 2776 0124 05       		.uleb128 0x5
 2777 0125 27       		.uleb128 0x27
 2778 0126 19       		.uleb128 0x19
 2779 0127 49       		.uleb128 0x49
 2780 0128 13       		.uleb128 0x13
 2781 0129 11       		.uleb128 0x11
 2782 012a 01       		.uleb128 0x1
 2783 012b 12       		.uleb128 0x12
 2784 012c 06       		.uleb128 0x6
 2785 012d 40       		.uleb128 0x40
 2786 012e 18       		.uleb128 0x18
 2787 012f 9742     		.uleb128 0x2117
 2788 0131 19       		.uleb128 0x19
 2789 0132 00       		.byte	0
 2790 0133 00       		.byte	0
 2791 0134 15       		.uleb128 0x15
 2792 0135 898201   		.uleb128 0x4109
 2793 0138 01       		.byte	0x1
 2794 0139 11       		.uleb128 0x11
 2795 013a 01       		.uleb128 0x1
 2796 013b 31       		.uleb128 0x31
 2797 013c 13       		.uleb128 0x13
 2798 013d 00       		.byte	0
 2799 013e 00       		.byte	0
 2800 013f 16       		.uleb128 0x16
 2801 0140 8A8201   		.uleb128 0x410a
 2802 0143 00       		.byte	0
 2803 0144 02       		.uleb128 0x2
 2804 0145 18       		.uleb128 0x18
 2805 0146 9142     		.uleb128 0x2111
 2806 0148 18       		.uleb128 0x18
 2807 0149 00       		.byte	0
 2808 014a 00       		.byte	0
 2809 014b 17       		.uleb128 0x17
 2810 014c 05       		.uleb128 0x5
 2811 014d 00       		.byte	0
 2812 014e 31       		.uleb128 0x31
 2813 014f 13       		.uleb128 0x13
 2814 0150 02       		.uleb128 0x2
 2815 0151 18       		.uleb128 0x18
 2816 0152 00       		.byte	0
 2817 0153 00       		.byte	0
 2818 0154 18       		.uleb128 0x18
ARM GAS  C:\Users\syhaines\AppData\Local\Temp\ccw1hiA6.s 			page 79


 2819 0155 05       		.uleb128 0x5
 2820 0156 00       		.byte	0
 2821 0157 03       		.uleb128 0x3
 2822 0158 0E       		.uleb128 0xe
 2823 0159 3A       		.uleb128 0x3a
 2824 015a 0B       		.uleb128 0xb
 2825 015b 3B       		.uleb128 0x3b
 2826 015c 05       		.uleb128 0x5
 2827 015d 49       		.uleb128 0x49
 2828 015e 13       		.uleb128 0x13
 2829 015f 02       		.uleb128 0x2
 2830 0160 18       		.uleb128 0x18
 2831 0161 00       		.byte	0
 2832 0162 00       		.byte	0
 2833 0163 19       		.uleb128 0x19
 2834 0164 34       		.uleb128 0x34
 2835 0165 00       		.byte	0
 2836 0166 03       		.uleb128 0x3
 2837 0167 0E       		.uleb128 0xe
 2838 0168 3A       		.uleb128 0x3a
 2839 0169 0B       		.uleb128 0xb
 2840 016a 3B       		.uleb128 0x3b
 2841 016b 0B       		.uleb128 0xb
 2842 016c 49       		.uleb128 0x49
 2843 016d 13       		.uleb128 0x13
 2844 016e 3F       		.uleb128 0x3f
 2845 016f 19       		.uleb128 0x19
 2846 0170 02       		.uleb128 0x2
 2847 0171 18       		.uleb128 0x18
 2848 0172 00       		.byte	0
 2849 0173 00       		.byte	0
 2850 0174 1A       		.uleb128 0x1a
 2851 0175 2E       		.uleb128 0x2e
 2852 0176 00       		.byte	0
 2853 0177 3F       		.uleb128 0x3f
 2854 0178 19       		.uleb128 0x19
 2855 0179 03       		.uleb128 0x3
 2856 017a 0E       		.uleb128 0xe
 2857 017b 3A       		.uleb128 0x3a
 2858 017c 0B       		.uleb128 0xb
 2859 017d 3B       		.uleb128 0x3b
 2860 017e 0B       		.uleb128 0xb
 2861 017f 27       		.uleb128 0x27
 2862 0180 19       		.uleb128 0x19
 2863 0181 49       		.uleb128 0x49
 2864 0182 13       		.uleb128 0x13
 2865 0183 3C       		.uleb128 0x3c
 2866 0184 19       		.uleb128 0x19
 2867 0185 00       		.byte	0
 2868 0186 00       		.byte	0
 2869 0187 1B       		.uleb128 0x1b
 2870 0188 2E       		.uleb128 0x2e
 2871 0189 01       		.byte	0x1
 2872 018a 3F       		.uleb128 0x3f
 2873 018b 19       		.uleb128 0x19
 2874 018c 03       		.uleb128 0x3
 2875 018d 0E       		.uleb128 0xe
ARM GAS  C:\Users\syhaines\AppData\Local\Temp\ccw1hiA6.s 			page 80


 2876 018e 3A       		.uleb128 0x3a
 2877 018f 0B       		.uleb128 0xb
 2878 0190 3B       		.uleb128 0x3b
 2879 0191 0B       		.uleb128 0xb
 2880 0192 27       		.uleb128 0x27
 2881 0193 19       		.uleb128 0x19
 2882 0194 3C       		.uleb128 0x3c
 2883 0195 19       		.uleb128 0x19
 2884 0196 00       		.byte	0
 2885 0197 00       		.byte	0
 2886 0198 1C       		.uleb128 0x1c
 2887 0199 05       		.uleb128 0x5
 2888 019a 00       		.byte	0
 2889 019b 49       		.uleb128 0x49
 2890 019c 13       		.uleb128 0x13
 2891 019d 00       		.byte	0
 2892 019e 00       		.byte	0
 2893 019f 00       		.byte	0
 2894              		.section	.debug_loc,"",%progbits
 2895              	.Ldebug_loc0:
 2896              	.LLST0:
 2897 0000 06000000 		.4byte	.LVL3
 2898 0004 13000000 		.4byte	.LVL4-1
 2899 0008 0100     		.2byte	0x1
 2900 000a 50       		.byte	0x50
 2901 000b 00000000 		.4byte	0
 2902 000f 00000000 		.4byte	0
 2903              	.LLST1:
 2904 0013 00000000 		.4byte	.LVL5
 2905 0017 07000000 		.4byte	.LVL6-1
 2906 001b 0100     		.2byte	0x1
 2907 001d 50       		.byte	0x50
 2908 001e 07000000 		.4byte	.LVL6-1
 2909 0022 1C000000 		.4byte	.LVL8
 2910 0026 0100     		.2byte	0x1
 2911 0028 54       		.byte	0x54
 2912 0029 1C000000 		.4byte	.LVL8
 2913 002d 28000000 		.4byte	.LFE4
 2914 0031 0400     		.2byte	0x4
 2915 0033 F3       		.byte	0xf3
 2916 0034 01       		.uleb128 0x1
 2917 0035 50       		.byte	0x50
 2918 0036 9F       		.byte	0x9f
 2919 0037 00000000 		.4byte	0
 2920 003b 00000000 		.4byte	0
 2921              	.LLST2:
 2922 003f 08000000 		.4byte	.LVL6
 2923 0043 1B000000 		.4byte	.LVL7-1
 2924 0047 0100     		.2byte	0x1
 2925 0049 50       		.byte	0x50
 2926 004a 00000000 		.4byte	0
 2927 004e 00000000 		.4byte	0
 2928              	.LLST3:
 2929 0052 00000000 		.4byte	.LVL9
 2930 0056 07000000 		.4byte	.LVL10-1
 2931 005a 0100     		.2byte	0x1
 2932 005c 50       		.byte	0x50
ARM GAS  C:\Users\syhaines\AppData\Local\Temp\ccw1hiA6.s 			page 81


 2933 005d 07000000 		.4byte	.LVL10-1
 2934 0061 1C000000 		.4byte	.LVL12
 2935 0065 0100     		.2byte	0x1
 2936 0067 54       		.byte	0x54
 2937 0068 1C000000 		.4byte	.LVL12
 2938 006c 28000000 		.4byte	.LFE5
 2939 0070 0400     		.2byte	0x4
 2940 0072 F3       		.byte	0xf3
 2941 0073 01       		.uleb128 0x1
 2942 0074 50       		.byte	0x50
 2943 0075 9F       		.byte	0x9f
 2944 0076 00000000 		.4byte	0
 2945 007a 00000000 		.4byte	0
 2946              	.LLST4:
 2947 007e 08000000 		.4byte	.LVL10
 2948 0082 1B000000 		.4byte	.LVL11-1
 2949 0086 0100     		.2byte	0x1
 2950 0088 50       		.byte	0x50
 2951 0089 00000000 		.4byte	0
 2952 008d 00000000 		.4byte	0
 2953              	.LLST5:
 2954 0091 00000000 		.4byte	.LVL13
 2955 0095 07000000 		.4byte	.LVL14-1
 2956 0099 0100     		.2byte	0x1
 2957 009b 50       		.byte	0x50
 2958 009c 07000000 		.4byte	.LVL14-1
 2959 00a0 1C000000 		.4byte	.LVL16
 2960 00a4 0100     		.2byte	0x1
 2961 00a6 54       		.byte	0x54
 2962 00a7 1C000000 		.4byte	.LVL16
 2963 00ab 28000000 		.4byte	.LFE6
 2964 00af 0400     		.2byte	0x4
 2965 00b1 F3       		.byte	0xf3
 2966 00b2 01       		.uleb128 0x1
 2967 00b3 50       		.byte	0x50
 2968 00b4 9F       		.byte	0x9f
 2969 00b5 00000000 		.4byte	0
 2970 00b9 00000000 		.4byte	0
 2971              	.LLST6:
 2972 00bd 08000000 		.4byte	.LVL14
 2973 00c1 1B000000 		.4byte	.LVL15-1
 2974 00c5 0100     		.2byte	0x1
 2975 00c7 50       		.byte	0x50
 2976 00c8 00000000 		.4byte	0
 2977 00cc 00000000 		.4byte	0
 2978              	.LLST7:
 2979 00d0 00000000 		.4byte	.LVL17
 2980 00d4 07000000 		.4byte	.LVL18-1
 2981 00d8 0100     		.2byte	0x1
 2982 00da 50       		.byte	0x50
 2983 00db 07000000 		.4byte	.LVL18-1
 2984 00df 22000000 		.4byte	.LVL20
 2985 00e3 0100     		.2byte	0x1
 2986 00e5 54       		.byte	0x54
 2987 00e6 22000000 		.4byte	.LVL20
 2988 00ea 2C000000 		.4byte	.LFE7
 2989 00ee 0400     		.2byte	0x4
ARM GAS  C:\Users\syhaines\AppData\Local\Temp\ccw1hiA6.s 			page 82


 2990 00f0 F3       		.byte	0xf3
 2991 00f1 01       		.uleb128 0x1
 2992 00f2 50       		.byte	0x50
 2993 00f3 9F       		.byte	0x9f
 2994 00f4 00000000 		.4byte	0
 2995 00f8 00000000 		.4byte	0
 2996              	.LLST8:
 2997 00fc 08000000 		.4byte	.LVL18
 2998 0100 21000000 		.4byte	.LVL19-1
 2999 0104 0100     		.2byte	0x1
 3000 0106 50       		.byte	0x50
 3001 0107 00000000 		.4byte	0
 3002 010b 00000000 		.4byte	0
 3003              	.LLST9:
 3004 010f 00000000 		.4byte	.LVL21
 3005 0113 04000000 		.4byte	.LVL22
 3006 0117 0100     		.2byte	0x1
 3007 0119 50       		.byte	0x50
 3008 011a 04000000 		.4byte	.LVL22
 3009 011e 10000000 		.4byte	.LFE8
 3010 0122 0400     		.2byte	0x4
 3011 0124 F3       		.byte	0xf3
 3012 0125 01       		.uleb128 0x1
 3013 0126 50       		.byte	0x50
 3014 0127 9F       		.byte	0x9f
 3015 0128 00000000 		.4byte	0
 3016 012c 00000000 		.4byte	0
 3017              	.LLST10:
 3018 0130 00000000 		.4byte	.LVL23
 3019 0134 07000000 		.4byte	.LVL24-1
 3020 0138 0100     		.2byte	0x1
 3021 013a 50       		.byte	0x50
 3022 013b 07000000 		.4byte	.LVL24-1
 3023 013f 22000000 		.4byte	.LVL26
 3024 0143 0100     		.2byte	0x1
 3025 0145 54       		.byte	0x54
 3026 0146 22000000 		.4byte	.LVL26
 3027 014a 28000000 		.4byte	.LFE9
 3028 014e 0400     		.2byte	0x4
 3029 0150 F3       		.byte	0xf3
 3030 0151 01       		.uleb128 0x1
 3031 0152 50       		.byte	0x50
 3032 0153 9F       		.byte	0x9f
 3033 0154 00000000 		.4byte	0
 3034 0158 00000000 		.4byte	0
 3035              	.LLST11:
 3036 015c 08000000 		.4byte	.LVL24
 3037 0160 21000000 		.4byte	.LVL25-1
 3038 0164 0100     		.2byte	0x1
 3039 0166 50       		.byte	0x50
 3040 0167 00000000 		.4byte	0
 3041 016b 00000000 		.4byte	0
 3042              	.LLST12:
 3043 016f 00000000 		.4byte	.LVL27
 3044 0173 07000000 		.4byte	.LVL28-1
 3045 0177 0100     		.2byte	0x1
 3046 0179 50       		.byte	0x50
ARM GAS  C:\Users\syhaines\AppData\Local\Temp\ccw1hiA6.s 			page 83


 3047 017a 07000000 		.4byte	.LVL28-1
 3048 017e 22000000 		.4byte	.LVL30
 3049 0182 0100     		.2byte	0x1
 3050 0184 54       		.byte	0x54
 3051 0185 22000000 		.4byte	.LVL30
 3052 0189 28000000 		.4byte	.LFE10
 3053 018d 0400     		.2byte	0x4
 3054 018f F3       		.byte	0xf3
 3055 0190 01       		.uleb128 0x1
 3056 0191 50       		.byte	0x50
 3057 0192 9F       		.byte	0x9f
 3058 0193 00000000 		.4byte	0
 3059 0197 00000000 		.4byte	0
 3060              	.LLST13:
 3061 019b 08000000 		.4byte	.LVL28
 3062 019f 21000000 		.4byte	.LVL29-1
 3063 01a3 0100     		.2byte	0x1
 3064 01a5 50       		.byte	0x50
 3065 01a6 00000000 		.4byte	0
 3066 01aa 00000000 		.4byte	0
 3067              	.LLST14:
 3068 01ae 00000000 		.4byte	.LVL31
 3069 01b2 07000000 		.4byte	.LVL32-1
 3070 01b6 0100     		.2byte	0x1
 3071 01b8 50       		.byte	0x50
 3072 01b9 07000000 		.4byte	.LVL32-1
 3073 01bd 10000000 		.4byte	.LVL33
 3074 01c1 0100     		.2byte	0x1
 3075 01c3 54       		.byte	0x54
 3076 01c4 10000000 		.4byte	.LVL33
 3077 01c8 2C000000 		.4byte	.LFE11
 3078 01cc 0400     		.2byte	0x4
 3079 01ce F3       		.byte	0xf3
 3080 01cf 01       		.uleb128 0x1
 3081 01d0 50       		.byte	0x50
 3082 01d1 9F       		.byte	0x9f
 3083 01d2 00000000 		.4byte	0
 3084 01d6 00000000 		.4byte	0
 3085              	.LLST15:
 3086 01da 08000000 		.4byte	.LVL32
 3087 01de 1F000000 		.4byte	.LVL34-1
 3088 01e2 0100     		.2byte	0x1
 3089 01e4 50       		.byte	0x50
 3090 01e5 00000000 		.4byte	0
 3091 01e9 00000000 		.4byte	0
 3092              	.LLST16:
 3093 01ed 00000000 		.4byte	.LVL35
 3094 01f1 07000000 		.4byte	.LVL36-1
 3095 01f5 0100     		.2byte	0x1
 3096 01f7 50       		.byte	0x50
 3097 01f8 07000000 		.4byte	.LVL36-1
 3098 01fc 1C000000 		.4byte	.LVL38
 3099 0200 0100     		.2byte	0x1
 3100 0202 54       		.byte	0x54
 3101 0203 1C000000 		.4byte	.LVL38
 3102 0207 28000000 		.4byte	.LFE12
 3103 020b 0400     		.2byte	0x4
ARM GAS  C:\Users\syhaines\AppData\Local\Temp\ccw1hiA6.s 			page 84


 3104 020d F3       		.byte	0xf3
 3105 020e 01       		.uleb128 0x1
 3106 020f 50       		.byte	0x50
 3107 0210 9F       		.byte	0x9f
 3108 0211 00000000 		.4byte	0
 3109 0215 00000000 		.4byte	0
 3110              	.LLST17:
 3111 0219 08000000 		.4byte	.LVL36
 3112 021d 1B000000 		.4byte	.LVL37-1
 3113 0221 0100     		.2byte	0x1
 3114 0223 50       		.byte	0x50
 3115 0224 00000000 		.4byte	0
 3116 0228 00000000 		.4byte	0
 3117              	.LLST18:
 3118 022c 00000000 		.4byte	.LVL39
 3119 0230 04000000 		.4byte	.LVL40
 3120 0234 0100     		.2byte	0x1
 3121 0236 50       		.byte	0x50
 3122 0237 04000000 		.4byte	.LVL40
 3123 023b 0C000000 		.4byte	.LFE13
 3124 023f 0400     		.2byte	0x4
 3125 0241 F3       		.byte	0xf3
 3126 0242 01       		.uleb128 0x1
 3127 0243 50       		.byte	0x50
 3128 0244 9F       		.byte	0x9f
 3129 0245 00000000 		.4byte	0
 3130 0249 00000000 		.4byte	0
 3131              	.LLST19:
 3132 024d 00000000 		.4byte	.LVL41
 3133 0251 07000000 		.4byte	.LVL42-1
 3134 0255 0100     		.2byte	0x1
 3135 0257 50       		.byte	0x50
 3136 0258 07000000 		.4byte	.LVL42-1
 3137 025c 1C000000 		.4byte	.LVL44
 3138 0260 0100     		.2byte	0x1
 3139 0262 54       		.byte	0x54
 3140 0263 1C000000 		.4byte	.LVL44
 3141 0267 28000000 		.4byte	.LFE15
 3142 026b 0400     		.2byte	0x4
 3143 026d F3       		.byte	0xf3
 3144 026e 01       		.uleb128 0x1
 3145 026f 50       		.byte	0x50
 3146 0270 9F       		.byte	0x9f
 3147 0271 00000000 		.4byte	0
 3148 0275 00000000 		.4byte	0
 3149              	.LLST20:
 3150 0279 08000000 		.4byte	.LVL42
 3151 027d 1B000000 		.4byte	.LVL43-1
 3152 0281 0100     		.2byte	0x1
 3153 0283 50       		.byte	0x50
 3154 0284 00000000 		.4byte	0
 3155 0288 00000000 		.4byte	0
 3156              	.LLST21:
 3157 028c 00000000 		.4byte	.LVL45
 3158 0290 04000000 		.4byte	.LVL46
 3159 0294 0100     		.2byte	0x1
 3160 0296 50       		.byte	0x50
ARM GAS  C:\Users\syhaines\AppData\Local\Temp\ccw1hiA6.s 			page 85


 3161 0297 04000000 		.4byte	.LVL46
 3162 029b 0C000000 		.4byte	.LFE16
 3163 029f 0400     		.2byte	0x4
 3164 02a1 F3       		.byte	0xf3
 3165 02a2 01       		.uleb128 0x1
 3166 02a3 50       		.byte	0x50
 3167 02a4 9F       		.byte	0x9f
 3168 02a5 00000000 		.4byte	0
 3169 02a9 00000000 		.4byte	0
 3170              	.LLST22:
 3171 02ad 00000000 		.4byte	.LVL47
 3172 02b1 07000000 		.4byte	.LVL48-1
 3173 02b5 0100     		.2byte	0x1
 3174 02b7 50       		.byte	0x50
 3175 02b8 07000000 		.4byte	.LVL48-1
 3176 02bc 1E000000 		.4byte	.LVL50
 3177 02c0 0100     		.2byte	0x1
 3178 02c2 54       		.byte	0x54
 3179 02c3 1E000000 		.4byte	.LVL50
 3180 02c7 24000000 		.4byte	.LFE18
 3181 02cb 0400     		.2byte	0x4
 3182 02cd F3       		.byte	0xf3
 3183 02ce 01       		.uleb128 0x1
 3184 02cf 50       		.byte	0x50
 3185 02d0 9F       		.byte	0x9f
 3186 02d1 00000000 		.4byte	0
 3187 02d5 00000000 		.4byte	0
 3188              	.LLST23:
 3189 02d9 08000000 		.4byte	.LVL48
 3190 02dd 1D000000 		.4byte	.LVL49-1
 3191 02e1 0100     		.2byte	0x1
 3192 02e3 50       		.byte	0x50
 3193 02e4 00000000 		.4byte	0
 3194 02e8 00000000 		.4byte	0
 3195              	.LLST24:
 3196 02ec 00000000 		.4byte	.LVL51
 3197 02f0 04000000 		.4byte	.LVL52
 3198 02f4 0100     		.2byte	0x1
 3199 02f6 50       		.byte	0x50
 3200 02f7 04000000 		.4byte	.LVL52
 3201 02fb 0C000000 		.4byte	.LFE19
 3202 02ff 0400     		.2byte	0x4
 3203 0301 F3       		.byte	0xf3
 3204 0302 01       		.uleb128 0x1
 3205 0303 50       		.byte	0x50
 3206 0304 9F       		.byte	0x9f
 3207 0305 00000000 		.4byte	0
 3208 0309 00000000 		.4byte	0
 3209              	.LLST25:
 3210 030d 00000000 		.4byte	.LVL53
 3211 0311 07000000 		.4byte	.LVL54-1
 3212 0315 0100     		.2byte	0x1
 3213 0317 50       		.byte	0x50
 3214 0318 07000000 		.4byte	.LVL54-1
 3215 031c 22000000 		.4byte	.LVL56
 3216 0320 0100     		.2byte	0x1
 3217 0322 54       		.byte	0x54
ARM GAS  C:\Users\syhaines\AppData\Local\Temp\ccw1hiA6.s 			page 86


 3218 0323 22000000 		.4byte	.LVL56
 3219 0327 28000000 		.4byte	.LFE21
 3220 032b 0400     		.2byte	0x4
 3221 032d F3       		.byte	0xf3
 3222 032e 01       		.uleb128 0x1
 3223 032f 50       		.byte	0x50
 3224 0330 9F       		.byte	0x9f
 3225 0331 00000000 		.4byte	0
 3226 0335 00000000 		.4byte	0
 3227              	.LLST26:
 3228 0339 08000000 		.4byte	.LVL54
 3229 033d 21000000 		.4byte	.LVL55-1
 3230 0341 0100     		.2byte	0x1
 3231 0343 50       		.byte	0x50
 3232 0344 00000000 		.4byte	0
 3233 0348 00000000 		.4byte	0
 3234              	.LLST27:
 3235 034c 00000000 		.4byte	.LVL57
 3236 0350 04000000 		.4byte	.LVL58
 3237 0354 0100     		.2byte	0x1
 3238 0356 50       		.byte	0x50
 3239 0357 04000000 		.4byte	.LVL58
 3240 035b 0C000000 		.4byte	.LFE22
 3241 035f 0400     		.2byte	0x4
 3242 0361 F3       		.byte	0xf3
 3243 0362 01       		.uleb128 0x1
 3244 0363 50       		.byte	0x50
 3245 0364 9F       		.byte	0x9f
 3246 0365 00000000 		.4byte	0
 3247 0369 00000000 		.4byte	0
 3248              	.LLST28:
 3249 036d 00000000 		.4byte	.LVL59
 3250 0371 04000000 		.4byte	.LVL60
 3251 0375 0100     		.2byte	0x1
 3252 0377 50       		.byte	0x50
 3253 0378 04000000 		.4byte	.LVL60
 3254 037c 0C000000 		.4byte	.LFE24
 3255 0380 0400     		.2byte	0x4
 3256 0382 F3       		.byte	0xf3
 3257 0383 01       		.uleb128 0x1
 3258 0384 50       		.byte	0x50
 3259 0385 9F       		.byte	0x9f
 3260 0386 00000000 		.4byte	0
 3261 038a 00000000 		.4byte	0
 3262              	.LLST29:
 3263 038e 00000000 		.4byte	.LVL61
 3264 0392 07000000 		.4byte	.LVL62-1
 3265 0396 0100     		.2byte	0x1
 3266 0398 50       		.byte	0x50
 3267 0399 07000000 		.4byte	.LVL62-1
 3268 039d 1C000000 		.4byte	.LVL64
 3269 03a1 0100     		.2byte	0x1
 3270 03a3 54       		.byte	0x54
 3271 03a4 1C000000 		.4byte	.LVL64
 3272 03a8 24000000 		.4byte	.LFE28
 3273 03ac 0400     		.2byte	0x4
 3274 03ae F3       		.byte	0xf3
ARM GAS  C:\Users\syhaines\AppData\Local\Temp\ccw1hiA6.s 			page 87


 3275 03af 01       		.uleb128 0x1
 3276 03b0 50       		.byte	0x50
 3277 03b1 9F       		.byte	0x9f
 3278 03b2 00000000 		.4byte	0
 3279 03b6 00000000 		.4byte	0
 3280              	.LLST30:
 3281 03ba 08000000 		.4byte	.LVL62
 3282 03be 1B000000 		.4byte	.LVL63-1
 3283 03c2 0100     		.2byte	0x1
 3284 03c4 50       		.byte	0x50
 3285 03c5 00000000 		.4byte	0
 3286 03c9 00000000 		.4byte	0
 3287              	.LLST31:
 3288 03cd 00000000 		.4byte	.LVL65
 3289 03d1 07000000 		.4byte	.LVL66-1
 3290 03d5 0100     		.2byte	0x1
 3291 03d7 50       		.byte	0x50
 3292 03d8 07000000 		.4byte	.LVL66-1
 3293 03dc 1E000000 		.4byte	.LVL68
 3294 03e0 0100     		.2byte	0x1
 3295 03e2 54       		.byte	0x54
 3296 03e3 1E000000 		.4byte	.LVL68
 3297 03e7 24000000 		.4byte	.LFE29
 3298 03eb 0400     		.2byte	0x4
 3299 03ed F3       		.byte	0xf3
 3300 03ee 01       		.uleb128 0x1
 3301 03ef 50       		.byte	0x50
 3302 03f0 9F       		.byte	0x9f
 3303 03f1 00000000 		.4byte	0
 3304 03f5 00000000 		.4byte	0
 3305              	.LLST32:
 3306 03f9 08000000 		.4byte	.LVL66
 3307 03fd 1D000000 		.4byte	.LVL67-1
 3308 0401 0100     		.2byte	0x1
 3309 0403 50       		.byte	0x50
 3310 0404 00000000 		.4byte	0
 3311 0408 00000000 		.4byte	0
 3312              	.LLST33:
 3313 040c 00000000 		.4byte	.LVL69
 3314 0410 07000000 		.4byte	.LVL70-1
 3315 0414 0100     		.2byte	0x1
 3316 0416 50       		.byte	0x50
 3317 0417 07000000 		.4byte	.LVL70-1
 3318 041b 1E000000 		.4byte	.LVL72
 3319 041f 0100     		.2byte	0x1
 3320 0421 54       		.byte	0x54
 3321 0422 1E000000 		.4byte	.LVL72
 3322 0426 28000000 		.4byte	.LFE30
 3323 042a 0400     		.2byte	0x4
 3324 042c F3       		.byte	0xf3
 3325 042d 01       		.uleb128 0x1
 3326 042e 50       		.byte	0x50
 3327 042f 9F       		.byte	0x9f
 3328 0430 00000000 		.4byte	0
 3329 0434 00000000 		.4byte	0
 3330              	.LLST34:
 3331 0438 08000000 		.4byte	.LVL70
ARM GAS  C:\Users\syhaines\AppData\Local\Temp\ccw1hiA6.s 			page 88


 3332 043c 1D000000 		.4byte	.LVL71-1
 3333 0440 0100     		.2byte	0x1
 3334 0442 50       		.byte	0x50
 3335 0443 00000000 		.4byte	0
 3336 0447 00000000 		.4byte	0
 3337              	.LLST35:
 3338 044b 00000000 		.4byte	.LVL73
 3339 044f 07000000 		.4byte	.LVL74-1
 3340 0453 0100     		.2byte	0x1
 3341 0455 50       		.byte	0x50
 3342 0456 07000000 		.4byte	.LVL74-1
 3343 045a 1E000000 		.4byte	.LVL76
 3344 045e 0100     		.2byte	0x1
 3345 0460 54       		.byte	0x54
 3346 0461 1E000000 		.4byte	.LVL76
 3347 0465 24000000 		.4byte	.LFE31
 3348 0469 0400     		.2byte	0x4
 3349 046b F3       		.byte	0xf3
 3350 046c 01       		.uleb128 0x1
 3351 046d 50       		.byte	0x50
 3352 046e 9F       		.byte	0x9f
 3353 046f 00000000 		.4byte	0
 3354 0473 00000000 		.4byte	0
 3355              	.LLST36:
 3356 0477 08000000 		.4byte	.LVL74
 3357 047b 1D000000 		.4byte	.LVL75-1
 3358 047f 0100     		.2byte	0x1
 3359 0481 50       		.byte	0x50
 3360 0482 00000000 		.4byte	0
 3361 0486 00000000 		.4byte	0
 3362              	.LLST37:
 3363 048a 00000000 		.4byte	.LVL77
 3364 048e 07000000 		.4byte	.LVL78-1
 3365 0492 0100     		.2byte	0x1
 3366 0494 50       		.byte	0x50
 3367 0495 07000000 		.4byte	.LVL78-1
 3368 0499 1E000000 		.4byte	.LVL80
 3369 049d 0100     		.2byte	0x1
 3370 049f 54       		.byte	0x54
 3371 04a0 1E000000 		.4byte	.LVL80
 3372 04a4 24000000 		.4byte	.LFE32
 3373 04a8 0400     		.2byte	0x4
 3374 04aa F3       		.byte	0xf3
 3375 04ab 01       		.uleb128 0x1
 3376 04ac 50       		.byte	0x50
 3377 04ad 9F       		.byte	0x9f
 3378 04ae 00000000 		.4byte	0
 3379 04b2 00000000 		.4byte	0
 3380              	.LLST38:
 3381 04b6 08000000 		.4byte	.LVL78
 3382 04ba 1D000000 		.4byte	.LVL79-1
 3383 04be 0100     		.2byte	0x1
 3384 04c0 50       		.byte	0x50
 3385 04c1 00000000 		.4byte	0
 3386 04c5 00000000 		.4byte	0
 3387              	.LLST39:
 3388 04c9 00000000 		.4byte	.LVL81
ARM GAS  C:\Users\syhaines\AppData\Local\Temp\ccw1hiA6.s 			page 89


 3389 04cd 0B000000 		.4byte	.LVL82-1
 3390 04d1 0100     		.2byte	0x1
 3391 04d3 50       		.byte	0x50
 3392 04d4 0B000000 		.4byte	.LVL82-1
 3393 04d8 1C000000 		.4byte	.LFE33
 3394 04dc 0400     		.2byte	0x4
 3395 04de F3       		.byte	0xf3
 3396 04df 01       		.uleb128 0x1
 3397 04e0 50       		.byte	0x50
 3398 04e1 9F       		.byte	0x9f
 3399 04e2 00000000 		.4byte	0
 3400 04e6 00000000 		.4byte	0
 3401              	.LLST40:
 3402 04ea 00000000 		.4byte	.LVL81
 3403 04ee 0B000000 		.4byte	.LVL82-1
 3404 04f2 0100     		.2byte	0x1
 3405 04f4 51       		.byte	0x51
 3406 04f5 0B000000 		.4byte	.LVL82-1
 3407 04f9 14000000 		.4byte	.LVL84
 3408 04fd 0100     		.2byte	0x1
 3409 04ff 55       		.byte	0x55
 3410 0500 14000000 		.4byte	.LVL84
 3411 0504 1C000000 		.4byte	.LFE33
 3412 0508 0400     		.2byte	0x4
 3413 050a F3       		.byte	0xf3
 3414 050b 01       		.uleb128 0x1
 3415 050c 51       		.byte	0x51
 3416 050d 9F       		.byte	0x9f
 3417 050e 00000000 		.4byte	0
 3418 0512 00000000 		.4byte	0
 3419              	.LLST41:
 3420 0516 0C000000 		.4byte	.LVL82
 3421 051a 13000000 		.4byte	.LVL83-1
 3422 051e 0100     		.2byte	0x1
 3423 0520 50       		.byte	0x50
 3424 0521 00000000 		.4byte	0
 3425 0525 00000000 		.4byte	0
 3426              	.LLST42:
 3427 0529 08000000 		.4byte	.LVL85
 3428 052d 13000000 		.4byte	.LVL86-1
 3429 0531 0100     		.2byte	0x1
 3430 0533 50       		.byte	0x50
 3431 0534 00000000 		.4byte	0
 3432 0538 00000000 		.4byte	0
 3433              		.section	.debug_aranges,"",%progbits
 3434 0000 54010000 		.4byte	0x154
 3435 0004 0200     		.2byte	0x2
 3436 0006 00000000 		.4byte	.Ldebug_info0
 3437 000a 04       		.byte	0x4
 3438 000b 00       		.byte	0
 3439 000c 0000     		.2byte	0
 3440 000e 0000     		.2byte	0
 3441 0010 00000000 		.4byte	.LFB0
 3442 0014 38000000 		.4byte	.LFE0-.LFB0
 3443 0018 00000000 		.4byte	.LFB3
 3444 001c 1C000000 		.4byte	.LFE3-.LFB3
 3445 0020 00000000 		.4byte	.LFB4
ARM GAS  C:\Users\syhaines\AppData\Local\Temp\ccw1hiA6.s 			page 90


 3446 0024 28000000 		.4byte	.LFE4-.LFB4
 3447 0028 00000000 		.4byte	.LFB5
 3448 002c 28000000 		.4byte	.LFE5-.LFB5
 3449 0030 00000000 		.4byte	.LFB6
 3450 0034 28000000 		.4byte	.LFE6-.LFB6
 3451 0038 00000000 		.4byte	.LFB7
 3452 003c 2C000000 		.4byte	.LFE7-.LFB7
 3453 0040 00000000 		.4byte	.LFB8
 3454 0044 10000000 		.4byte	.LFE8-.LFB8
 3455 0048 00000000 		.4byte	.LFB9
 3456 004c 28000000 		.4byte	.LFE9-.LFB9
 3457 0050 00000000 		.4byte	.LFB10
 3458 0054 28000000 		.4byte	.LFE10-.LFB10
 3459 0058 00000000 		.4byte	.LFB11
 3460 005c 2C000000 		.4byte	.LFE11-.LFB11
 3461 0060 00000000 		.4byte	.LFB12
 3462 0064 28000000 		.4byte	.LFE12-.LFB12
 3463 0068 00000000 		.4byte	.LFB13
 3464 006c 0C000000 		.4byte	.LFE13-.LFB13
 3465 0070 00000000 		.4byte	.LFB14
 3466 0074 0C000000 		.4byte	.LFE14-.LFB14
 3467 0078 00000000 		.4byte	.LFB15
 3468 007c 28000000 		.4byte	.LFE15-.LFB15
 3469 0080 00000000 		.4byte	.LFB16
 3470 0084 0C000000 		.4byte	.LFE16-.LFB16
 3471 0088 00000000 		.4byte	.LFB17
 3472 008c 0C000000 		.4byte	.LFE17-.LFB17
 3473 0090 00000000 		.4byte	.LFB18
 3474 0094 24000000 		.4byte	.LFE18-.LFB18
 3475 0098 00000000 		.4byte	.LFB19
 3476 009c 0C000000 		.4byte	.LFE19-.LFB19
 3477 00a0 00000000 		.4byte	.LFB20
 3478 00a4 0C000000 		.4byte	.LFE20-.LFB20
 3479 00a8 00000000 		.4byte	.LFB21
 3480 00ac 28000000 		.4byte	.LFE21-.LFB21
 3481 00b0 00000000 		.4byte	.LFB22
 3482 00b4 0C000000 		.4byte	.LFE22-.LFB22
 3483 00b8 00000000 		.4byte	.LFB23
 3484 00bc 0C000000 		.4byte	.LFE23-.LFB23
 3485 00c0 00000000 		.4byte	.LFB24
 3486 00c4 0C000000 		.4byte	.LFE24-.LFB24
 3487 00c8 00000000 		.4byte	.LFB25
 3488 00cc 0C000000 		.4byte	.LFE25-.LFB25
 3489 00d0 00000000 		.4byte	.LFB26
 3490 00d4 0C000000 		.4byte	.LFE26-.LFB26
 3491 00d8 00000000 		.4byte	.LFB27
 3492 00dc 0C000000 		.4byte	.LFE27-.LFB27
 3493 00e0 00000000 		.4byte	.LFB28
 3494 00e4 24000000 		.4byte	.LFE28-.LFB28
 3495 00e8 00000000 		.4byte	.LFB29
 3496 00ec 24000000 		.4byte	.LFE29-.LFB29
 3497 00f0 00000000 		.4byte	.LFB30
 3498 00f4 28000000 		.4byte	.LFE30-.LFB30
 3499 00f8 00000000 		.4byte	.LFB31
 3500 00fc 24000000 		.4byte	.LFE31-.LFB31
 3501 0100 00000000 		.4byte	.LFB32
 3502 0104 24000000 		.4byte	.LFE32-.LFB32
ARM GAS  C:\Users\syhaines\AppData\Local\Temp\ccw1hiA6.s 			page 91


 3503 0108 00000000 		.4byte	.LFB33
 3504 010c 1C000000 		.4byte	.LFE33-.LFB33
 3505 0110 00000000 		.4byte	.LFB1
 3506 0114 24000000 		.4byte	.LFE1-.LFB1
 3507 0118 00000000 		.4byte	.LFB2
 3508 011c 1C000000 		.4byte	.LFE2-.LFB2
 3509 0120 00000000 		.4byte	.LFB34
 3510 0124 14000000 		.4byte	.LFE34-.LFB34
 3511 0128 00000000 		.4byte	.LFB35
 3512 012c 0C000000 		.4byte	.LFE35-.LFB35
 3513 0130 00000000 		.4byte	.LFB36
 3514 0134 0C000000 		.4byte	.LFE36-.LFB36
 3515 0138 00000000 		.4byte	.LFB37
 3516 013c 0C000000 		.4byte	.LFE37-.LFB37
 3517 0140 00000000 		.4byte	.LFB38
 3518 0144 0C000000 		.4byte	.LFE38-.LFB38
 3519 0148 00000000 		.4byte	.LFB39
 3520 014c 0C000000 		.4byte	.LFE39-.LFB39
 3521 0150 00000000 		.4byte	0
 3522 0154 00000000 		.4byte	0
 3523              		.section	.debug_ranges,"",%progbits
 3524              	.Ldebug_ranges0:
 3525 0000 00000000 		.4byte	.LFB0
 3526 0004 38000000 		.4byte	.LFE0
 3527 0008 00000000 		.4byte	.LFB3
 3528 000c 1C000000 		.4byte	.LFE3
 3529 0010 00000000 		.4byte	.LFB4
 3530 0014 28000000 		.4byte	.LFE4
 3531 0018 00000000 		.4byte	.LFB5
 3532 001c 28000000 		.4byte	.LFE5
 3533 0020 00000000 		.4byte	.LFB6
 3534 0024 28000000 		.4byte	.LFE6
 3535 0028 00000000 		.4byte	.LFB7
 3536 002c 2C000000 		.4byte	.LFE7
 3537 0030 00000000 		.4byte	.LFB8
 3538 0034 10000000 		.4byte	.LFE8
 3539 0038 00000000 		.4byte	.LFB9
 3540 003c 28000000 		.4byte	.LFE9
 3541 0040 00000000 		.4byte	.LFB10
 3542 0044 28000000 		.4byte	.LFE10
 3543 0048 00000000 		.4byte	.LFB11
 3544 004c 2C000000 		.4byte	.LFE11
 3545 0050 00000000 		.4byte	.LFB12
 3546 0054 28000000 		.4byte	.LFE12
 3547 0058 00000000 		.4byte	.LFB13
 3548 005c 0C000000 		.4byte	.LFE13
 3549 0060 00000000 		.4byte	.LFB14
 3550 0064 0C000000 		.4byte	.LFE14
 3551 0068 00000000 		.4byte	.LFB15
 3552 006c 28000000 		.4byte	.LFE15
 3553 0070 00000000 		.4byte	.LFB16
 3554 0074 0C000000 		.4byte	.LFE16
 3555 0078 00000000 		.4byte	.LFB17
 3556 007c 0C000000 		.4byte	.LFE17
 3557 0080 00000000 		.4byte	.LFB18
 3558 0084 24000000 		.4byte	.LFE18
 3559 0088 00000000 		.4byte	.LFB19
ARM GAS  C:\Users\syhaines\AppData\Local\Temp\ccw1hiA6.s 			page 92


 3560 008c 0C000000 		.4byte	.LFE19
 3561 0090 00000000 		.4byte	.LFB20
 3562 0094 0C000000 		.4byte	.LFE20
 3563 0098 00000000 		.4byte	.LFB21
 3564 009c 28000000 		.4byte	.LFE21
 3565 00a0 00000000 		.4byte	.LFB22
 3566 00a4 0C000000 		.4byte	.LFE22
 3567 00a8 00000000 		.4byte	.LFB23
 3568 00ac 0C000000 		.4byte	.LFE23
 3569 00b0 00000000 		.4byte	.LFB24
 3570 00b4 0C000000 		.4byte	.LFE24
 3571 00b8 00000000 		.4byte	.LFB25
 3572 00bc 0C000000 		.4byte	.LFE25
 3573 00c0 00000000 		.4byte	.LFB26
 3574 00c4 0C000000 		.4byte	.LFE26
 3575 00c8 00000000 		.4byte	.LFB27
 3576 00cc 0C000000 		.4byte	.LFE27
 3577 00d0 00000000 		.4byte	.LFB28
 3578 00d4 24000000 		.4byte	.LFE28
 3579 00d8 00000000 		.4byte	.LFB29
 3580 00dc 24000000 		.4byte	.LFE29
 3581 00e0 00000000 		.4byte	.LFB30
 3582 00e4 28000000 		.4byte	.LFE30
 3583 00e8 00000000 		.4byte	.LFB31
 3584 00ec 24000000 		.4byte	.LFE31
 3585 00f0 00000000 		.4byte	.LFB32
 3586 00f4 24000000 		.4byte	.LFE32
 3587 00f8 00000000 		.4byte	.LFB33
 3588 00fc 1C000000 		.4byte	.LFE33
 3589 0100 00000000 		.4byte	.LFB1
 3590 0104 24000000 		.4byte	.LFE1
 3591 0108 00000000 		.4byte	.LFB2
 3592 010c 1C000000 		.4byte	.LFE2
 3593 0110 00000000 		.4byte	.LFB34
 3594 0114 14000000 		.4byte	.LFE34
 3595 0118 00000000 		.4byte	.LFB35
 3596 011c 0C000000 		.4byte	.LFE35
 3597 0120 00000000 		.4byte	.LFB36
 3598 0124 0C000000 		.4byte	.LFE36
 3599 0128 00000000 		.4byte	.LFB37
 3600 012c 0C000000 		.4byte	.LFE37
 3601 0130 00000000 		.4byte	.LFB38
 3602 0134 0C000000 		.4byte	.LFE38
 3603 0138 00000000 		.4byte	.LFB39
 3604 013c 0C000000 		.4byte	.LFE39
 3605 0140 00000000 		.4byte	0
 3606 0144 00000000 		.4byte	0
 3607              		.section	.debug_line,"",%progbits
 3608              	.Ldebug_line0:
 3609 0000 E6030000 		.section	.debug_str,"MS",%progbits,1
 3609      02005600 
 3609      00000201 
 3609      FB0E0D00 
 3609      01010101 
 3610              	.LASF21:
 3611 0000 636F756E 		.ascii	"count\000"
 3611      7400
ARM GAS  C:\Users\syhaines\AppData\Local\Temp\ccw1hiA6.s 			page 93


 3612              	.LASF76:
 3613 0006 474E5520 		.ascii	"GNU C 4.9.3 20150303 (release) [ARM/embedded-4_9-br"
 3613      4320342E 
 3613      392E3320 
 3613      32303135 
 3613      30333033 
 3614 0039 616E6368 		.ascii	"anch revision 221220] -mcpu=cortex-m0 -mthumb -g -O"
 3614      20726576 
 3614      6973696F 
 3614      6E203232 
 3614      31323230 
 3615 006c 73202D66 		.ascii	"s -ffunction-sections -ffat-lto-objects\000"
 3615      66756E63 
 3615      74696F6E 
 3615      2D736563 
 3615      74696F6E 
 3616              	.LASF81:
 3617 0094 43794578 		.ascii	"CyExitCriticalSection\000"
 3617      69744372 
 3617      69746963 
 3617      616C5365 
 3617      6374696F 
 3618              	.LASF29:
 3619 00aa 52656C61 		.ascii	"Relay_Offset_SetPrescaler\000"
 3619      795F4F66 
 3619      66736574 
 3619      5F536574 
 3619      50726573 
 3620              	.LASF19:
 3621 00c4 70657269 		.ascii	"period\000"
 3621      6F6400
 3622              	.LASF22:
 3623 00cb 52656C61 		.ascii	"Relay_Offset_Init\000"
 3623      795F4F66 
 3623      66736574 
 3623      5F496E69 
 3623      7400
 3624              	.LASF56:
 3625 00dd 52656C61 		.ascii	"Relay_Offset_WriteCompareBuf\000"
 3625      795F4F66 
 3625      66736574 
 3625      5F577269 
 3625      7465436F 
 3626              	.LASF7:
 3627 00fa 6C6F6E67 		.ascii	"long long unsigned int\000"
 3627      206C6F6E 
 3627      6720756E 
 3627      7369676E 
 3627      65642069 
 3628              	.LASF17:
 3629 0111 52656C61 		.ascii	"Relay_Offset_WritePeriod\000"
 3629      795F4F66 
 3629      66736574 
 3629      5F577269 
 3629      74655065 
 3630              	.LASF28:
 3631 012a 71644D6F 		.ascii	"qdMode\000"
ARM GAS  C:\Users\syhaines\AppData\Local\Temp\ccw1hiA6.s 			page 94


 3631      646500
 3632              	.LASF77:
 3633 0131 2E5C4765 		.ascii	".\\Generated_Source\\PSoC4\\Relay_Offset.c\000"
 3633      6E657261 
 3633      7465645F 
 3633      536F7572 
 3633      63655C50 
 3634              	.LASF0:
 3635 0159 7369676E 		.ascii	"signed char\000"
 3635      65642063 
 3635      68617200 
 3636              	.LASF35:
 3637 0165 52656C61 		.ascii	"Relay_Offset_SetPWMSyncKill\000"
 3637      795F4F66 
 3637      66736574 
 3637      5F536574 
 3637      50574D53 
 3638              	.LASF51:
 3639 0181 52656C61 		.ascii	"Relay_Offset_ReadPeriodBuf\000"
 3639      795F4F66 
 3639      66736574 
 3639      5F526561 
 3639      64506572 
 3640              	.LASF4:
 3641 019c 6C6F6E67 		.ascii	"long int\000"
 3641      20696E74 
 3641      00
 3642              	.LASF9:
 3643 01a5 75696E74 		.ascii	"uint8\000"
 3643      3800
 3644              	.LASF6:
 3645 01ab 6C6F6E67 		.ascii	"long long int\000"
 3645      206C6F6E 
 3645      6720696E 
 3645      7400
 3646              	.LASF12:
 3647 01b9 646F7562 		.ascii	"double\000"
 3647      6C6500
 3648              	.LASF52:
 3649 01c0 52656C61 		.ascii	"Relay_Offset_SetPeriodSwap\000"
 3649      795F4F66 
 3649      66736574 
 3649      5F536574 
 3649      50657269 
 3650              	.LASF24:
 3651 01db 52656C61 		.ascii	"Relay_Offset_SetMode\000"
 3651      795F4F66 
 3651      66736574 
 3651      5F536574 
 3651      4D6F6465 
 3652              	.LASF59:
 3653 01f0 52656C61 		.ascii	"Relay_Offset_ReadCapture\000"
 3653      795F4F66 
 3653      66736574 
 3653      5F526561 
 3653      64436170 
 3654              	.LASF10:
ARM GAS  C:\Users\syhaines\AppData\Local\Temp\ccw1hiA6.s 			page 95


 3655 0209 75696E74 		.ascii	"uint32\000"
 3655      333200
 3656              	.LASF62:
 3657 0210 74726967 		.ascii	"triggerMode\000"
 3657      6765724D 
 3657      6F646500 
 3658              	.LASF42:
 3659 021c 6D61736B 		.ascii	"mask\000"
 3659      00
 3660              	.LASF26:
 3661 0221 52656C61 		.ascii	"Relay_Offset_SetQDMode\000"
 3661      795F4F66 
 3661      66736574 
 3661      5F536574 
 3661      51444D6F 
 3662              	.LASF74:
 3663 0238 52656C61 		.ascii	"Relay_Offset_ClearInterrupt\000"
 3663      795F4F66 
 3663      66736574 
 3663      5F436C65 
 3663      6172496E 
 3664              	.LASF40:
 3665 0254 64656164 		.ascii	"deadTime\000"
 3665      54696D65 
 3665      00
 3666              	.LASF8:
 3667 025d 756E7369 		.ascii	"unsigned int\000"
 3667      676E6564 
 3667      20696E74 
 3667      00
 3668              	.LASF16:
 3669 026a 52656C61 		.ascii	"Relay_Offset_SetInterruptMode\000"
 3669      795F4F66 
 3669      66736574 
 3669      5F536574 
 3669      496E7465 
 3670              	.LASF68:
 3671 0288 636F6D6D 		.ascii	"command\000"
 3671      616E6400 
 3672              	.LASF5:
 3673 0290 6C6F6E67 		.ascii	"long unsigned int\000"
 3673      20756E73 
 3673      69676E65 
 3673      6420696E 
 3673      7400
 3674              	.LASF34:
 3675 02a2 6D6F6465 		.ascii	"modeMask\000"
 3675      4D61736B 
 3675      00
 3676              	.LASF80:
 3677 02ab 4379456E 		.ascii	"CyEnterCriticalSection\000"
 3677      74657243 
 3677      72697469 
 3677      63616C53 
 3677      65637469 
 3678              	.LASF58:
 3679 02c2 52656C61 		.ascii	"Relay_Offset_ReadCompareBuf\000"
ARM GAS  C:\Users\syhaines\AppData\Local\Temp\ccw1hiA6.s 			page 96


 3679      795F4F66 
 3679      66736574 
 3679      5F526561 
 3679      64436F6D 
 3680              	.LASF47:
 3681 02de 52656C61 		.ascii	"Relay_Offset_SetCompareSwap\000"
 3681      795F4F66 
 3681      66736574 
 3681      5F536574 
 3681      436F6D70 
 3682              	.LASF3:
 3683 02fa 73686F72 		.ascii	"short unsigned int\000"
 3683      7420756E 
 3683      7369676E 
 3683      65642069 
 3683      6E7400
 3684              	.LASF75:
 3685 030d 52656C61 		.ascii	"Relay_Offset_SetInterrupt\000"
 3685      795F4F66 
 3685      66736574 
 3685      5F536574 
 3685      496E7465 
 3686              	.LASF63:
 3687 0327 52656C61 		.ascii	"Relay_Offset_SetReloadMode\000"
 3687      795F4F66 
 3687      66736574 
 3687      5F536574 
 3687      52656C6F 
 3688              	.LASF32:
 3689 0342 6F6E6553 		.ascii	"oneShotEnable\000"
 3689      686F7445 
 3689      6E61626C 
 3689      6500
 3690              	.LASF39:
 3691 0350 52656C61 		.ascii	"Relay_Offset_SetPWMDeadTime\000"
 3691      795F4F66 
 3691      66736574 
 3691      5F536574 
 3691      50574D44 
 3692              	.LASF14:
 3693 036c 72656733 		.ascii	"reg32\000"
 3693      3200
 3694              	.LASF69:
 3695 0372 52656C61 		.ascii	"Relay_Offset_Enable\000"
 3695      795F4F66 
 3695      66736574 
 3695      5F456E61 
 3695      626C6500 
 3696              	.LASF15:
 3697 0386 73697A65 		.ascii	"sizetype\000"
 3697      74797065 
 3697      00
 3698              	.LASF36:
 3699 038f 73796E63 		.ascii	"syncKillEnable\000"
 3699      4B696C6C 
 3699      456E6162 
 3699      6C6500
ARM GAS  C:\Users\syhaines\AppData\Local\Temp\ccw1hiA6.s 			page 97


 3700              	.LASF66:
 3701 039e 52656C61 		.ascii	"Relay_Offset_SetCountMode\000"
 3701      795F4F66 
 3701      66736574 
 3701      5F536574 
 3701      436F756E 
 3702              	.LASF54:
 3703 03b8 636F6D70 		.ascii	"compare\000"
 3703      61726500 
 3704              	.LASF71:
 3705 03c0 52656C61 		.ascii	"Relay_Offset_ReadStatus\000"
 3705      795F4F66 
 3705      66736574 
 3705      5F526561 
 3705      64537461 
 3706              	.LASF78:
 3707 03d8 433A5C4C 		.ascii	"C:\\Legrand\\Dimmers\\A4W sofTap and Touch\\A4W_Sof"
 3707      65677261 
 3707      6E645C44 
 3707      696D6D65 
 3707      72735C41 
 3708 0407 7461702E 		.ascii	"tap.cydsn\000"
 3708      63796473 
 3708      6E00
 3709              	.LASF67:
 3710 0411 52656C61 		.ascii	"Relay_Offset_TriggerCommand\000"
 3710      795F4F66 
 3710      66736574 
 3710      5F547269 
 3710      67676572 
 3711              	.LASF11:
 3712 042d 666C6F61 		.ascii	"float\000"
 3712      7400
 3713              	.LASF30:
 3714 0433 70726573 		.ascii	"prescaler\000"
 3714      63616C65 
 3714      7200
 3715              	.LASF53:
 3716 043d 52656C61 		.ascii	"Relay_Offset_WriteCompare\000"
 3716      795F4F66 
 3716      66736574 
 3716      5F577269 
 3716      7465436F 
 3717              	.LASF55:
 3718 0457 52656C61 		.ascii	"Relay_Offset_ReadCompare\000"
 3718      795F4F66 
 3718      66736574 
 3718      5F526561 
 3718      64436F6D 
 3719              	.LASF1:
 3720 0470 756E7369 		.ascii	"unsigned char\000"
 3720      676E6564 
 3720      20636861 
 3720      7200
 3721              	.LASF38:
 3722 047e 73746F70 		.ascii	"stopOnKillEnable\000"
 3722      4F6E4B69 
ARM GAS  C:\Users\syhaines\AppData\Local\Temp\ccw1hiA6.s 			page 98


 3722      6C6C456E 
 3722      61626C65 
 3722      00
 3723              	.LASF2:
 3724 048f 73686F72 		.ascii	"short int\000"
 3724      7420696E 
 3724      7400
 3725              	.LASF23:
 3726 0499 52656C61 		.ascii	"Relay_Offset_Stop\000"
 3726      795F4F66 
 3726      66736574 
 3726      5F53746F 
 3726      7000
 3727              	.LASF18:
 3728 04ab 696E7465 		.ascii	"interruptMask\000"
 3728      72727570 
 3728      744D6173 
 3728      6B00
 3729              	.LASF20:
 3730 04b9 52656C61 		.ascii	"Relay_Offset_WriteCounter\000"
 3730      795F4F66 
 3730      66736574 
 3730      5F577269 
 3730      7465436F 
 3731              	.LASF13:
 3732 04d3 63686172 		.ascii	"char\000"
 3732      00
 3733              	.LASF27:
 3734 04d8 6D6F6465 		.ascii	"mode\000"
 3734      00
 3735              	.LASF45:
 3736 04dd 52656C61 		.ascii	"Relay_Offset_ReadCounter\000"
 3736      795F4F66 
 3736      66736574 
 3736      5F526561 
 3736      64436F75 
 3737              	.LASF37:
 3738 04f6 52656C61 		.ascii	"Relay_Offset_SetPWMStopOnKill\000"
 3738      795F4F66 
 3738      66736574 
 3738      5F536574 
 3738      50574D53 
 3739              	.LASF44:
 3740 0514 636F756E 		.ascii	"counterMode\000"
 3740      7465724D 
 3740      6F646500 
 3741              	.LASF31:
 3742 0520 52656C61 		.ascii	"Relay_Offset_SetOneShot\000"
 3742      795F4F66 
 3742      66736574 
 3742      5F536574 
 3742      4F6E6553 
 3743              	.LASF43:
 3744 0538 52656C61 		.ascii	"Relay_Offset_SetCounterMode\000"
 3744      795F4F66 
 3744      66736574 
 3744      5F536574 
ARM GAS  C:\Users\syhaines\AppData\Local\Temp\ccw1hiA6.s 			page 99


 3744      436F756E 
 3745              	.LASF79:
 3746 0554 52656C61 		.ascii	"Relay_Offset_initVar\000"
 3746      795F4F66 
 3746      66736574 
 3746      5F696E69 
 3746      74566172 
 3747              	.LASF57:
 3748 0569 636F6D70 		.ascii	"compareBuf\000"
 3748      61726542 
 3748      756600
 3749              	.LASF73:
 3750 0574 52656C61 		.ascii	"Relay_Offset_GetInterruptSource\000"
 3750      795F4F66 
 3750      66736574 
 3750      5F476574 
 3750      496E7465 
 3751              	.LASF46:
 3752 0594 52656C61 		.ascii	"Relay_Offset_ReadPeriod\000"
 3752      795F4F66 
 3752      66736574 
 3752      5F526561 
 3752      64506572 
 3753              	.LASF25:
 3754 05ac 656E6162 		.ascii	"enableInterrupts\000"
 3754      6C65496E 
 3754      74657272 
 3754      75707473 
 3754      00
 3755              	.LASF41:
 3756 05bd 52656C61 		.ascii	"Relay_Offset_SetPWMInvert\000"
 3756      795F4F66 
 3756      66736574 
 3756      5F536574 
 3756      50574D49 
 3757              	.LASF49:
 3758 05d7 52656C61 		.ascii	"Relay_Offset_WritePeriodBuf\000"
 3758      795F4F66 
 3758      66736574 
 3758      5F577269 
 3758      74655065 
 3759              	.LASF64:
 3760 05f3 52656C61 		.ascii	"Relay_Offset_SetStartMode\000"
 3760      795F4F66 
 3760      66736574 
 3760      5F536574 
 3760      53746172 
 3761              	.LASF72:
 3762 060d 52656C61 		.ascii	"Relay_Offset_GetInterruptSourceMasked\000"
 3762      795F4F66 
 3762      66736574 
 3762      5F476574 
 3762      496E7465 
 3763              	.LASF33:
 3764 0633 52656C61 		.ascii	"Relay_Offset_SetPWMMode\000"
 3764      795F4F66 
 3764      66736574 
ARM GAS  C:\Users\syhaines\AppData\Local\Temp\ccw1hiA6.s 			page 100


 3764      5F536574 
 3764      50574D4D 
 3765              	.LASF48:
 3766 064b 73776170 		.ascii	"swapEnable\000"
 3766      456E6162 
 3766      6C6500
 3767              	.LASF70:
 3768 0656 52656C61 		.ascii	"Relay_Offset_Start\000"
 3768      795F4F66 
 3768      66736574 
 3768      5F537461 
 3768      727400
 3769              	.LASF61:
 3770 0669 52656C61 		.ascii	"Relay_Offset_SetCaptureMode\000"
 3770      795F4F66 
 3770      66736574 
 3770      5F536574 
 3770      43617074 
 3771              	.LASF65:
 3772 0685 52656C61 		.ascii	"Relay_Offset_SetStopMode\000"
 3772      795F4F66 
 3772      66736574 
 3772      5F536574 
 3772      53746F70 
 3773              	.LASF50:
 3774 069e 70657269 		.ascii	"periodBuf\000"
 3774      6F644275 
 3774      6600
 3775              	.LASF60:
 3776 06a8 52656C61 		.ascii	"Relay_Offset_ReadCaptureBuf\000"
 3776      795F4F66 
 3776      66736574 
 3776      5F526561 
 3776      64436170 
 3777              		.ident	"GCC: (GNU Tools for ARM Embedded Processors) 4.9.3 20150303 (release) [ARM/embedded-4_9-br
