ARM GAS  C:\Users\syhaines\AppData\Local\Temp\cc7Zlivv.s 			page 1


   1              		.cpu cortex-m0
   2              		.fpu softvfp
   3              		.eabi_attribute 20, 1
   4              		.eabi_attribute 21, 1
   5              		.eabi_attribute 23, 3
   6              		.eabi_attribute 24, 1
   7              		.eabi_attribute 25, 1
   8              		.eabi_attribute 26, 1
   9              		.eabi_attribute 30, 4
  10              		.eabi_attribute 34, 0
  11              		.eabi_attribute 18, 4
  12              		.code	16
  13              		.file	"Relay_Fire_ISR.c"
  14              		.text
  15              	.Ltext0:
  16              		.cfi_sections	.debug_frame
  17              		.section	.text.Relay_Fire_ISR_Interrupt,"ax",%progbits
  18              		.align	1
  19              		.global	Relay_Fire_ISR_Interrupt
  20              		.code	16
  21              		.thumb_func
  22              		.type	Relay_Fire_ISR_Interrupt, %function
  23              	Relay_Fire_ISR_Interrupt:
  24              	.LFB36:
  25              		.file 1 ".\\Generated_Source\\PSoC4\\Relay_Fire_ISR.c"
   1:.\Generated_Source\PSoC4/Relay_Fire_ISR.c **** /*******************************************************************************
   2:.\Generated_Source\PSoC4/Relay_Fire_ISR.c **** * File Name: Relay_Fire_ISR.c  
   3:.\Generated_Source\PSoC4/Relay_Fire_ISR.c **** * Version 1.70
   4:.\Generated_Source\PSoC4/Relay_Fire_ISR.c **** *
   5:.\Generated_Source\PSoC4/Relay_Fire_ISR.c **** *  Description:
   6:.\Generated_Source\PSoC4/Relay_Fire_ISR.c **** *   API for controlling the state of an interrupt.
   7:.\Generated_Source\PSoC4/Relay_Fire_ISR.c **** *
   8:.\Generated_Source\PSoC4/Relay_Fire_ISR.c **** *
   9:.\Generated_Source\PSoC4/Relay_Fire_ISR.c **** *  Note:
  10:.\Generated_Source\PSoC4/Relay_Fire_ISR.c **** *
  11:.\Generated_Source\PSoC4/Relay_Fire_ISR.c **** ********************************************************************************
  12:.\Generated_Source\PSoC4/Relay_Fire_ISR.c **** * Copyright 2008-2015, Cypress Semiconductor Corporation.  All rights reserved.
  13:.\Generated_Source\PSoC4/Relay_Fire_ISR.c **** * You may use this file only in accordance with the license, terms, conditions, 
  14:.\Generated_Source\PSoC4/Relay_Fire_ISR.c **** * disclaimers, and limitations in the end user license agreement accompanying 
  15:.\Generated_Source\PSoC4/Relay_Fire_ISR.c **** * the software package with which this file was provided.
  16:.\Generated_Source\PSoC4/Relay_Fire_ISR.c **** *******************************************************************************/
  17:.\Generated_Source\PSoC4/Relay_Fire_ISR.c **** 
  18:.\Generated_Source\PSoC4/Relay_Fire_ISR.c **** 
  19:.\Generated_Source\PSoC4/Relay_Fire_ISR.c **** #include <cydevice_trm.h>
  20:.\Generated_Source\PSoC4/Relay_Fire_ISR.c **** #include <CyLib.h>
  21:.\Generated_Source\PSoC4/Relay_Fire_ISR.c **** #include <Relay_Fire_ISR.h>
  22:.\Generated_Source\PSoC4/Relay_Fire_ISR.c **** 
  23:.\Generated_Source\PSoC4/Relay_Fire_ISR.c **** 
  24:.\Generated_Source\PSoC4/Relay_Fire_ISR.c **** #if !defined(Relay_Fire_ISR__REMOVED) /* Check for removal by optimization */
  25:.\Generated_Source\PSoC4/Relay_Fire_ISR.c **** 
  26:.\Generated_Source\PSoC4/Relay_Fire_ISR.c **** /*******************************************************************************
  27:.\Generated_Source\PSoC4/Relay_Fire_ISR.c **** *  Place your includes, defines and code here 
  28:.\Generated_Source\PSoC4/Relay_Fire_ISR.c **** ********************************************************************************/
  29:.\Generated_Source\PSoC4/Relay_Fire_ISR.c **** /* `#START Relay_Fire_ISR_intc` */
  30:.\Generated_Source\PSoC4/Relay_Fire_ISR.c **** #include <project.h>
  31:.\Generated_Source\PSoC4/Relay_Fire_ISR.c **** #include <interrupts.h>
  32:.\Generated_Source\PSoC4/Relay_Fire_ISR.c **** /* `#END` */
ARM GAS  C:\Users\syhaines\AppData\Local\Temp\cc7Zlivv.s 			page 2


  33:.\Generated_Source\PSoC4/Relay_Fire_ISR.c **** 
  34:.\Generated_Source\PSoC4/Relay_Fire_ISR.c **** extern cyisraddress CyRamVectors[CYINT_IRQ_BASE + CY_NUM_INTERRUPTS];
  35:.\Generated_Source\PSoC4/Relay_Fire_ISR.c **** 
  36:.\Generated_Source\PSoC4/Relay_Fire_ISR.c **** /* Declared in startup, used to set unused interrupts to. */
  37:.\Generated_Source\PSoC4/Relay_Fire_ISR.c **** CY_ISR_PROTO(IntDefaultHandler);
  38:.\Generated_Source\PSoC4/Relay_Fire_ISR.c **** 
  39:.\Generated_Source\PSoC4/Relay_Fire_ISR.c **** 
  40:.\Generated_Source\PSoC4/Relay_Fire_ISR.c **** /*******************************************************************************
  41:.\Generated_Source\PSoC4/Relay_Fire_ISR.c **** * Function Name: Relay_Fire_ISR_Start
  42:.\Generated_Source\PSoC4/Relay_Fire_ISR.c **** ********************************************************************************
  43:.\Generated_Source\PSoC4/Relay_Fire_ISR.c **** *
  44:.\Generated_Source\PSoC4/Relay_Fire_ISR.c **** * Summary:
  45:.\Generated_Source\PSoC4/Relay_Fire_ISR.c **** *  Set up the interrupt and enable it. This function disables the interrupt, 
  46:.\Generated_Source\PSoC4/Relay_Fire_ISR.c **** *  sets the default interrupt vector, sets the priority from the value in the
  47:.\Generated_Source\PSoC4/Relay_Fire_ISR.c **** *  Design Wide Resources Interrupt Editor, then enables the interrupt to the 
  48:.\Generated_Source\PSoC4/Relay_Fire_ISR.c **** *  interrupt controller.
  49:.\Generated_Source\PSoC4/Relay_Fire_ISR.c **** *
  50:.\Generated_Source\PSoC4/Relay_Fire_ISR.c **** * Parameters:  
  51:.\Generated_Source\PSoC4/Relay_Fire_ISR.c **** *   None
  52:.\Generated_Source\PSoC4/Relay_Fire_ISR.c **** *
  53:.\Generated_Source\PSoC4/Relay_Fire_ISR.c **** * Return:
  54:.\Generated_Source\PSoC4/Relay_Fire_ISR.c **** *   None
  55:.\Generated_Source\PSoC4/Relay_Fire_ISR.c **** *
  56:.\Generated_Source\PSoC4/Relay_Fire_ISR.c **** *******************************************************************************/
  57:.\Generated_Source\PSoC4/Relay_Fire_ISR.c **** void Relay_Fire_ISR_Start(void)
  58:.\Generated_Source\PSoC4/Relay_Fire_ISR.c **** {
  59:.\Generated_Source\PSoC4/Relay_Fire_ISR.c ****     /* For all we know the interrupt is active. */
  60:.\Generated_Source\PSoC4/Relay_Fire_ISR.c ****     Relay_Fire_ISR_Disable();
  61:.\Generated_Source\PSoC4/Relay_Fire_ISR.c **** 
  62:.\Generated_Source\PSoC4/Relay_Fire_ISR.c ****     /* Set the ISR to point to the Relay_Fire_ISR Interrupt. */
  63:.\Generated_Source\PSoC4/Relay_Fire_ISR.c ****     Relay_Fire_ISR_SetVector(&Relay_Fire_ISR_Interrupt);
  64:.\Generated_Source\PSoC4/Relay_Fire_ISR.c **** 
  65:.\Generated_Source\PSoC4/Relay_Fire_ISR.c ****     /* Set the priority. */
  66:.\Generated_Source\PSoC4/Relay_Fire_ISR.c ****     Relay_Fire_ISR_SetPriority((uint8)Relay_Fire_ISR_INTC_PRIOR_NUMBER);
  67:.\Generated_Source\PSoC4/Relay_Fire_ISR.c **** 
  68:.\Generated_Source\PSoC4/Relay_Fire_ISR.c ****     /* Enable it. */
  69:.\Generated_Source\PSoC4/Relay_Fire_ISR.c ****     Relay_Fire_ISR_Enable();
  70:.\Generated_Source\PSoC4/Relay_Fire_ISR.c **** }
  71:.\Generated_Source\PSoC4/Relay_Fire_ISR.c **** 
  72:.\Generated_Source\PSoC4/Relay_Fire_ISR.c **** 
  73:.\Generated_Source\PSoC4/Relay_Fire_ISR.c **** /*******************************************************************************
  74:.\Generated_Source\PSoC4/Relay_Fire_ISR.c **** * Function Name: Relay_Fire_ISR_StartEx
  75:.\Generated_Source\PSoC4/Relay_Fire_ISR.c **** ********************************************************************************
  76:.\Generated_Source\PSoC4/Relay_Fire_ISR.c **** *
  77:.\Generated_Source\PSoC4/Relay_Fire_ISR.c **** * Summary:
  78:.\Generated_Source\PSoC4/Relay_Fire_ISR.c **** *  Sets up the interrupt and enables it. This function disables the interrupt,
  79:.\Generated_Source\PSoC4/Relay_Fire_ISR.c **** *  sets the interrupt vector based on the address passed in, sets the priority 
  80:.\Generated_Source\PSoC4/Relay_Fire_ISR.c **** *  from the value in the Design Wide Resources Interrupt Editor, then enables 
  81:.\Generated_Source\PSoC4/Relay_Fire_ISR.c **** *  the interrupt to the interrupt controller.
  82:.\Generated_Source\PSoC4/Relay_Fire_ISR.c **** *  
  83:.\Generated_Source\PSoC4/Relay_Fire_ISR.c **** *  When defining ISR functions, the CY_ISR and CY_ISR_PROTO macros should be 
  84:.\Generated_Source\PSoC4/Relay_Fire_ISR.c **** *  used to provide consistent definition across compilers:
  85:.\Generated_Source\PSoC4/Relay_Fire_ISR.c **** *  
  86:.\Generated_Source\PSoC4/Relay_Fire_ISR.c **** *  Function definition example:
  87:.\Generated_Source\PSoC4/Relay_Fire_ISR.c **** *   CY_ISR(MyISR)
  88:.\Generated_Source\PSoC4/Relay_Fire_ISR.c **** *   {
  89:.\Generated_Source\PSoC4/Relay_Fire_ISR.c **** *   }
ARM GAS  C:\Users\syhaines\AppData\Local\Temp\cc7Zlivv.s 			page 3


  90:.\Generated_Source\PSoC4/Relay_Fire_ISR.c **** *   Function prototype example:
  91:.\Generated_Source\PSoC4/Relay_Fire_ISR.c **** *   CY_ISR_PROTO(MyISR);
  92:.\Generated_Source\PSoC4/Relay_Fire_ISR.c **** *
  93:.\Generated_Source\PSoC4/Relay_Fire_ISR.c **** * Parameters:  
  94:.\Generated_Source\PSoC4/Relay_Fire_ISR.c **** *   address: Address of the ISR to set in the interrupt vector table.
  95:.\Generated_Source\PSoC4/Relay_Fire_ISR.c **** *
  96:.\Generated_Source\PSoC4/Relay_Fire_ISR.c **** * Return:
  97:.\Generated_Source\PSoC4/Relay_Fire_ISR.c **** *   None
  98:.\Generated_Source\PSoC4/Relay_Fire_ISR.c **** *
  99:.\Generated_Source\PSoC4/Relay_Fire_ISR.c **** *******************************************************************************/
 100:.\Generated_Source\PSoC4/Relay_Fire_ISR.c **** void Relay_Fire_ISR_StartEx(cyisraddress address)
 101:.\Generated_Source\PSoC4/Relay_Fire_ISR.c **** {
 102:.\Generated_Source\PSoC4/Relay_Fire_ISR.c ****     /* For all we know the interrupt is active. */
 103:.\Generated_Source\PSoC4/Relay_Fire_ISR.c ****     Relay_Fire_ISR_Disable();
 104:.\Generated_Source\PSoC4/Relay_Fire_ISR.c **** 
 105:.\Generated_Source\PSoC4/Relay_Fire_ISR.c ****     /* Set the ISR to point to the Relay_Fire_ISR Interrupt. */
 106:.\Generated_Source\PSoC4/Relay_Fire_ISR.c ****     Relay_Fire_ISR_SetVector(address);
 107:.\Generated_Source\PSoC4/Relay_Fire_ISR.c **** 
 108:.\Generated_Source\PSoC4/Relay_Fire_ISR.c ****     /* Set the priority. */
 109:.\Generated_Source\PSoC4/Relay_Fire_ISR.c ****     Relay_Fire_ISR_SetPriority((uint8)Relay_Fire_ISR_INTC_PRIOR_NUMBER);
 110:.\Generated_Source\PSoC4/Relay_Fire_ISR.c **** 
 111:.\Generated_Source\PSoC4/Relay_Fire_ISR.c ****     /* Enable it. */
 112:.\Generated_Source\PSoC4/Relay_Fire_ISR.c ****     Relay_Fire_ISR_Enable();
 113:.\Generated_Source\PSoC4/Relay_Fire_ISR.c **** }
 114:.\Generated_Source\PSoC4/Relay_Fire_ISR.c **** 
 115:.\Generated_Source\PSoC4/Relay_Fire_ISR.c **** 
 116:.\Generated_Source\PSoC4/Relay_Fire_ISR.c **** /*******************************************************************************
 117:.\Generated_Source\PSoC4/Relay_Fire_ISR.c **** * Function Name: Relay_Fire_ISR_Stop
 118:.\Generated_Source\PSoC4/Relay_Fire_ISR.c **** ********************************************************************************
 119:.\Generated_Source\PSoC4/Relay_Fire_ISR.c **** *
 120:.\Generated_Source\PSoC4/Relay_Fire_ISR.c **** * Summary:
 121:.\Generated_Source\PSoC4/Relay_Fire_ISR.c **** *   Disables and removes the interrupt.
 122:.\Generated_Source\PSoC4/Relay_Fire_ISR.c **** *
 123:.\Generated_Source\PSoC4/Relay_Fire_ISR.c **** * Parameters:  
 124:.\Generated_Source\PSoC4/Relay_Fire_ISR.c **** *   None
 125:.\Generated_Source\PSoC4/Relay_Fire_ISR.c **** *
 126:.\Generated_Source\PSoC4/Relay_Fire_ISR.c **** * Return:
 127:.\Generated_Source\PSoC4/Relay_Fire_ISR.c **** *   None
 128:.\Generated_Source\PSoC4/Relay_Fire_ISR.c **** *
 129:.\Generated_Source\PSoC4/Relay_Fire_ISR.c **** *******************************************************************************/
 130:.\Generated_Source\PSoC4/Relay_Fire_ISR.c **** void Relay_Fire_ISR_Stop(void)
 131:.\Generated_Source\PSoC4/Relay_Fire_ISR.c **** {
 132:.\Generated_Source\PSoC4/Relay_Fire_ISR.c ****     /* Disable this interrupt. */
 133:.\Generated_Source\PSoC4/Relay_Fire_ISR.c ****     Relay_Fire_ISR_Disable();
 134:.\Generated_Source\PSoC4/Relay_Fire_ISR.c **** 
 135:.\Generated_Source\PSoC4/Relay_Fire_ISR.c ****     /* Set the ISR to point to the passive one. */
 136:.\Generated_Source\PSoC4/Relay_Fire_ISR.c ****     Relay_Fire_ISR_SetVector(&IntDefaultHandler);
 137:.\Generated_Source\PSoC4/Relay_Fire_ISR.c **** }
 138:.\Generated_Source\PSoC4/Relay_Fire_ISR.c **** 
 139:.\Generated_Source\PSoC4/Relay_Fire_ISR.c **** 
 140:.\Generated_Source\PSoC4/Relay_Fire_ISR.c **** /*******************************************************************************
 141:.\Generated_Source\PSoC4/Relay_Fire_ISR.c **** * Function Name: Relay_Fire_ISR_Interrupt
 142:.\Generated_Source\PSoC4/Relay_Fire_ISR.c **** ********************************************************************************
 143:.\Generated_Source\PSoC4/Relay_Fire_ISR.c **** *
 144:.\Generated_Source\PSoC4/Relay_Fire_ISR.c **** * Summary:
 145:.\Generated_Source\PSoC4/Relay_Fire_ISR.c **** *   The default Interrupt Service Routine for Relay_Fire_ISR.
 146:.\Generated_Source\PSoC4/Relay_Fire_ISR.c **** *
ARM GAS  C:\Users\syhaines\AppData\Local\Temp\cc7Zlivv.s 			page 4


 147:.\Generated_Source\PSoC4/Relay_Fire_ISR.c **** *   Add custom code between the START and END comments to keep the next version
 148:.\Generated_Source\PSoC4/Relay_Fire_ISR.c **** *   of this file from over-writing your code.
 149:.\Generated_Source\PSoC4/Relay_Fire_ISR.c **** *
 150:.\Generated_Source\PSoC4/Relay_Fire_ISR.c **** *   Note You may use either the default ISR by using this API, or you may define
 151:.\Generated_Source\PSoC4/Relay_Fire_ISR.c **** *   your own separate ISR through ISR_StartEx().
 152:.\Generated_Source\PSoC4/Relay_Fire_ISR.c **** *
 153:.\Generated_Source\PSoC4/Relay_Fire_ISR.c **** * Parameters:  
 154:.\Generated_Source\PSoC4/Relay_Fire_ISR.c **** *   None
 155:.\Generated_Source\PSoC4/Relay_Fire_ISR.c **** *
 156:.\Generated_Source\PSoC4/Relay_Fire_ISR.c **** * Return:
 157:.\Generated_Source\PSoC4/Relay_Fire_ISR.c **** *   None
 158:.\Generated_Source\PSoC4/Relay_Fire_ISR.c **** *
 159:.\Generated_Source\PSoC4/Relay_Fire_ISR.c **** *******************************************************************************/
 160:.\Generated_Source\PSoC4/Relay_Fire_ISR.c **** CY_ISR(Relay_Fire_ISR_Interrupt)
 161:.\Generated_Source\PSoC4/Relay_Fire_ISR.c **** {
  26              		.loc 1 161 0
  27              		.cfi_startproc
  28 0000 08B5     		push	{r3, lr}
  29              		.cfi_def_cfa_offset 8
  30              		.cfi_offset 3, -8
  31              		.cfi_offset 14, -4
 162:.\Generated_Source\PSoC4/Relay_Fire_ISR.c ****     #ifdef Relay_Fire_ISR_INTERRUPT_INTERRUPT_CALLBACK
 163:.\Generated_Source\PSoC4/Relay_Fire_ISR.c ****         Relay_Fire_ISR_Interrupt_InterruptCallback();
 164:.\Generated_Source\PSoC4/Relay_Fire_ISR.c ****     #endif /* Relay_Fire_ISR_INTERRUPT_INTERRUPT_CALLBACK */ 
 165:.\Generated_Source\PSoC4/Relay_Fire_ISR.c **** 
 166:.\Generated_Source\PSoC4/Relay_Fire_ISR.c ****     /*  Place your Interrupt code here. */
 167:.\Generated_Source\PSoC4/Relay_Fire_ISR.c ****     /* `#START Relay_Fire_ISR_Interrupt` */
 168:.\Generated_Source\PSoC4/Relay_Fire_ISR.c ****     Relay_Offset_timer();
  32              		.loc 1 168 0
  33 0002 FFF7FEFF 		bl	Relay_Offset_timer
  34              	.LVL0:
 169:.\Generated_Source\PSoC4/Relay_Fire_ISR.c ****     /* `#END` */
 170:.\Generated_Source\PSoC4/Relay_Fire_ISR.c **** }
  35              		.loc 1 170 0
  36              		@ sp needed
  37 0006 08BD     		pop	{r3, pc}
  38              		.cfi_endproc
  39              	.LFE36:
  40              		.size	Relay_Fire_ISR_Interrupt, .-Relay_Fire_ISR_Interrupt
  41              		.section	.text.Relay_Fire_ISR_Stop,"ax",%progbits
  42              		.align	1
  43              		.global	Relay_Fire_ISR_Stop
  44              		.code	16
  45              		.thumb_func
  46              		.type	Relay_Fire_ISR_Stop, %function
  47              	Relay_Fire_ISR_Stop:
  48              	.LFB35:
 131:.\Generated_Source\PSoC4/Relay_Fire_ISR.c ****     /* Disable this interrupt. */
  49              		.loc 1 131 0
  50              		.cfi_startproc
  51              	.LBB18:
  52              	.LBB19:
 171:.\Generated_Source\PSoC4/Relay_Fire_ISR.c **** 
 172:.\Generated_Source\PSoC4/Relay_Fire_ISR.c **** 
 173:.\Generated_Source\PSoC4/Relay_Fire_ISR.c **** /*******************************************************************************
 174:.\Generated_Source\PSoC4/Relay_Fire_ISR.c **** * Function Name: Relay_Fire_ISR_SetVector
 175:.\Generated_Source\PSoC4/Relay_Fire_ISR.c **** ********************************************************************************
ARM GAS  C:\Users\syhaines\AppData\Local\Temp\cc7Zlivv.s 			page 5


 176:.\Generated_Source\PSoC4/Relay_Fire_ISR.c **** *
 177:.\Generated_Source\PSoC4/Relay_Fire_ISR.c **** * Summary:
 178:.\Generated_Source\PSoC4/Relay_Fire_ISR.c **** *   Change the ISR vector for the Interrupt. Note calling Relay_Fire_ISR_Start
 179:.\Generated_Source\PSoC4/Relay_Fire_ISR.c **** *   will override any effect this method would have had. To set the vector 
 180:.\Generated_Source\PSoC4/Relay_Fire_ISR.c **** *   before the component has been started use Relay_Fire_ISR_StartEx instead.
 181:.\Generated_Source\PSoC4/Relay_Fire_ISR.c **** * 
 182:.\Generated_Source\PSoC4/Relay_Fire_ISR.c **** *   When defining ISR functions, the CY_ISR and CY_ISR_PROTO macros should be 
 183:.\Generated_Source\PSoC4/Relay_Fire_ISR.c **** *   used to provide consistent definition across compilers:
 184:.\Generated_Source\PSoC4/Relay_Fire_ISR.c **** *
 185:.\Generated_Source\PSoC4/Relay_Fire_ISR.c **** *   Function definition example:
 186:.\Generated_Source\PSoC4/Relay_Fire_ISR.c **** *   CY_ISR(MyISR)
 187:.\Generated_Source\PSoC4/Relay_Fire_ISR.c **** *   {
 188:.\Generated_Source\PSoC4/Relay_Fire_ISR.c **** *   }
 189:.\Generated_Source\PSoC4/Relay_Fire_ISR.c **** *
 190:.\Generated_Source\PSoC4/Relay_Fire_ISR.c **** *   Function prototype example:
 191:.\Generated_Source\PSoC4/Relay_Fire_ISR.c **** *     CY_ISR_PROTO(MyISR);
 192:.\Generated_Source\PSoC4/Relay_Fire_ISR.c **** *
 193:.\Generated_Source\PSoC4/Relay_Fire_ISR.c **** * Parameters:
 194:.\Generated_Source\PSoC4/Relay_Fire_ISR.c **** *   address: Address of the ISR to set in the interrupt vector table.
 195:.\Generated_Source\PSoC4/Relay_Fire_ISR.c **** *
 196:.\Generated_Source\PSoC4/Relay_Fire_ISR.c **** * Return:
 197:.\Generated_Source\PSoC4/Relay_Fire_ISR.c **** *   None
 198:.\Generated_Source\PSoC4/Relay_Fire_ISR.c **** *
 199:.\Generated_Source\PSoC4/Relay_Fire_ISR.c **** *******************************************************************************/
 200:.\Generated_Source\PSoC4/Relay_Fire_ISR.c **** void Relay_Fire_ISR_SetVector(cyisraddress address)
 201:.\Generated_Source\PSoC4/Relay_Fire_ISR.c **** {
 202:.\Generated_Source\PSoC4/Relay_Fire_ISR.c ****     CyRamVectors[CYINT_IRQ_BASE + Relay_Fire_ISR__INTC_NUMBER] = address;
 203:.\Generated_Source\PSoC4/Relay_Fire_ISR.c **** }
 204:.\Generated_Source\PSoC4/Relay_Fire_ISR.c **** 
 205:.\Generated_Source\PSoC4/Relay_Fire_ISR.c **** 
 206:.\Generated_Source\PSoC4/Relay_Fire_ISR.c **** /*******************************************************************************
 207:.\Generated_Source\PSoC4/Relay_Fire_ISR.c **** * Function Name: Relay_Fire_ISR_GetVector
 208:.\Generated_Source\PSoC4/Relay_Fire_ISR.c **** ********************************************************************************
 209:.\Generated_Source\PSoC4/Relay_Fire_ISR.c **** *
 210:.\Generated_Source\PSoC4/Relay_Fire_ISR.c **** * Summary:
 211:.\Generated_Source\PSoC4/Relay_Fire_ISR.c **** *   Gets the "address" of the current ISR vector for the Interrupt.
 212:.\Generated_Source\PSoC4/Relay_Fire_ISR.c **** *
 213:.\Generated_Source\PSoC4/Relay_Fire_ISR.c **** * Parameters:
 214:.\Generated_Source\PSoC4/Relay_Fire_ISR.c **** *   None
 215:.\Generated_Source\PSoC4/Relay_Fire_ISR.c **** *
 216:.\Generated_Source\PSoC4/Relay_Fire_ISR.c **** * Return:
 217:.\Generated_Source\PSoC4/Relay_Fire_ISR.c **** *   Address of the ISR in the interrupt vector table.
 218:.\Generated_Source\PSoC4/Relay_Fire_ISR.c **** *
 219:.\Generated_Source\PSoC4/Relay_Fire_ISR.c **** *******************************************************************************/
 220:.\Generated_Source\PSoC4/Relay_Fire_ISR.c **** cyisraddress Relay_Fire_ISR_GetVector(void)
 221:.\Generated_Source\PSoC4/Relay_Fire_ISR.c **** {
 222:.\Generated_Source\PSoC4/Relay_Fire_ISR.c ****     return CyRamVectors[CYINT_IRQ_BASE + Relay_Fire_ISR__INTC_NUMBER];
 223:.\Generated_Source\PSoC4/Relay_Fire_ISR.c **** }
 224:.\Generated_Source\PSoC4/Relay_Fire_ISR.c **** 
 225:.\Generated_Source\PSoC4/Relay_Fire_ISR.c **** 
 226:.\Generated_Source\PSoC4/Relay_Fire_ISR.c **** /*******************************************************************************
 227:.\Generated_Source\PSoC4/Relay_Fire_ISR.c **** * Function Name: Relay_Fire_ISR_SetPriority
 228:.\Generated_Source\PSoC4/Relay_Fire_ISR.c **** ********************************************************************************
 229:.\Generated_Source\PSoC4/Relay_Fire_ISR.c **** *
 230:.\Generated_Source\PSoC4/Relay_Fire_ISR.c **** * Summary:
 231:.\Generated_Source\PSoC4/Relay_Fire_ISR.c **** *   Sets the Priority of the Interrupt. 
 232:.\Generated_Source\PSoC4/Relay_Fire_ISR.c **** *
ARM GAS  C:\Users\syhaines\AppData\Local\Temp\cc7Zlivv.s 			page 6


 233:.\Generated_Source\PSoC4/Relay_Fire_ISR.c **** *   Note calling Relay_Fire_ISR_Start or Relay_Fire_ISR_StartEx will 
 234:.\Generated_Source\PSoC4/Relay_Fire_ISR.c **** *   override any effect this API would have had. This API should only be called
 235:.\Generated_Source\PSoC4/Relay_Fire_ISR.c **** *   after Relay_Fire_ISR_Start or Relay_Fire_ISR_StartEx has been called. 
 236:.\Generated_Source\PSoC4/Relay_Fire_ISR.c **** *   To set the initial priority for the component, use the Design-Wide Resources
 237:.\Generated_Source\PSoC4/Relay_Fire_ISR.c **** *   Interrupt Editor.
 238:.\Generated_Source\PSoC4/Relay_Fire_ISR.c **** *
 239:.\Generated_Source\PSoC4/Relay_Fire_ISR.c **** *   Note This API has no effect on Non-maskable interrupt NMI).
 240:.\Generated_Source\PSoC4/Relay_Fire_ISR.c **** *
 241:.\Generated_Source\PSoC4/Relay_Fire_ISR.c **** * Parameters:
 242:.\Generated_Source\PSoC4/Relay_Fire_ISR.c **** *   priority: Priority of the interrupt, 0 being the highest priority
 243:.\Generated_Source\PSoC4/Relay_Fire_ISR.c **** *             PSoC 3 and PSoC 5LP: Priority is from 0 to 7.
 244:.\Generated_Source\PSoC4/Relay_Fire_ISR.c **** *             PSoC 4: Priority is from 0 to 3.
 245:.\Generated_Source\PSoC4/Relay_Fire_ISR.c **** *
 246:.\Generated_Source\PSoC4/Relay_Fire_ISR.c **** * Return:
 247:.\Generated_Source\PSoC4/Relay_Fire_ISR.c **** *   None
 248:.\Generated_Source\PSoC4/Relay_Fire_ISR.c **** *
 249:.\Generated_Source\PSoC4/Relay_Fire_ISR.c **** *******************************************************************************/
 250:.\Generated_Source\PSoC4/Relay_Fire_ISR.c **** void Relay_Fire_ISR_SetPriority(uint8 priority)
 251:.\Generated_Source\PSoC4/Relay_Fire_ISR.c **** {
 252:.\Generated_Source\PSoC4/Relay_Fire_ISR.c **** 	uint8 interruptState;
 253:.\Generated_Source\PSoC4/Relay_Fire_ISR.c ****     uint32 priorityOffset = ((Relay_Fire_ISR__INTC_NUMBER % 4u) * 8u) + 6u;
 254:.\Generated_Source\PSoC4/Relay_Fire_ISR.c ****     
 255:.\Generated_Source\PSoC4/Relay_Fire_ISR.c **** 	interruptState = CyEnterCriticalSection();
 256:.\Generated_Source\PSoC4/Relay_Fire_ISR.c ****     *Relay_Fire_ISR_INTC_PRIOR = (*Relay_Fire_ISR_INTC_PRIOR & (uint32)(~Relay_Fire_ISR__INTC_PRIOR
 257:.\Generated_Source\PSoC4/Relay_Fire_ISR.c ****                                     ((uint32)priority << priorityOffset);
 258:.\Generated_Source\PSoC4/Relay_Fire_ISR.c **** 	CyExitCriticalSection(interruptState);
 259:.\Generated_Source\PSoC4/Relay_Fire_ISR.c **** }
 260:.\Generated_Source\PSoC4/Relay_Fire_ISR.c **** 
 261:.\Generated_Source\PSoC4/Relay_Fire_ISR.c **** 
 262:.\Generated_Source\PSoC4/Relay_Fire_ISR.c **** /*******************************************************************************
 263:.\Generated_Source\PSoC4/Relay_Fire_ISR.c **** * Function Name: Relay_Fire_ISR_GetPriority
 264:.\Generated_Source\PSoC4/Relay_Fire_ISR.c **** ********************************************************************************
 265:.\Generated_Source\PSoC4/Relay_Fire_ISR.c **** *
 266:.\Generated_Source\PSoC4/Relay_Fire_ISR.c **** * Summary:
 267:.\Generated_Source\PSoC4/Relay_Fire_ISR.c **** *   Gets the Priority of the Interrupt.
 268:.\Generated_Source\PSoC4/Relay_Fire_ISR.c **** *
 269:.\Generated_Source\PSoC4/Relay_Fire_ISR.c **** * Parameters:
 270:.\Generated_Source\PSoC4/Relay_Fire_ISR.c **** *   None
 271:.\Generated_Source\PSoC4/Relay_Fire_ISR.c **** *
 272:.\Generated_Source\PSoC4/Relay_Fire_ISR.c **** * Return:
 273:.\Generated_Source\PSoC4/Relay_Fire_ISR.c **** *   Priority of the interrupt, 0 being the highest priority
 274:.\Generated_Source\PSoC4/Relay_Fire_ISR.c **** *    PSoC 3 and PSoC 5LP: Priority is from 0 to 7.
 275:.\Generated_Source\PSoC4/Relay_Fire_ISR.c **** *    PSoC 4: Priority is from 0 to 3.
 276:.\Generated_Source\PSoC4/Relay_Fire_ISR.c **** *
 277:.\Generated_Source\PSoC4/Relay_Fire_ISR.c **** *******************************************************************************/
 278:.\Generated_Source\PSoC4/Relay_Fire_ISR.c **** uint8 Relay_Fire_ISR_GetPriority(void)
 279:.\Generated_Source\PSoC4/Relay_Fire_ISR.c **** {
 280:.\Generated_Source\PSoC4/Relay_Fire_ISR.c ****     uint32 priority;
 281:.\Generated_Source\PSoC4/Relay_Fire_ISR.c **** 	uint32 priorityOffset = ((Relay_Fire_ISR__INTC_NUMBER % 4u) * 8u) + 6u;
 282:.\Generated_Source\PSoC4/Relay_Fire_ISR.c **** 
 283:.\Generated_Source\PSoC4/Relay_Fire_ISR.c ****     priority = (*Relay_Fire_ISR_INTC_PRIOR & Relay_Fire_ISR__INTC_PRIOR_MASK) >> priorityOffset;
 284:.\Generated_Source\PSoC4/Relay_Fire_ISR.c **** 
 285:.\Generated_Source\PSoC4/Relay_Fire_ISR.c ****     return (uint8)priority;
 286:.\Generated_Source\PSoC4/Relay_Fire_ISR.c **** }
 287:.\Generated_Source\PSoC4/Relay_Fire_ISR.c **** 
 288:.\Generated_Source\PSoC4/Relay_Fire_ISR.c **** 
 289:.\Generated_Source\PSoC4/Relay_Fire_ISR.c **** /*******************************************************************************
ARM GAS  C:\Users\syhaines\AppData\Local\Temp\cc7Zlivv.s 			page 7


 290:.\Generated_Source\PSoC4/Relay_Fire_ISR.c **** * Function Name: Relay_Fire_ISR_Enable
 291:.\Generated_Source\PSoC4/Relay_Fire_ISR.c **** ********************************************************************************
 292:.\Generated_Source\PSoC4/Relay_Fire_ISR.c **** *
 293:.\Generated_Source\PSoC4/Relay_Fire_ISR.c **** * Summary:
 294:.\Generated_Source\PSoC4/Relay_Fire_ISR.c **** *   Enables the interrupt to the interrupt controller. Do not call this function
 295:.\Generated_Source\PSoC4/Relay_Fire_ISR.c **** *   unless ISR_Start() has been called or the functionality of the ISR_Start() 
 296:.\Generated_Source\PSoC4/Relay_Fire_ISR.c **** *   function, which sets the vector and the priority, has been called.
 297:.\Generated_Source\PSoC4/Relay_Fire_ISR.c **** *
 298:.\Generated_Source\PSoC4/Relay_Fire_ISR.c **** * Parameters:
 299:.\Generated_Source\PSoC4/Relay_Fire_ISR.c **** *   None
 300:.\Generated_Source\PSoC4/Relay_Fire_ISR.c **** *
 301:.\Generated_Source\PSoC4/Relay_Fire_ISR.c **** * Return:
 302:.\Generated_Source\PSoC4/Relay_Fire_ISR.c **** *   None
 303:.\Generated_Source\PSoC4/Relay_Fire_ISR.c **** *
 304:.\Generated_Source\PSoC4/Relay_Fire_ISR.c **** *******************************************************************************/
 305:.\Generated_Source\PSoC4/Relay_Fire_ISR.c **** void Relay_Fire_ISR_Enable(void)
 306:.\Generated_Source\PSoC4/Relay_Fire_ISR.c **** {
 307:.\Generated_Source\PSoC4/Relay_Fire_ISR.c ****     /* Enable the general interrupt. */
 308:.\Generated_Source\PSoC4/Relay_Fire_ISR.c ****     *Relay_Fire_ISR_INTC_SET_EN = Relay_Fire_ISR__INTC_MASK;
 309:.\Generated_Source\PSoC4/Relay_Fire_ISR.c **** }
 310:.\Generated_Source\PSoC4/Relay_Fire_ISR.c **** 
 311:.\Generated_Source\PSoC4/Relay_Fire_ISR.c **** 
 312:.\Generated_Source\PSoC4/Relay_Fire_ISR.c **** /*******************************************************************************
 313:.\Generated_Source\PSoC4/Relay_Fire_ISR.c **** * Function Name: Relay_Fire_ISR_GetState
 314:.\Generated_Source\PSoC4/Relay_Fire_ISR.c **** ********************************************************************************
 315:.\Generated_Source\PSoC4/Relay_Fire_ISR.c **** *
 316:.\Generated_Source\PSoC4/Relay_Fire_ISR.c **** * Summary:
 317:.\Generated_Source\PSoC4/Relay_Fire_ISR.c **** *   Gets the state (enabled, disabled) of the Interrupt.
 318:.\Generated_Source\PSoC4/Relay_Fire_ISR.c **** *
 319:.\Generated_Source\PSoC4/Relay_Fire_ISR.c **** * Parameters:
 320:.\Generated_Source\PSoC4/Relay_Fire_ISR.c **** *   None
 321:.\Generated_Source\PSoC4/Relay_Fire_ISR.c **** *
 322:.\Generated_Source\PSoC4/Relay_Fire_ISR.c **** * Return:
 323:.\Generated_Source\PSoC4/Relay_Fire_ISR.c **** *   1 if enabled, 0 if disabled.
 324:.\Generated_Source\PSoC4/Relay_Fire_ISR.c **** *
 325:.\Generated_Source\PSoC4/Relay_Fire_ISR.c **** *******************************************************************************/
 326:.\Generated_Source\PSoC4/Relay_Fire_ISR.c **** uint8 Relay_Fire_ISR_GetState(void)
 327:.\Generated_Source\PSoC4/Relay_Fire_ISR.c **** {
 328:.\Generated_Source\PSoC4/Relay_Fire_ISR.c ****     /* Get the state of the general interrupt. */
 329:.\Generated_Source\PSoC4/Relay_Fire_ISR.c ****     return ((*Relay_Fire_ISR_INTC_SET_EN & (uint32)Relay_Fire_ISR__INTC_MASK) != 0u) ? 1u:0u;
 330:.\Generated_Source\PSoC4/Relay_Fire_ISR.c **** }
 331:.\Generated_Source\PSoC4/Relay_Fire_ISR.c **** 
 332:.\Generated_Source\PSoC4/Relay_Fire_ISR.c **** 
 333:.\Generated_Source\PSoC4/Relay_Fire_ISR.c **** /*******************************************************************************
 334:.\Generated_Source\PSoC4/Relay_Fire_ISR.c **** * Function Name: Relay_Fire_ISR_Disable
 335:.\Generated_Source\PSoC4/Relay_Fire_ISR.c **** ********************************************************************************
 336:.\Generated_Source\PSoC4/Relay_Fire_ISR.c **** *
 337:.\Generated_Source\PSoC4/Relay_Fire_ISR.c **** * Summary:
 338:.\Generated_Source\PSoC4/Relay_Fire_ISR.c **** *   Disables the Interrupt in the interrupt controller.
 339:.\Generated_Source\PSoC4/Relay_Fire_ISR.c **** *
 340:.\Generated_Source\PSoC4/Relay_Fire_ISR.c **** * Parameters:
 341:.\Generated_Source\PSoC4/Relay_Fire_ISR.c **** *   None
 342:.\Generated_Source\PSoC4/Relay_Fire_ISR.c **** *
 343:.\Generated_Source\PSoC4/Relay_Fire_ISR.c **** * Return:
 344:.\Generated_Source\PSoC4/Relay_Fire_ISR.c **** *   None
 345:.\Generated_Source\PSoC4/Relay_Fire_ISR.c **** *
 346:.\Generated_Source\PSoC4/Relay_Fire_ISR.c **** *******************************************************************************/
ARM GAS  C:\Users\syhaines\AppData\Local\Temp\cc7Zlivv.s 			page 8


 347:.\Generated_Source\PSoC4/Relay_Fire_ISR.c **** void Relay_Fire_ISR_Disable(void)
 348:.\Generated_Source\PSoC4/Relay_Fire_ISR.c **** {
 349:.\Generated_Source\PSoC4/Relay_Fire_ISR.c ****     /* Disable the general interrupt. */
 350:.\Generated_Source\PSoC4/Relay_Fire_ISR.c ****     *Relay_Fire_ISR_INTC_CLR_EN = Relay_Fire_ISR__INTC_MASK;
  53              		.loc 1 350 0
  54 0000 8022     		mov	r2, #128
  55 0002 044B     		ldr	r3, .L3
  56 0004 5202     		lsl	r2, r2, #9
  57 0006 1A60     		str	r2, [r3]
  58              	.LVL1:
  59              	.LBE19:
  60              	.LBE18:
  61              	.LBB20:
  62              	.LBB21:
 202:.\Generated_Source\PSoC4/Relay_Fire_ISR.c **** }
  63              		.loc 1 202 0
  64 0008 034B     		ldr	r3, .L3+4
  65 000a 044A     		ldr	r2, .L3+8
  66 000c 0433     		add	r3, r3, #4
  67 000e DA67     		str	r2, [r3, #124]
  68              	.LBE21:
  69              	.LBE20:
 137:.\Generated_Source\PSoC4/Relay_Fire_ISR.c **** 
  70              		.loc 1 137 0
  71              		@ sp needed
  72 0010 7047     		bx	lr
  73              	.L4:
  74 0012 C046     		.align	2
  75              	.L3:
  76 0014 80E100E0 		.word	-536813184
  77 0018 00000000 		.word	CyRamVectors
  78 001c 00000000 		.word	IntDefaultHandler
  79              		.cfi_endproc
  80              	.LFE35:
  81              		.size	Relay_Fire_ISR_Stop, .-Relay_Fire_ISR_Stop
  82              		.section	.text.Relay_Fire_ISR_SetVector,"ax",%progbits
  83              		.align	1
  84              		.global	Relay_Fire_ISR_SetVector
  85              		.code	16
  86              		.thumb_func
  87              		.type	Relay_Fire_ISR_SetVector, %function
  88              	Relay_Fire_ISR_SetVector:
  89              	.LFB37:
 201:.\Generated_Source\PSoC4/Relay_Fire_ISR.c ****     CyRamVectors[CYINT_IRQ_BASE + Relay_Fire_ISR__INTC_NUMBER] = address;
  90              		.loc 1 201 0
  91              		.cfi_startproc
  92              	.LVL2:
 202:.\Generated_Source\PSoC4/Relay_Fire_ISR.c **** }
  93              		.loc 1 202 0
  94 0000 014B     		ldr	r3, .L6
 203:.\Generated_Source\PSoC4/Relay_Fire_ISR.c **** 
  95              		.loc 1 203 0
  96              		@ sp needed
 202:.\Generated_Source\PSoC4/Relay_Fire_ISR.c **** }
  97              		.loc 1 202 0
  98 0002 0433     		add	r3, r3, #4
  99 0004 D867     		str	r0, [r3, #124]
ARM GAS  C:\Users\syhaines\AppData\Local\Temp\cc7Zlivv.s 			page 9


 203:.\Generated_Source\PSoC4/Relay_Fire_ISR.c **** 
 100              		.loc 1 203 0
 101 0006 7047     		bx	lr
 102              	.L7:
 103              		.align	2
 104              	.L6:
 105 0008 00000000 		.word	CyRamVectors
 106              		.cfi_endproc
 107              	.LFE37:
 108              		.size	Relay_Fire_ISR_SetVector, .-Relay_Fire_ISR_SetVector
 109              		.section	.text.Relay_Fire_ISR_GetVector,"ax",%progbits
 110              		.align	1
 111              		.global	Relay_Fire_ISR_GetVector
 112              		.code	16
 113              		.thumb_func
 114              		.type	Relay_Fire_ISR_GetVector, %function
 115              	Relay_Fire_ISR_GetVector:
 116              	.LFB38:
 221:.\Generated_Source\PSoC4/Relay_Fire_ISR.c ****     return CyRamVectors[CYINT_IRQ_BASE + Relay_Fire_ISR__INTC_NUMBER];
 117              		.loc 1 221 0
 118              		.cfi_startproc
 222:.\Generated_Source\PSoC4/Relay_Fire_ISR.c **** }
 119              		.loc 1 222 0
 120 0000 014B     		ldr	r3, .L9
 223:.\Generated_Source\PSoC4/Relay_Fire_ISR.c **** 
 121              		.loc 1 223 0
 122              		@ sp needed
 222:.\Generated_Source\PSoC4/Relay_Fire_ISR.c **** }
 123              		.loc 1 222 0
 124 0002 0433     		add	r3, r3, #4
 125 0004 D86F     		ldr	r0, [r3, #124]
 223:.\Generated_Source\PSoC4/Relay_Fire_ISR.c **** 
 126              		.loc 1 223 0
 127 0006 7047     		bx	lr
 128              	.L10:
 129              		.align	2
 130              	.L9:
 131 0008 00000000 		.word	CyRamVectors
 132              		.cfi_endproc
 133              	.LFE38:
 134              		.size	Relay_Fire_ISR_GetVector, .-Relay_Fire_ISR_GetVector
 135              		.section	.text.Relay_Fire_ISR_SetPriority,"ax",%progbits
 136              		.align	1
 137              		.global	Relay_Fire_ISR_SetPriority
 138              		.code	16
 139              		.thumb_func
 140              		.type	Relay_Fire_ISR_SetPriority, %function
 141              	Relay_Fire_ISR_SetPriority:
 142              	.LFB39:
 251:.\Generated_Source\PSoC4/Relay_Fire_ISR.c **** 	uint8 interruptState;
 143              		.loc 1 251 0
 144              		.cfi_startproc
 145              	.LVL3:
 146 0000 10B5     		push	{r4, lr}
 147              		.cfi_def_cfa_offset 8
 148              		.cfi_offset 4, -8
 149              		.cfi_offset 14, -4
ARM GAS  C:\Users\syhaines\AppData\Local\Temp\cc7Zlivv.s 			page 10


 251:.\Generated_Source\PSoC4/Relay_Fire_ISR.c **** 	uint8 interruptState;
 150              		.loc 1 251 0
 151 0002 041C     		mov	r4, r0
 255:.\Generated_Source\PSoC4/Relay_Fire_ISR.c ****     *Relay_Fire_ISR_INTC_PRIOR = (*Relay_Fire_ISR_INTC_PRIOR & (uint32)(~Relay_Fire_ISR__INTC_PRIOR
 152              		.loc 1 255 0
 153 0004 FFF7FEFF 		bl	CyEnterCriticalSection
 154              	.LVL4:
 256:.\Generated_Source\PSoC4/Relay_Fire_ISR.c ****                                     ((uint32)priority << priorityOffset);
 155              		.loc 1 256 0
 156 0008 C021     		mov	r1, #192
 157 000a 044A     		ldr	r2, .L12
 257:.\Generated_Source\PSoC4/Relay_Fire_ISR.c **** 	CyExitCriticalSection(interruptState);
 158              		.loc 1 257 0
 159 000c A401     		lsl	r4, r4, #6
 256:.\Generated_Source\PSoC4/Relay_Fire_ISR.c ****                                     ((uint32)priority << priorityOffset);
 160              		.loc 1 256 0
 161 000e 1368     		ldr	r3, [r2]
 259:.\Generated_Source\PSoC4/Relay_Fire_ISR.c **** 
 162              		.loc 1 259 0
 163              		@ sp needed
 256:.\Generated_Source\PSoC4/Relay_Fire_ISR.c ****                                     ((uint32)priority << priorityOffset);
 164              		.loc 1 256 0
 165 0010 8B43     		bic	r3, r1
 166 0012 2343     		orr	r3, r4
 167 0014 1360     		str	r3, [r2]
 258:.\Generated_Source\PSoC4/Relay_Fire_ISR.c **** }
 168              		.loc 1 258 0
 169 0016 FFF7FEFF 		bl	CyExitCriticalSection
 170              	.LVL5:
 259:.\Generated_Source\PSoC4/Relay_Fire_ISR.c **** 
 171              		.loc 1 259 0
 172 001a 10BD     		pop	{r4, pc}
 173              	.L13:
 174              		.align	2
 175              	.L12:
 176 001c 10E400E0 		.word	-536812528
 177              		.cfi_endproc
 178              	.LFE39:
 179              		.size	Relay_Fire_ISR_SetPriority, .-Relay_Fire_ISR_SetPriority
 180              		.section	.text.Relay_Fire_ISR_Start,"ax",%progbits
 181              		.align	1
 182              		.global	Relay_Fire_ISR_Start
 183              		.code	16
 184              		.thumb_func
 185              		.type	Relay_Fire_ISR_Start, %function
 186              	Relay_Fire_ISR_Start:
 187              	.LFB33:
  58:.\Generated_Source\PSoC4/Relay_Fire_ISR.c ****     /* For all we know the interrupt is active. */
 188              		.loc 1 58 0
 189              		.cfi_startproc
 190 0000 10B5     		push	{r4, lr}
 191              		.cfi_def_cfa_offset 8
 192              		.cfi_offset 4, -8
 193              		.cfi_offset 14, -4
 194              	.LBB22:
 195              	.LBB23:
 196              		.loc 1 350 0
ARM GAS  C:\Users\syhaines\AppData\Local\Temp\cc7Zlivv.s 			page 11


 197 0002 8024     		mov	r4, #128
 198 0004 064B     		ldr	r3, .L15
 199 0006 6402     		lsl	r4, r4, #9
 200 0008 1C60     		str	r4, [r3]
 201              	.LVL6:
 202              	.LBE23:
 203              	.LBE22:
 204              	.LBB24:
 205              	.LBB25:
 202:.\Generated_Source\PSoC4/Relay_Fire_ISR.c **** }
 206              		.loc 1 202 0
 207 000a 064B     		ldr	r3, .L15+4
 208 000c 064A     		ldr	r2, .L15+8
 209 000e 0433     		add	r3, r3, #4
 210              	.LBE25:
 211              	.LBE24:
  66:.\Generated_Source\PSoC4/Relay_Fire_ISR.c **** 
 212              		.loc 1 66 0
 213 0010 0220     		mov	r0, #2
 214              	.LBB27:
 215              	.LBB26:
 202:.\Generated_Source\PSoC4/Relay_Fire_ISR.c **** }
 216              		.loc 1 202 0
 217 0012 DA67     		str	r2, [r3, #124]
 218              	.LBE26:
 219              	.LBE27:
  66:.\Generated_Source\PSoC4/Relay_Fire_ISR.c **** 
 220              		.loc 1 66 0
 221 0014 FFF7FEFF 		bl	Relay_Fire_ISR_SetPriority
 222              	.LVL7:
 223              	.LBB28:
 224              	.LBB29:
 308:.\Generated_Source\PSoC4/Relay_Fire_ISR.c **** }
 225              		.loc 1 308 0
 226 0018 044B     		ldr	r3, .L15+12
 227              	.LBE29:
 228              	.LBE28:
  70:.\Generated_Source\PSoC4/Relay_Fire_ISR.c **** 
 229              		.loc 1 70 0
 230              		@ sp needed
 231              	.LBB31:
 232              	.LBB30:
 308:.\Generated_Source\PSoC4/Relay_Fire_ISR.c **** }
 233              		.loc 1 308 0
 234 001a 1C60     		str	r4, [r3]
 235              	.LBE30:
 236              	.LBE31:
  70:.\Generated_Source\PSoC4/Relay_Fire_ISR.c **** 
 237              		.loc 1 70 0
 238 001c 10BD     		pop	{r4, pc}
 239              	.L16:
 240 001e C046     		.align	2
 241              	.L15:
 242 0020 80E100E0 		.word	-536813184
 243 0024 00000000 		.word	CyRamVectors
 244 0028 00000000 		.word	Relay_Fire_ISR_Interrupt
 245 002c 00E100E0 		.word	-536813312
ARM GAS  C:\Users\syhaines\AppData\Local\Temp\cc7Zlivv.s 			page 12


 246              		.cfi_endproc
 247              	.LFE33:
 248              		.size	Relay_Fire_ISR_Start, .-Relay_Fire_ISR_Start
 249              		.section	.text.Relay_Fire_ISR_StartEx,"ax",%progbits
 250              		.align	1
 251              		.global	Relay_Fire_ISR_StartEx
 252              		.code	16
 253              		.thumb_func
 254              		.type	Relay_Fire_ISR_StartEx, %function
 255              	Relay_Fire_ISR_StartEx:
 256              	.LFB34:
 101:.\Generated_Source\PSoC4/Relay_Fire_ISR.c ****     /* For all we know the interrupt is active. */
 257              		.loc 1 101 0
 258              		.cfi_startproc
 259              	.LVL8:
 260 0000 10B5     		push	{r4, lr}
 261              		.cfi_def_cfa_offset 8
 262              		.cfi_offset 4, -8
 263              		.cfi_offset 14, -4
 264              	.LBB32:
 265              	.LBB33:
 266              		.loc 1 350 0
 267 0002 8024     		mov	r4, #128
 268 0004 054B     		ldr	r3, .L18
 269 0006 6402     		lsl	r4, r4, #9
 270 0008 1C60     		str	r4, [r3]
 271              	.LVL9:
 272              	.LBE33:
 273              	.LBE32:
 274              	.LBB34:
 275              	.LBB35:
 202:.\Generated_Source\PSoC4/Relay_Fire_ISR.c **** }
 276              		.loc 1 202 0
 277 000a 054B     		ldr	r3, .L18+4
 278              	.LBE35:
 279              	.LBE34:
 113:.\Generated_Source\PSoC4/Relay_Fire_ISR.c **** 
 280              		.loc 1 113 0
 281              		@ sp needed
 282              	.LBB37:
 283              	.LBB36:
 202:.\Generated_Source\PSoC4/Relay_Fire_ISR.c **** }
 284              		.loc 1 202 0
 285 000c 0433     		add	r3, r3, #4
 286 000e D867     		str	r0, [r3, #124]
 287              	.LBE36:
 288              	.LBE37:
 109:.\Generated_Source\PSoC4/Relay_Fire_ISR.c **** 
 289              		.loc 1 109 0
 290 0010 0220     		mov	r0, #2
 291              	.LVL10:
 292 0012 FFF7FEFF 		bl	Relay_Fire_ISR_SetPriority
 293              	.LVL11:
 294              	.LBB38:
 295              	.LBB39:
 308:.\Generated_Source\PSoC4/Relay_Fire_ISR.c **** }
 296              		.loc 1 308 0
ARM GAS  C:\Users\syhaines\AppData\Local\Temp\cc7Zlivv.s 			page 13


 297 0016 034B     		ldr	r3, .L18+8
 298 0018 1C60     		str	r4, [r3]
 299              	.LBE39:
 300              	.LBE38:
 113:.\Generated_Source\PSoC4/Relay_Fire_ISR.c **** 
 301              		.loc 1 113 0
 302 001a 10BD     		pop	{r4, pc}
 303              	.L19:
 304              		.align	2
 305              	.L18:
 306 001c 80E100E0 		.word	-536813184
 307 0020 00000000 		.word	CyRamVectors
 308 0024 00E100E0 		.word	-536813312
 309              		.cfi_endproc
 310              	.LFE34:
 311              		.size	Relay_Fire_ISR_StartEx, .-Relay_Fire_ISR_StartEx
 312              		.section	.text.Relay_Fire_ISR_GetPriority,"ax",%progbits
 313              		.align	1
 314              		.global	Relay_Fire_ISR_GetPriority
 315              		.code	16
 316              		.thumb_func
 317              		.type	Relay_Fire_ISR_GetPriority, %function
 318              	Relay_Fire_ISR_GetPriority:
 319              	.LFB40:
 279:.\Generated_Source\PSoC4/Relay_Fire_ISR.c ****     uint32 priority;
 320              		.loc 1 279 0
 321              		.cfi_startproc
 322              	.LVL12:
 283:.\Generated_Source\PSoC4/Relay_Fire_ISR.c **** 
 323              		.loc 1 283 0
 324 0000 024B     		ldr	r3, .L21
 286:.\Generated_Source\PSoC4/Relay_Fire_ISR.c **** 
 325              		.loc 1 286 0
 326              		@ sp needed
 283:.\Generated_Source\PSoC4/Relay_Fire_ISR.c **** 
 327              		.loc 1 283 0
 328 0002 1868     		ldr	r0, [r3]
 329              	.LVL13:
 330 0004 0006     		lsl	r0, r0, #24
 331              	.LVL14:
 285:.\Generated_Source\PSoC4/Relay_Fire_ISR.c **** }
 332              		.loc 1 285 0
 333 0006 800F     		lsr	r0, r0, #30
 286:.\Generated_Source\PSoC4/Relay_Fire_ISR.c **** 
 334              		.loc 1 286 0
 335 0008 7047     		bx	lr
 336              	.L22:
 337 000a C046     		.align	2
 338              	.L21:
 339 000c 10E400E0 		.word	-536812528
 340              		.cfi_endproc
 341              	.LFE40:
 342              		.size	Relay_Fire_ISR_GetPriority, .-Relay_Fire_ISR_GetPriority
 343              		.section	.text.Relay_Fire_ISR_Enable,"ax",%progbits
 344              		.align	1
 345              		.global	Relay_Fire_ISR_Enable
 346              		.code	16
ARM GAS  C:\Users\syhaines\AppData\Local\Temp\cc7Zlivv.s 			page 14


 347              		.thumb_func
 348              		.type	Relay_Fire_ISR_Enable, %function
 349              	Relay_Fire_ISR_Enable:
 350              	.LFB41:
 306:.\Generated_Source\PSoC4/Relay_Fire_ISR.c ****     /* Enable the general interrupt. */
 351              		.loc 1 306 0
 352              		.cfi_startproc
 308:.\Generated_Source\PSoC4/Relay_Fire_ISR.c **** }
 353              		.loc 1 308 0
 354 0000 8022     		mov	r2, #128
 355 0002 024B     		ldr	r3, .L24
 356 0004 5202     		lsl	r2, r2, #9
 357 0006 1A60     		str	r2, [r3]
 309:.\Generated_Source\PSoC4/Relay_Fire_ISR.c **** 
 358              		.loc 1 309 0
 359              		@ sp needed
 360 0008 7047     		bx	lr
 361              	.L25:
 362 000a C046     		.align	2
 363              	.L24:
 364 000c 00E100E0 		.word	-536813312
 365              		.cfi_endproc
 366              	.LFE41:
 367              		.size	Relay_Fire_ISR_Enable, .-Relay_Fire_ISR_Enable
 368              		.section	.text.Relay_Fire_ISR_GetState,"ax",%progbits
 369              		.align	1
 370              		.global	Relay_Fire_ISR_GetState
 371              		.code	16
 372              		.thumb_func
 373              		.type	Relay_Fire_ISR_GetState, %function
 374              	Relay_Fire_ISR_GetState:
 375              	.LFB42:
 327:.\Generated_Source\PSoC4/Relay_Fire_ISR.c ****     /* Get the state of the general interrupt. */
 376              		.loc 1 327 0
 377              		.cfi_startproc
 329:.\Generated_Source\PSoC4/Relay_Fire_ISR.c **** }
 378              		.loc 1 329 0
 379 0000 024B     		ldr	r3, .L27
 330:.\Generated_Source\PSoC4/Relay_Fire_ISR.c **** 
 380              		.loc 1 330 0
 381              		@ sp needed
 329:.\Generated_Source\PSoC4/Relay_Fire_ISR.c **** }
 382              		.loc 1 329 0
 383 0002 1868     		ldr	r0, [r3]
 384 0004 C003     		lsl	r0, r0, #15
 385 0006 C00F     		lsr	r0, r0, #31
 330:.\Generated_Source\PSoC4/Relay_Fire_ISR.c **** 
 386              		.loc 1 330 0
 387 0008 7047     		bx	lr
 388              	.L28:
 389 000a C046     		.align	2
 390              	.L27:
 391 000c 00E100E0 		.word	-536813312
 392              		.cfi_endproc
 393              	.LFE42:
 394              		.size	Relay_Fire_ISR_GetState, .-Relay_Fire_ISR_GetState
 395              		.section	.text.Relay_Fire_ISR_Disable,"ax",%progbits
ARM GAS  C:\Users\syhaines\AppData\Local\Temp\cc7Zlivv.s 			page 15


 396              		.align	1
 397              		.global	Relay_Fire_ISR_Disable
 398              		.code	16
 399              		.thumb_func
 400              		.type	Relay_Fire_ISR_Disable, %function
 401              	Relay_Fire_ISR_Disable:
 402              	.LFB43:
 348:.\Generated_Source\PSoC4/Relay_Fire_ISR.c ****     /* Disable the general interrupt. */
 403              		.loc 1 348 0
 404              		.cfi_startproc
 405              		.loc 1 350 0
 406 0000 8022     		mov	r2, #128
 407 0002 024B     		ldr	r3, .L30
 408 0004 5202     		lsl	r2, r2, #9
 409 0006 1A60     		str	r2, [r3]
 351:.\Generated_Source\PSoC4/Relay_Fire_ISR.c **** }
 410              		.loc 1 351 0
 411              		@ sp needed
 412 0008 7047     		bx	lr
 413              	.L31:
 414 000a C046     		.align	2
 415              	.L30:
 416 000c 80E100E0 		.word	-536813184
 417              		.cfi_endproc
 418              	.LFE43:
 419              		.size	Relay_Fire_ISR_Disable, .-Relay_Fire_ISR_Disable
 420              		.section	.text.Relay_Fire_ISR_SetPending,"ax",%progbits
 421              		.align	1
 422              		.global	Relay_Fire_ISR_SetPending
 423              		.code	16
 424              		.thumb_func
 425              		.type	Relay_Fire_ISR_SetPending, %function
 426              	Relay_Fire_ISR_SetPending:
 427              	.LFB44:
 352:.\Generated_Source\PSoC4/Relay_Fire_ISR.c **** 
 353:.\Generated_Source\PSoC4/Relay_Fire_ISR.c **** 
 354:.\Generated_Source\PSoC4/Relay_Fire_ISR.c **** /*******************************************************************************
 355:.\Generated_Source\PSoC4/Relay_Fire_ISR.c **** * Function Name: Relay_Fire_ISR_SetPending
 356:.\Generated_Source\PSoC4/Relay_Fire_ISR.c **** ********************************************************************************
 357:.\Generated_Source\PSoC4/Relay_Fire_ISR.c **** *
 358:.\Generated_Source\PSoC4/Relay_Fire_ISR.c **** * Summary:
 359:.\Generated_Source\PSoC4/Relay_Fire_ISR.c **** *   Causes the Interrupt to enter the pending state, a software method of
 360:.\Generated_Source\PSoC4/Relay_Fire_ISR.c **** *   generating the interrupt.
 361:.\Generated_Source\PSoC4/Relay_Fire_ISR.c **** *
 362:.\Generated_Source\PSoC4/Relay_Fire_ISR.c **** * Parameters:
 363:.\Generated_Source\PSoC4/Relay_Fire_ISR.c **** *   None
 364:.\Generated_Source\PSoC4/Relay_Fire_ISR.c **** *
 365:.\Generated_Source\PSoC4/Relay_Fire_ISR.c **** * Return:
 366:.\Generated_Source\PSoC4/Relay_Fire_ISR.c **** *   None
 367:.\Generated_Source\PSoC4/Relay_Fire_ISR.c **** *
 368:.\Generated_Source\PSoC4/Relay_Fire_ISR.c **** * Side Effects:
 369:.\Generated_Source\PSoC4/Relay_Fire_ISR.c **** *   If interrupts are enabled and the interrupt is set up properly, the ISR is
 370:.\Generated_Source\PSoC4/Relay_Fire_ISR.c **** *   entered (depending on the priority of this interrupt and other pending 
 371:.\Generated_Source\PSoC4/Relay_Fire_ISR.c **** *   interrupts).
 372:.\Generated_Source\PSoC4/Relay_Fire_ISR.c **** *
 373:.\Generated_Source\PSoC4/Relay_Fire_ISR.c **** *******************************************************************************/
 374:.\Generated_Source\PSoC4/Relay_Fire_ISR.c **** void Relay_Fire_ISR_SetPending(void)
ARM GAS  C:\Users\syhaines\AppData\Local\Temp\cc7Zlivv.s 			page 16


 375:.\Generated_Source\PSoC4/Relay_Fire_ISR.c **** {
 428              		.loc 1 375 0
 429              		.cfi_startproc
 376:.\Generated_Source\PSoC4/Relay_Fire_ISR.c ****     *Relay_Fire_ISR_INTC_SET_PD = Relay_Fire_ISR__INTC_MASK;
 430              		.loc 1 376 0
 431 0000 8022     		mov	r2, #128
 432 0002 024B     		ldr	r3, .L33
 433 0004 5202     		lsl	r2, r2, #9
 434 0006 1A60     		str	r2, [r3]
 377:.\Generated_Source\PSoC4/Relay_Fire_ISR.c **** }
 435              		.loc 1 377 0
 436              		@ sp needed
 437 0008 7047     		bx	lr
 438              	.L34:
 439 000a C046     		.align	2
 440              	.L33:
 441 000c 00E200E0 		.word	-536813056
 442              		.cfi_endproc
 443              	.LFE44:
 444              		.size	Relay_Fire_ISR_SetPending, .-Relay_Fire_ISR_SetPending
 445              		.section	.text.Relay_Fire_ISR_ClearPending,"ax",%progbits
 446              		.align	1
 447              		.global	Relay_Fire_ISR_ClearPending
 448              		.code	16
 449              		.thumb_func
 450              		.type	Relay_Fire_ISR_ClearPending, %function
 451              	Relay_Fire_ISR_ClearPending:
 452              	.LFB45:
 378:.\Generated_Source\PSoC4/Relay_Fire_ISR.c **** 
 379:.\Generated_Source\PSoC4/Relay_Fire_ISR.c **** 
 380:.\Generated_Source\PSoC4/Relay_Fire_ISR.c **** /*******************************************************************************
 381:.\Generated_Source\PSoC4/Relay_Fire_ISR.c **** * Function Name: Relay_Fire_ISR_ClearPending
 382:.\Generated_Source\PSoC4/Relay_Fire_ISR.c **** ********************************************************************************
 383:.\Generated_Source\PSoC4/Relay_Fire_ISR.c **** *
 384:.\Generated_Source\PSoC4/Relay_Fire_ISR.c **** * Summary:
 385:.\Generated_Source\PSoC4/Relay_Fire_ISR.c **** *   Clears a pending interrupt in the interrupt controller.
 386:.\Generated_Source\PSoC4/Relay_Fire_ISR.c **** *
 387:.\Generated_Source\PSoC4/Relay_Fire_ISR.c **** *   Note Some interrupt sources are clear-on-read and require the block 
 388:.\Generated_Source\PSoC4/Relay_Fire_ISR.c **** *   interrupt/status register to be read/cleared with the appropriate block API 
 389:.\Generated_Source\PSoC4/Relay_Fire_ISR.c **** *   (GPIO, UART, and so on). Otherwise the ISR will continue to remain in 
 390:.\Generated_Source\PSoC4/Relay_Fire_ISR.c **** *   pending state even though the interrupt itself is cleared using this API.
 391:.\Generated_Source\PSoC4/Relay_Fire_ISR.c **** *
 392:.\Generated_Source\PSoC4/Relay_Fire_ISR.c **** * Parameters:
 393:.\Generated_Source\PSoC4/Relay_Fire_ISR.c **** *   None
 394:.\Generated_Source\PSoC4/Relay_Fire_ISR.c **** *
 395:.\Generated_Source\PSoC4/Relay_Fire_ISR.c **** * Return:
 396:.\Generated_Source\PSoC4/Relay_Fire_ISR.c **** *   None
 397:.\Generated_Source\PSoC4/Relay_Fire_ISR.c **** *
 398:.\Generated_Source\PSoC4/Relay_Fire_ISR.c **** *******************************************************************************/
 399:.\Generated_Source\PSoC4/Relay_Fire_ISR.c **** void Relay_Fire_ISR_ClearPending(void)
 400:.\Generated_Source\PSoC4/Relay_Fire_ISR.c **** {
 453              		.loc 1 400 0
 454              		.cfi_startproc
 401:.\Generated_Source\PSoC4/Relay_Fire_ISR.c ****     *Relay_Fire_ISR_INTC_CLR_PD = Relay_Fire_ISR__INTC_MASK;
 455              		.loc 1 401 0
 456 0000 8022     		mov	r2, #128
 457 0002 024B     		ldr	r3, .L36
ARM GAS  C:\Users\syhaines\AppData\Local\Temp\cc7Zlivv.s 			page 17


 458 0004 5202     		lsl	r2, r2, #9
 459 0006 1A60     		str	r2, [r3]
 402:.\Generated_Source\PSoC4/Relay_Fire_ISR.c **** }
 460              		.loc 1 402 0
 461              		@ sp needed
 462 0008 7047     		bx	lr
 463              	.L37:
 464 000a C046     		.align	2
 465              	.L36:
 466 000c 80E200E0 		.word	-536812928
 467              		.cfi_endproc
 468              	.LFE45:
 469              		.size	Relay_Fire_ISR_ClearPending, .-Relay_Fire_ISR_ClearPending
 470              		.text
 471              	.Letext0:
 472              		.file 2 "Generated_Source\\PSoC4/cytypes.h"
 473              		.file 3 ".\\User_Source/interrupts.h"
 474              		.file 4 "Generated_Source\\PSoC4/CyLib.h"