ARM GAS  C:\Users\syhaines\AppData\Local\Temp\ccBMnOtB.s 			page 1


   1              		.cpu cortex-m0
   2              		.fpu softvfp
   3              		.eabi_attribute 20, 1
   4              		.eabi_attribute 21, 1
   5              		.eabi_attribute 23, 3
   6              		.eabi_attribute 24, 1
   7              		.eabi_attribute 25, 1
   8              		.eabi_attribute 26, 1
   9              		.eabi_attribute 30, 4
  10              		.eabi_attribute 34, 0
  11              		.eabi_attribute 18, 4
  12              		.code	16
  13              		.file	"Zero_Cross_PM.c"
  14              		.text
  15              	.Ltext0:
  16              		.cfi_sections	.debug_frame
  17              		.section	.text.Zero_Cross_SaveConfig,"ax",%progbits
  18              		.align	1
  19              		.global	Zero_Cross_SaveConfig
  20              		.code	16
  21              		.thumb_func
  22              		.type	Zero_Cross_SaveConfig, %function
  23              	Zero_Cross_SaveConfig:
  24              	.LFB0:
  25              		.file 1 ".\\Generated_Source\\PSoC4\\Zero_Cross_PM.c"
   1:.\Generated_Source\PSoC4/Zero_Cross_PM.c **** /*******************************************************************************
   2:.\Generated_Source\PSoC4/Zero_Cross_PM.c **** * File Name: Zero_Cross_PM.c
   3:.\Generated_Source\PSoC4/Zero_Cross_PM.c **** * Version 1.10
   4:.\Generated_Source\PSoC4/Zero_Cross_PM.c **** *
   5:.\Generated_Source\PSoC4/Zero_Cross_PM.c **** * Description:
   6:.\Generated_Source\PSoC4/Zero_Cross_PM.c **** *  This file provides the power management source code APIs for the
   7:.\Generated_Source\PSoC4/Zero_Cross_PM.c **** *  Comparator.
   8:.\Generated_Source\PSoC4/Zero_Cross_PM.c **** *
   9:.\Generated_Source\PSoC4/Zero_Cross_PM.c **** * Note:
  10:.\Generated_Source\PSoC4/Zero_Cross_PM.c **** *  None
  11:.\Generated_Source\PSoC4/Zero_Cross_PM.c **** *
  12:.\Generated_Source\PSoC4/Zero_Cross_PM.c **** ********************************************************************************
  13:.\Generated_Source\PSoC4/Zero_Cross_PM.c **** * Copyright 2013-2014, Cypress Semiconductor Corporation.  All rights reserved.
  14:.\Generated_Source\PSoC4/Zero_Cross_PM.c **** * You may use this file only in accordance with the license, terms, conditions,
  15:.\Generated_Source\PSoC4/Zero_Cross_PM.c **** * disclaimers, and limitations in the end user license agreement accompanying
  16:.\Generated_Source\PSoC4/Zero_Cross_PM.c **** * the software package with which this file was provided.
  17:.\Generated_Source\PSoC4/Zero_Cross_PM.c **** *******************************************************************************/
  18:.\Generated_Source\PSoC4/Zero_Cross_PM.c **** 
  19:.\Generated_Source\PSoC4/Zero_Cross_PM.c **** #include "Zero_Cross.h"
  20:.\Generated_Source\PSoC4/Zero_Cross_PM.c **** 
  21:.\Generated_Source\PSoC4/Zero_Cross_PM.c **** #if(!Zero_Cross_CHECK_DEEPSLEEP_SUPPORT)
  22:.\Generated_Source\PSoC4/Zero_Cross_PM.c ****     static Zero_Cross_BACKUP_STRUCT Zero_Cross_backup =
  23:.\Generated_Source\PSoC4/Zero_Cross_PM.c ****     {
  24:.\Generated_Source\PSoC4/Zero_Cross_PM.c ****         0u, /* enableState */
  25:.\Generated_Source\PSoC4/Zero_Cross_PM.c ****     };
  26:.\Generated_Source\PSoC4/Zero_Cross_PM.c **** #endif /* (Zero_Cross_CHECK_DEEPSLEEP_SUPPORT) */
  27:.\Generated_Source\PSoC4/Zero_Cross_PM.c **** 
  28:.\Generated_Source\PSoC4/Zero_Cross_PM.c **** 
  29:.\Generated_Source\PSoC4/Zero_Cross_PM.c **** /*******************************************************************************
  30:.\Generated_Source\PSoC4/Zero_Cross_PM.c **** * Function Name: Zero_Cross_SaveConfig
  31:.\Generated_Source\PSoC4/Zero_Cross_PM.c **** ********************************************************************************
  32:.\Generated_Source\PSoC4/Zero_Cross_PM.c **** *
ARM GAS  C:\Users\syhaines\AppData\Local\Temp\ccBMnOtB.s 			page 2


  33:.\Generated_Source\PSoC4/Zero_Cross_PM.c **** * Summary:
  34:.\Generated_Source\PSoC4/Zero_Cross_PM.c **** *  Empty function. Included for consistency with other components.
  35:.\Generated_Source\PSoC4/Zero_Cross_PM.c **** *
  36:.\Generated_Source\PSoC4/Zero_Cross_PM.c **** * Parameters:
  37:.\Generated_Source\PSoC4/Zero_Cross_PM.c **** *  None
  38:.\Generated_Source\PSoC4/Zero_Cross_PM.c **** *
  39:.\Generated_Source\PSoC4/Zero_Cross_PM.c **** * Return:
  40:.\Generated_Source\PSoC4/Zero_Cross_PM.c **** *  None
  41:.\Generated_Source\PSoC4/Zero_Cross_PM.c **** *
  42:.\Generated_Source\PSoC4/Zero_Cross_PM.c **** *******************************************************************************/
  43:.\Generated_Source\PSoC4/Zero_Cross_PM.c **** void Zero_Cross_SaveConfig(void)
  44:.\Generated_Source\PSoC4/Zero_Cross_PM.c **** {
  26              		.loc 1 44 0
  27              		.cfi_startproc
  45:.\Generated_Source\PSoC4/Zero_Cross_PM.c **** 
  46:.\Generated_Source\PSoC4/Zero_Cross_PM.c **** }
  28              		.loc 1 46 0
  29              		@ sp needed
  30 0000 7047     		bx	lr
  31              		.cfi_endproc
  32              	.LFE0:
  33              		.size	Zero_Cross_SaveConfig, .-Zero_Cross_SaveConfig
  34              		.section	.text.Zero_Cross_RestoreConfig,"ax",%progbits
  35              		.align	1
  36              		.global	Zero_Cross_RestoreConfig
  37              		.code	16
  38              		.thumb_func
  39              		.type	Zero_Cross_RestoreConfig, %function
  40              	Zero_Cross_RestoreConfig:
  41              	.LFB1:
  47:.\Generated_Source\PSoC4/Zero_Cross_PM.c **** 
  48:.\Generated_Source\PSoC4/Zero_Cross_PM.c **** 
  49:.\Generated_Source\PSoC4/Zero_Cross_PM.c **** /*******************************************************************************
  50:.\Generated_Source\PSoC4/Zero_Cross_PM.c **** * Function Name: Zero_Cross_RestoreConfig
  51:.\Generated_Source\PSoC4/Zero_Cross_PM.c **** ********************************************************************************
  52:.\Generated_Source\PSoC4/Zero_Cross_PM.c **** *
  53:.\Generated_Source\PSoC4/Zero_Cross_PM.c **** * Summary:
  54:.\Generated_Source\PSoC4/Zero_Cross_PM.c **** *  Empty function. Included for consistency with other components.
  55:.\Generated_Source\PSoC4/Zero_Cross_PM.c **** *
  56:.\Generated_Source\PSoC4/Zero_Cross_PM.c **** * Parameters:
  57:.\Generated_Source\PSoC4/Zero_Cross_PM.c **** *  None
  58:.\Generated_Source\PSoC4/Zero_Cross_PM.c **** *
  59:.\Generated_Source\PSoC4/Zero_Cross_PM.c **** * Return:
  60:.\Generated_Source\PSoC4/Zero_Cross_PM.c **** *  None
  61:.\Generated_Source\PSoC4/Zero_Cross_PM.c **** *
  62:.\Generated_Source\PSoC4/Zero_Cross_PM.c **** ********************************************************************************/
  63:.\Generated_Source\PSoC4/Zero_Cross_PM.c **** void Zero_Cross_RestoreConfig(void)
  64:.\Generated_Source\PSoC4/Zero_Cross_PM.c **** {
  42              		.loc 1 64 0
  43              		.cfi_startproc
  65:.\Generated_Source\PSoC4/Zero_Cross_PM.c **** 
  66:.\Generated_Source\PSoC4/Zero_Cross_PM.c **** }
  44              		.loc 1 66 0
  45              		@ sp needed
  46 0000 7047     		bx	lr
  47              		.cfi_endproc
  48              	.LFE1:
ARM GAS  C:\Users\syhaines\AppData\Local\Temp\ccBMnOtB.s 			page 3


  49              		.size	Zero_Cross_RestoreConfig, .-Zero_Cross_RestoreConfig
  50              		.section	.text.Zero_Cross_Sleep,"ax",%progbits
  51              		.align	1
  52              		.global	Zero_Cross_Sleep
  53              		.code	16
  54              		.thumb_func
  55              		.type	Zero_Cross_Sleep, %function
  56              	Zero_Cross_Sleep:
  57              	.LFB2:
  67:.\Generated_Source\PSoC4/Zero_Cross_PM.c **** 
  68:.\Generated_Source\PSoC4/Zero_Cross_PM.c **** 
  69:.\Generated_Source\PSoC4/Zero_Cross_PM.c **** /*******************************************************************************
  70:.\Generated_Source\PSoC4/Zero_Cross_PM.c **** * Function Name: Zero_Cross_Sleep
  71:.\Generated_Source\PSoC4/Zero_Cross_PM.c **** ********************************************************************************
  72:.\Generated_Source\PSoC4/Zero_Cross_PM.c **** *
  73:.\Generated_Source\PSoC4/Zero_Cross_PM.c **** * Summary:
  74:.\Generated_Source\PSoC4/Zero_Cross_PM.c **** *  This is the preferred API to prepare the component for sleep. The Sleep() API 
  75:.\Generated_Source\PSoC4/Zero_Cross_PM.c **** *  saves the current component state. Call the Comp_Sleep() function before 
  76:.\Generated_Source\PSoC4/Zero_Cross_PM.c **** *  calling the CySysPmDeepSleep() or the CySysPmHibernate() functions.
  77:.\Generated_Source\PSoC4/Zero_Cross_PM.c **** *  The "Deep sleep operation" option has an influence on this function
  78:.\Generated_Source\PSoC4/Zero_Cross_PM.c **** *  implementation.
  79:.\Generated_Source\PSoC4/Zero_Cross_PM.c **** *
  80:.\Generated_Source\PSoC4/Zero_Cross_PM.c **** * Parameters:
  81:.\Generated_Source\PSoC4/Zero_Cross_PM.c **** *  None
  82:.\Generated_Source\PSoC4/Zero_Cross_PM.c **** *
  83:.\Generated_Source\PSoC4/Zero_Cross_PM.c **** * Return:
  84:.\Generated_Source\PSoC4/Zero_Cross_PM.c **** *  None
  85:.\Generated_Source\PSoC4/Zero_Cross_PM.c **** *
  86:.\Generated_Source\PSoC4/Zero_Cross_PM.c **** *******************************************************************************/
  87:.\Generated_Source\PSoC4/Zero_Cross_PM.c **** void Zero_Cross_Sleep(void)
  88:.\Generated_Source\PSoC4/Zero_Cross_PM.c **** {
  58              		.loc 1 88 0
  59              		.cfi_startproc
  60 0000 08B5     		push	{r3, lr}
  61              		.cfi_def_cfa_offset 8
  62              		.cfi_offset 3, -8
  63              		.cfi_offset 14, -4
  89:.\Generated_Source\PSoC4/Zero_Cross_PM.c **** #if(!Zero_Cross_CHECK_DEEPSLEEP_SUPPORT)
  90:.\Generated_Source\PSoC4/Zero_Cross_PM.c ****     if(Zero_Cross_CHECK_PWR_MODE_OFF)
  64              		.loc 1 90 0
  65 0002 064B     		ldr	r3, .L7
  66 0004 1A68     		ldr	r2, [r3]
  67 0006 0323     		mov	r3, #3
  68 0008 1340     		and	r3, r2
  69 000a 054A     		ldr	r2, .L7+4
  70 000c 04D0     		beq	.L4
  91:.\Generated_Source\PSoC4/Zero_Cross_PM.c ****     {
  92:.\Generated_Source\PSoC4/Zero_Cross_PM.c ****         Zero_Cross_backup.enableState = 1u;
  71              		.loc 1 92 0
  72 000e 0123     		mov	r3, #1
  73 0010 1370     		strb	r3, [r2]
  93:.\Generated_Source\PSoC4/Zero_Cross_PM.c ****         Zero_Cross_Stop();
  74              		.loc 1 93 0
  75 0012 FFF7FEFF 		bl	Zero_Cross_Stop
  76              	.LVL0:
  77 0016 00E0     		b	.L3
  78              	.L4:
ARM GAS  C:\Users\syhaines\AppData\Local\Temp\ccBMnOtB.s 			page 4


  94:.\Generated_Source\PSoC4/Zero_Cross_PM.c ****     }
  95:.\Generated_Source\PSoC4/Zero_Cross_PM.c ****     else /* Component is disabled */
  96:.\Generated_Source\PSoC4/Zero_Cross_PM.c ****     {
  97:.\Generated_Source\PSoC4/Zero_Cross_PM.c ****         Zero_Cross_backup.enableState = 0u;
  79              		.loc 1 97 0
  80 0018 1370     		strb	r3, [r2]
  81              	.L3:
  98:.\Generated_Source\PSoC4/Zero_Cross_PM.c ****     }
  99:.\Generated_Source\PSoC4/Zero_Cross_PM.c **** #endif /* (Zero_Cross_CHECK_DEEPSLEEP_SUPPORT) */
 100:.\Generated_Source\PSoC4/Zero_Cross_PM.c **** }
  82              		.loc 1 100 0
  83              		@ sp needed
  84 001a 08BD     		pop	{r3, pc}
  85              	.L8:
  86              		.align	2
  87              	.L7:
  88 001c 08001040 		.word	1074790408
  89 0020 00000000 		.word	.LANCHOR0
  90              		.cfi_endproc
  91              	.LFE2:
  92              		.size	Zero_Cross_Sleep, .-Zero_Cross_Sleep
  93              		.section	.text.Zero_Cross_Wakeup,"ax",%progbits
  94              		.align	1
  95              		.global	Zero_Cross_Wakeup
  96              		.code	16
  97              		.thumb_func
  98              		.type	Zero_Cross_Wakeup, %function
  99              	Zero_Cross_Wakeup:
 100              	.LFB3:
 101:.\Generated_Source\PSoC4/Zero_Cross_PM.c **** 
 102:.\Generated_Source\PSoC4/Zero_Cross_PM.c **** 
 103:.\Generated_Source\PSoC4/Zero_Cross_PM.c **** /*******************************************************************************
 104:.\Generated_Source\PSoC4/Zero_Cross_PM.c **** * Function Name: Zero_Cross_Wakeup
 105:.\Generated_Source\PSoC4/Zero_Cross_PM.c **** ********************************************************************************
 106:.\Generated_Source\PSoC4/Zero_Cross_PM.c **** *
 107:.\Generated_Source\PSoC4/Zero_Cross_PM.c **** * Summary:
 108:.\Generated_Source\PSoC4/Zero_Cross_PM.c **** *  This is the preferred API to restore the component to the state when Sleep() 
 109:.\Generated_Source\PSoC4/Zero_Cross_PM.c **** *  was called. The Wakeup() function will also re-enable the component. 
 110:.\Generated_Source\PSoC4/Zero_Cross_PM.c **** *  The "Deep sleep operation" option has an influence on this function
 111:.\Generated_Source\PSoC4/Zero_Cross_PM.c **** *  implementation.
 112:.\Generated_Source\PSoC4/Zero_Cross_PM.c **** *
 113:.\Generated_Source\PSoC4/Zero_Cross_PM.c **** * Parameters:
 114:.\Generated_Source\PSoC4/Zero_Cross_PM.c **** *  None
 115:.\Generated_Source\PSoC4/Zero_Cross_PM.c **** *
 116:.\Generated_Source\PSoC4/Zero_Cross_PM.c **** * Return:
 117:.\Generated_Source\PSoC4/Zero_Cross_PM.c **** *  None
 118:.\Generated_Source\PSoC4/Zero_Cross_PM.c **** *
 119:.\Generated_Source\PSoC4/Zero_Cross_PM.c **** *******************************************************************************/
 120:.\Generated_Source\PSoC4/Zero_Cross_PM.c **** void Zero_Cross_Wakeup(void)
 121:.\Generated_Source\PSoC4/Zero_Cross_PM.c **** {
 101              		.loc 1 121 0
 102              		.cfi_startproc
 103 0000 08B5     		push	{r3, lr}
 104              		.cfi_def_cfa_offset 8
 105              		.cfi_offset 3, -8
 106              		.cfi_offset 14, -4
 122:.\Generated_Source\PSoC4/Zero_Cross_PM.c **** #if(!Zero_Cross_CHECK_DEEPSLEEP_SUPPORT)
ARM GAS  C:\Users\syhaines\AppData\Local\Temp\ccBMnOtB.s 			page 5


 123:.\Generated_Source\PSoC4/Zero_Cross_PM.c ****     if(0u != Zero_Cross_backup.enableState)
 107              		.loc 1 123 0
 108 0002 034B     		ldr	r3, .L14
 109 0004 1B78     		ldrb	r3, [r3]
 110 0006 002B     		cmp	r3, #0
 111 0008 01D0     		beq	.L9
 124:.\Generated_Source\PSoC4/Zero_Cross_PM.c ****     {
 125:.\Generated_Source\PSoC4/Zero_Cross_PM.c ****         /* Enable Comp's operation */
 126:.\Generated_Source\PSoC4/Zero_Cross_PM.c ****         Zero_Cross_Enable();
 112              		.loc 1 126 0
 113 000a FFF7FEFF 		bl	Zero_Cross_Enable
 114              	.LVL1:
 115              	.L9:
 127:.\Generated_Source\PSoC4/Zero_Cross_PM.c ****     } /* Do nothing if Comp was disabled before */
 128:.\Generated_Source\PSoC4/Zero_Cross_PM.c **** #endif /* (Zero_Cross_CHECK_DEEPSLEEP_SUPPORT) */
 129:.\Generated_Source\PSoC4/Zero_Cross_PM.c **** }
 116              		.loc 1 129 0
 117              		@ sp needed
 118 000e 08BD     		pop	{r3, pc}
 119              	.L15:
 120              		.align	2
 121              	.L14:
 122 0010 00000000 		.word	.LANCHOR0
 123              		.cfi_endproc
 124              	.LFE3:
 125              		.size	Zero_Cross_Wakeup, .-Zero_Cross_Wakeup
 126              		.bss
 127              		.set	.LANCHOR0,. + 0
 128              		.type	Zero_Cross_backup, %object
 129              		.size	Zero_Cross_backup, 1
 130              	Zero_Cross_backup:
 131 0000 00       		.space	1
 132              		.text
 133              	.Letext0:
 134              		.file 2 ".\\Generated_Source\\PSoC4\\cytypes.h"
 135              		.file 3 ".\\Generated_Source\\PSoC4\\Zero_Cross.h"